
cdc_msc.elf:     file format elf32-littlearm

Sections:
Idx Name          Size      VMA       LMA       File off  Algn
  0 .boot2        00000100  10000000  10000000  00010000  2**0
                  CONTENTS, ALLOC, LOAD, READONLY, CODE
  1 .text         00006a10  10000100  10000100  00010100  2**3
                  CONTENTS, ALLOC, LOAD, READONLY, CODE
  2 .rodata       000003b4  10006b10  10006b10  00016b10  2**3
                  CONTENTS, ALLOC, LOAD, READONLY, DATA
  3 .binary_info  00000028  10006ec4  10006ec4  00016ec4  2**2
                  CONTENTS, ALLOC, LOAD, DATA
  4 .ram_vector_table 000000c0  20000000  20000000  00022ccc  2**2
                  CONTENTS
  5 .data         00002c00  200000c0  10006eec  000200c0  2**4
                  CONTENTS, ALLOC, LOAD, CODE
  6 .uninitialized_ram.magic_location 0000000c  20002cc0  10009aec  00022cc0  2**2
                  CONTENTS, ALLOC, LOAD, DATA
  7 .uninitialized_data 00000000  20002ccc  20002ccc  00022d8c  2**0
                  CONTENTS
  8 .scratch_x    00000000  20040000  20040000  00022d8c  2**0
                  CONTENTS
  9 .scratch_y    00000000  20041000  20041000  00022d8c  2**0
                  CONTENTS
 10 .bss          00000d80  20002cd0  20002cd0  00022cd0  2**3
                  ALLOC
 11 .heap         00000800  20003a50  20003a50  00022d8c  2**2
                  CONTENTS, READONLY
 12 .stack_dummy  00000800  20041000  20041000  000235a0  2**5
                  CONTENTS, READONLY
 13 .ARM.attributes 00000028  00000000  00000000  00023da0  2**0
                  CONTENTS, READONLY
 14 .comment      00000031  00000000  00000000  00023dc8  2**0
                  CONTENTS, READONLY
 15 .debug_line   00002b10  00000000  00000000  00023df9  2**0
                  CONTENTS, READONLY, DEBUGGING
 16 .debug_info   0001192f  00000000  00000000  00026909  2**0
                  CONTENTS, READONLY, DEBUGGING
 17 .debug_abbrev 000038ad  00000000  00000000  00038238  2**0
                  CONTENTS, READONLY, DEBUGGING
 18 .debug_aranges 00000358  00000000  00000000  0003bae8  2**3
                  CONTENTS, READONLY, DEBUGGING
 19 .debug_str    000012e6  00000000  00000000  0003be40  2**0
                  CONTENTS, READONLY, DEBUGGING
 20 .debug_loc    00002b3a  00000000  00000000  0003d126  2**0
                  CONTENTS, READONLY, DEBUGGING
 21 .debug_ranges 000001c0  00000000  00000000  0003fc60  2**0
                  CONTENTS, READONLY, DEBUGGING
 22 .debug_frame  000006b8  00000000  00000000  0003fe20  2**2
                  CONTENTS, READONLY, DEBUGGING
 23 .stab         0000006c  00000000  00000000  000404d8  2**2
                  CONTENTS, READONLY, DEBUGGING
 24 .stabstr      000000e3  00000000  00000000  00040544  2**0
                  CONTENTS, READONLY, DEBUGGING

cdc_msc.elf:     file format elf32-littlearm


Disassembly of section .boot2:

10000000 <__flash_binary_start>:
10000000:	4b32b500 	.word	0x4b32b500
10000004:	60582021 	.word	0x60582021
10000008:	21026898 	.word	0x21026898
1000000c:	60984388 	.word	0x60984388
10000010:	611860d8 	.word	0x611860d8
10000014:	4b2e6158 	.word	0x4b2e6158
10000018:	60992100 	.word	0x60992100
1000001c:	61592102 	.word	0x61592102
10000020:	22f02101 	.word	0x22f02101
10000024:	492b5099 	.word	0x492b5099
10000028:	21016019 	.word	0x21016019
1000002c:	20356099 	.word	0x20356099
10000030:	f844f000 	.word	0xf844f000
10000034:	42902202 	.word	0x42902202
10000038:	2106d014 	.word	0x2106d014
1000003c:	f0006619 	.word	0xf0006619
10000040:	6e19f834 	.word	0x6e19f834
10000044:	66192101 	.word	0x66192101
10000048:	66182000 	.word	0x66182000
1000004c:	f000661a 	.word	0xf000661a
10000050:	6e19f82c 	.word	0x6e19f82c
10000054:	6e196e19 	.word	0x6e196e19
10000058:	f0002005 	.word	0xf0002005
1000005c:	2101f82f 	.word	0x2101f82f
10000060:	d1f94208 	.word	0xd1f94208
10000064:	60992100 	.word	0x60992100
10000068:	6019491b 	.word	0x6019491b
1000006c:	60592100 	.word	0x60592100
10000070:	481b491a 	.word	0x481b491a
10000074:	21016001 	.word	0x21016001
10000078:	21eb6099 	.word	0x21eb6099
1000007c:	21a06619 	.word	0x21a06619
10000080:	f0006619 	.word	0xf0006619
10000084:	2100f812 	.word	0x2100f812
10000088:	49166099 	.word	0x49166099
1000008c:	60014814 	.word	0x60014814
10000090:	60992101 	.word	0x60992101
10000094:	2800bc01 	.word	0x2800bc01
10000098:	4700d000 	.word	0x4700d000
1000009c:	49134812 	.word	0x49134812
100000a0:	c8036008 	.word	0xc8036008
100000a4:	8808f380 	.word	0x8808f380
100000a8:	b5034708 	.word	0xb5034708
100000ac:	20046a99 	.word	0x20046a99
100000b0:	d0fb4201 	.word	0xd0fb4201
100000b4:	42012001 	.word	0x42012001
100000b8:	bd03d1f8 	.word	0xbd03d1f8
100000bc:	6618b502 	.word	0x6618b502
100000c0:	f7ff6618 	.word	0xf7ff6618
100000c4:	6e18fff2 	.word	0x6e18fff2
100000c8:	bd026e18 	.word	0xbd026e18
100000cc:	40020000 	.word	0x40020000
100000d0:	18000000 	.word	0x18000000
100000d4:	00070000 	.word	0x00070000
100000d8:	005f0300 	.word	0x005f0300
100000dc:	00002221 	.word	0x00002221
100000e0:	180000f4 	.word	0x180000f4
100000e4:	a0002022 	.word	0xa0002022
100000e8:	10000100 	.word	0x10000100
100000ec:	e000ed08 	.word	0xe000ed08
	...
100000fc:	7a4eb274 	.word	0x7a4eb274

Disassembly of section .text:

10000100 <__VECTOR_TABLE>:
10000100:	20042000 	.word	0x20042000
10000104:	100001f7 	.word	0x100001f7
10000108:	100001c3 	.word	0x100001c3
1000010c:	100001c5 	.word	0x100001c5
10000110:	100001c1 	.word	0x100001c1
10000114:	100001c1 	.word	0x100001c1
10000118:	100001c1 	.word	0x100001c1
1000011c:	100001c1 	.word	0x100001c1
10000120:	100001c1 	.word	0x100001c1
10000124:	100001c1 	.word	0x100001c1
10000128:	100001c1 	.word	0x100001c1
1000012c:	100001c7 	.word	0x100001c7
10000130:	100001c1 	.word	0x100001c1
10000134:	100001c1 	.word	0x100001c1
10000138:	100001c9 	.word	0x100001c9
1000013c:	100001cb 	.word	0x100001cb
10000140:	100001cd 	.word	0x100001cd
10000144:	100001cd 	.word	0x100001cd
10000148:	100001cd 	.word	0x100001cd
1000014c:	100001cd 	.word	0x100001cd
10000150:	100001cd 	.word	0x100001cd
10000154:	100001cd 	.word	0x100001cd
10000158:	100001cd 	.word	0x100001cd
1000015c:	100001cd 	.word	0x100001cd
10000160:	100001cd 	.word	0x100001cd
10000164:	100001cd 	.word	0x100001cd
10000168:	100001cd 	.word	0x100001cd
1000016c:	100001cd 	.word	0x100001cd
10000170:	100001cd 	.word	0x100001cd
10000174:	100001cd 	.word	0x100001cd
10000178:	100001cd 	.word	0x100001cd
1000017c:	100001cd 	.word	0x100001cd
10000180:	100001cd 	.word	0x100001cd
10000184:	100001cd 	.word	0x100001cd
10000188:	100001cd 	.word	0x100001cd
1000018c:	100001cd 	.word	0x100001cd
10000190:	100001cd 	.word	0x100001cd
10000194:	100001cd 	.word	0x100001cd
10000198:	100001cd 	.word	0x100001cd
1000019c:	100001cd 	.word	0x100001cd
100001a0:	100001cd 	.word	0x100001cd
100001a4:	100001cd 	.word	0x100001cd
100001a8:	100001cd 	.word	0x100001cd
100001ac:	100001cd 	.word	0x100001cd
100001b0:	100001cd 	.word	0x100001cd
100001b4:	100001cd 	.word	0x100001cd
100001b8:	100001cd 	.word	0x100001cd
100001bc:	100001cd 	.word	0x100001cd

100001c0 <isr_invalid>:
100001c0:	be00      	bkpt	0x0000

100001c2 <isr_nmi>:
100001c2:	be00      	bkpt	0x0000

100001c4 <isr_hardfault>:
100001c4:	be00      	bkpt	0x0000

100001c6 <isr_svcall>:
100001c6:	be00      	bkpt	0x0000

100001c8 <isr_pendsv>:
100001c8:	be00      	bkpt	0x0000

100001ca <isr_systick>:
100001ca:	be00      	bkpt	0x0000

100001cc <__unhandled_user_irq>:
100001cc:	f000 f84b 	bl	10000266 <__get_current_exception>
100001d0:	3810      	subs	r0, #16

100001d2 <unhandled_user_irq_num_in_r0>:
100001d2:	be00      	bkpt	0x0000

100001d4 <binary_info_header>:
100001d4:	7188ebf2 	.word	0x7188ebf2
100001d8:	10006ec4 	.word	0x10006ec4
100001dc:	10006eec 	.word	0x10006eec
100001e0:	10000234 	.word	0x10000234
100001e4:	e71aa390 	.word	0xe71aa390

100001e8 <_entry_point>:
100001e8:	2000      	movs	r0, #0
100001ea:	4921      	ldr	r1, [pc, #132]	; (10000270 <__get_current_exception+0xa>)
100001ec:	6008      	str	r0, [r1, #0]
100001ee:	c806      	ldmia	r0!, {r1, r2}
100001f0:	f381 8808 	msr	MSP, r1
100001f4:	4710      	bx	r2

100001f6 <_reset_handler>:
100001f6:	481f      	ldr	r0, [pc, #124]	; (10000274 <__get_current_exception+0xe>)
100001f8:	6800      	ldr	r0, [r0, #0]
100001fa:	2800      	cmp	r0, #0
100001fc:	d12f      	bne.n	1000025e <hold_non_core0_in_bootrom>
100001fe:	a40d      	add	r4, pc, #52	; (adr r4, 10000234 <data_cpy_table>)
10000200:	cc0e      	ldmia	r4!, {r1, r2, r3}
10000202:	2900      	cmp	r1, #0
10000204:	d002      	beq.n	1000020c <_reset_handler+0x16>
10000206:	f000 f812 	bl	1000022e <data_cpy>
1000020a:	e7f9      	b.n	10000200 <_reset_handler+0xa>
1000020c:	491a      	ldr	r1, [pc, #104]	; (10000278 <__get_current_exception+0x12>)
1000020e:	4a1b      	ldr	r2, [pc, #108]	; (1000027c <__get_current_exception+0x16>)
10000210:	2000      	movs	r0, #0
10000212:	e000      	b.n	10000216 <bss_fill_test>

10000214 <bss_fill_loop>:
10000214:	c101      	stmia	r1!, {r0}

10000216 <bss_fill_test>:
10000216:	4291      	cmp	r1, r2
10000218:	d1fc      	bne.n	10000214 <bss_fill_loop>

1000021a <platform_entry>:
1000021a:	4919      	ldr	r1, [pc, #100]	; (10000280 <__get_current_exception+0x1a>)
1000021c:	4788      	blx	r1
1000021e:	4919      	ldr	r1, [pc, #100]	; (10000284 <__get_current_exception+0x1e>)
10000220:	4788      	blx	r1
10000222:	4919      	ldr	r1, [pc, #100]	; (10000288 <__get_current_exception+0x22>)
10000224:	4788      	blx	r1
10000226:	be00      	bkpt	0x0000
10000228:	e7fd      	b.n	10000226 <platform_entry+0xc>

1000022a <data_cpy_loop>:
1000022a:	c901      	ldmia	r1!, {r0}
1000022c:	c201      	stmia	r2!, {r0}

1000022e <data_cpy>:
1000022e:	429a      	cmp	r2, r3
10000230:	d3fb      	bcc.n	1000022a <data_cpy_loop>
10000232:	4770      	bx	lr

10000234 <data_cpy_table>:
10000234:	10006eec 	.word	0x10006eec
10000238:	200000c0 	.word	0x200000c0
1000023c:	20002cc0 	.word	0x20002cc0
10000240:	10009af8 	.word	0x10009af8
10000244:	20040000 	.word	0x20040000
10000248:	20040000 	.word	0x20040000
1000024c:	10009af8 	.word	0x10009af8
10000250:	20041000 	.word	0x20041000
10000254:	20041000 	.word	0x20041000
10000258:	00000000 	.word	0x00000000
1000025c:	4770      	bx	lr

1000025e <hold_non_core0_in_bootrom>:
1000025e:	480b      	ldr	r0, [pc, #44]	; (1000028c <__get_current_exception+0x26>)
10000260:	f001 ff92 	bl	10002188 <rom_func_lookup>
10000264:	4700      	bx	r0

10000266 <__get_current_exception>:
10000266:	f3ef 8005 	mrs	r0, IPSR
1000026a:	b2c0      	uxtb	r0, r0
1000026c:	4770      	bx	lr
1000026e:	0000      	.short	0x0000
10000270:	e000ed08 	.word	0xe000ed08
10000274:	d0000000 	.word	0xd0000000
10000278:	20002cd0 	.word	0x20002cd0
1000027c:	20003a50 	.word	0x20003a50
10000280:	100018c1 	.word	0x100018c1
10000284:	10000379 	.word	0x10000379
10000288:	100019f9 	.word	0x100019f9
1000028c:	00005657 	.word	0x00005657

10000290 <__bi_50>:
10000290:	50520006 5360b3ab 10006c78              ..RP..`Sxl..

1000029c <__bi_38>:
1000029c:	50520006 02031c86 10006c88              ..RP.....l..

100002a8 <__bi_30>:
100002a8:	50520006 9da22254 10006c90              ..RPT"...l..

100002b4 <__bi_22>:
100002b4:	50520005 68f465de 10009af8              ..RP.e.h....

100002c0 <_init>:
100002c0:	b5f8      	push	{r3, r4, r5, r6, r7, lr}
100002c2:	46c0      	nop			; (mov r8, r8)

100002c4 <deregister_tm_clones>:
100002c4:	4b05      	ldr	r3, [pc, #20]	; (100002dc <deregister_tm_clones+0x18>)
100002c6:	4806      	ldr	r0, [pc, #24]	; (100002e0 <deregister_tm_clones+0x1c>)
100002c8:	3303      	adds	r3, #3
100002ca:	b510      	push	{r4, lr}
100002cc:	1a1b      	subs	r3, r3, r0
100002ce:	2b06      	cmp	r3, #6
100002d0:	d903      	bls.n	100002da <deregister_tm_clones+0x16>
100002d2:	4b04      	ldr	r3, [pc, #16]	; (100002e4 <deregister_tm_clones+0x20>)
100002d4:	2b00      	cmp	r3, #0
100002d6:	d000      	beq.n	100002da <deregister_tm_clones+0x16>
100002d8:	4798      	blx	r3
100002da:	bd10      	pop	{r4, pc}
100002dc:	20002cc0 	.word	0x20002cc0
100002e0:	20002cc0 	.word	0x20002cc0
100002e4:	00000000 	.word	0x00000000

100002e8 <register_tm_clones>:
100002e8:	4806      	ldr	r0, [pc, #24]	; (10000304 <register_tm_clones+0x1c>)
100002ea:	4907      	ldr	r1, [pc, #28]	; (10000308 <register_tm_clones+0x20>)
100002ec:	b510      	push	{r4, lr}
100002ee:	1a09      	subs	r1, r1, r0
100002f0:	1089      	asrs	r1, r1, #2
100002f2:	0fcb      	lsrs	r3, r1, #31
100002f4:	1859      	adds	r1, r3, r1
100002f6:	1049      	asrs	r1, r1, #1
100002f8:	d003      	beq.n	10000302 <register_tm_clones+0x1a>
100002fa:	4b04      	ldr	r3, [pc, #16]	; (1000030c <register_tm_clones+0x24>)
100002fc:	2b00      	cmp	r3, #0
100002fe:	d000      	beq.n	10000302 <register_tm_clones+0x1a>
10000300:	4798      	blx	r3
10000302:	bd10      	pop	{r4, pc}
10000304:	20002cc0 	.word	0x20002cc0
10000308:	20002cc0 	.word	0x20002cc0
1000030c:	00000000 	.word	0x00000000

10000310 <__do_global_dtors_aux>:
10000310:	b510      	push	{r4, lr}
10000312:	4c07      	ldr	r4, [pc, #28]	; (10000330 <__do_global_dtors_aux+0x20>)
10000314:	7823      	ldrb	r3, [r4, #0]
10000316:	2b00      	cmp	r3, #0
10000318:	d109      	bne.n	1000032e <__do_global_dtors_aux+0x1e>
1000031a:	f7ff ffd3 	bl	100002c4 <deregister_tm_clones>
1000031e:	4b05      	ldr	r3, [pc, #20]	; (10000334 <__do_global_dtors_aux+0x24>)
10000320:	2b00      	cmp	r3, #0
10000322:	d002      	beq.n	1000032a <__do_global_dtors_aux+0x1a>
10000324:	4804      	ldr	r0, [pc, #16]	; (10000338 <__do_global_dtors_aux+0x28>)
10000326:	e000      	b.n	1000032a <__do_global_dtors_aux+0x1a>
10000328:	bf00      	nop
1000032a:	2301      	movs	r3, #1
1000032c:	7023      	strb	r3, [r4, #0]
1000032e:	bd10      	pop	{r4, pc}
10000330:	20002dd0 	.word	0x20002dd0
10000334:	00000000 	.word	0x00000000
10000338:	10006b10 	.word	0x10006b10

1000033c <frame_dummy>:
1000033c:	4b09      	ldr	r3, [pc, #36]	; (10000364 <frame_dummy+0x28>)
1000033e:	b510      	push	{r4, lr}
10000340:	2b00      	cmp	r3, #0
10000342:	d003      	beq.n	1000034c <frame_dummy+0x10>
10000344:	4908      	ldr	r1, [pc, #32]	; (10000368 <frame_dummy+0x2c>)
10000346:	4809      	ldr	r0, [pc, #36]	; (1000036c <frame_dummy+0x30>)
10000348:	e000      	b.n	1000034c <frame_dummy+0x10>
1000034a:	bf00      	nop
1000034c:	4808      	ldr	r0, [pc, #32]	; (10000370 <frame_dummy+0x34>)
1000034e:	6803      	ldr	r3, [r0, #0]
10000350:	2b00      	cmp	r3, #0
10000352:	d102      	bne.n	1000035a <frame_dummy+0x1e>
10000354:	f7ff ffc8 	bl	100002e8 <register_tm_clones>
10000358:	bd10      	pop	{r4, pc}
1000035a:	4b06      	ldr	r3, [pc, #24]	; (10000374 <frame_dummy+0x38>)
1000035c:	2b00      	cmp	r3, #0
1000035e:	d0f9      	beq.n	10000354 <frame_dummy+0x18>
10000360:	4798      	blx	r3
10000362:	e7f7      	b.n	10000354 <frame_dummy+0x18>
10000364:	00000000 	.word	0x00000000
10000368:	20002dd4 	.word	0x20002dd4
1000036c:	10006b10 	.word	0x10006b10
10000370:	20002cc0 	.word	0x20002cc0
10000374:	00000000 	.word	0x00000000

10000378 <main>:
10000378:	b5f0      	push	{r4, r5, r6, r7, lr}
1000037a:	2701      	movs	r7, #1
1000037c:	b091      	sub	sp, #68	; 0x44
1000037e:	f002 fc4f 	bl	10002c20 <board_init>
10000382:	f004 ff3d 	bl	10005200 <tusb_init>
10000386:	4c1c      	ldr	r4, [pc, #112]	; (100003f8 <main+0x80>)
10000388:	4e1c      	ldr	r6, [pc, #112]	; (100003fc <main+0x84>)
1000038a:	4d1d      	ldr	r5, [pc, #116]	; (10000400 <main+0x88>)
1000038c:	f003 f932 	bl	100035f4 <tud_task>
10000390:	f000 fe9c 	bl	100010cc <time_us_64>
10000394:	2900      	cmp	r1, #0
10000396:	d029      	beq.n	100003ec <main+0x74>
10000398:	22fa      	movs	r2, #250	; 0xfa
1000039a:	2300      	movs	r3, #0
1000039c:	0092      	lsls	r2, r2, #2
1000039e:	f001 ff67 	bl	10002270 <__wrap___aeabi_uldivmod>
100003a2:	6823      	ldr	r3, [r4, #0]
100003a4:	6832      	ldr	r2, [r6, #0]
100003a6:	1ac0      	subs	r0, r0, r3
100003a8:	4290      	cmp	r0, r2
100003aa:	d307      	bcc.n	100003bc <main+0x44>
100003ac:	189b      	adds	r3, r3, r2
100003ae:	7828      	ldrb	r0, [r5, #0]
100003b0:	6023      	str	r3, [r4, #0]
100003b2:	f002 fc4d 	bl	10002c50 <board_led_write>
100003b6:	782b      	ldrb	r3, [r5, #0]
100003b8:	407b      	eors	r3, r7
100003ba:	702b      	strb	r3, [r5, #0]
100003bc:	2000      	movs	r0, #0
100003be:	f004 f8b3 	bl	10004528 <tud_cdc_n_available>
100003c2:	2800      	cmp	r0, #0
100003c4:	d0e2      	beq.n	1000038c <main+0x14>
100003c6:	2240      	movs	r2, #64	; 0x40
100003c8:	4669      	mov	r1, sp
100003ca:	2000      	movs	r0, #0
100003cc:	f004 f8ba 	bl	10004544 <tud_cdc_n_read>
100003d0:	4669      	mov	r1, sp
100003d2:	0002      	movs	r2, r0
100003d4:	2000      	movs	r0, #0
100003d6:	f004 f8ed 	bl	100045b4 <tud_cdc_n_write>
100003da:	2000      	movs	r0, #0
100003dc:	f004 f930 	bl	10004640 <tud_cdc_n_write_flush>
100003e0:	f003 f908 	bl	100035f4 <tud_task>
100003e4:	f000 fe72 	bl	100010cc <time_us_64>
100003e8:	2900      	cmp	r1, #0
100003ea:	d1d5      	bne.n	10000398 <main+0x20>
100003ec:	21fa      	movs	r1, #250	; 0xfa
100003ee:	0089      	lsls	r1, r1, #2
100003f0:	f001 fefc 	bl	100021ec <__wrap___aeabi_uidiv>
100003f4:	e7d5      	b.n	100003a2 <main+0x2a>
100003f6:	46c0      	nop			; (mov r8, r8)
100003f8:	20003760 	.word	0x20003760
100003fc:	20000368 	.word	0x20000368
10000400:	20003781 	.word	0x20003781

10000404 <tud_mount_cb>:
10000404:	22fa      	movs	r2, #250	; 0xfa
10000406:	4b02      	ldr	r3, [pc, #8]	; (10000410 <tud_mount_cb+0xc>)
10000408:	0092      	lsls	r2, r2, #2
1000040a:	601a      	str	r2, [r3, #0]
1000040c:	4770      	bx	lr
1000040e:	46c0      	nop			; (mov r8, r8)
10000410:	20000368 	.word	0x20000368

10000414 <tud_umount_cb>:
10000414:	22fa      	movs	r2, #250	; 0xfa
10000416:	4b01      	ldr	r3, [pc, #4]	; (1000041c <tud_umount_cb+0x8>)
10000418:	601a      	str	r2, [r3, #0]
1000041a:	4770      	bx	lr
1000041c:	20000368 	.word	0x20000368

10000420 <tud_suspend_cb>:
10000420:	4a01      	ldr	r2, [pc, #4]	; (10000428 <tud_suspend_cb+0x8>)
10000422:	4b02      	ldr	r3, [pc, #8]	; (1000042c <tud_suspend_cb+0xc>)
10000424:	601a      	str	r2, [r3, #0]
10000426:	4770      	bx	lr
10000428:	000009c4 	.word	0x000009c4
1000042c:	20000368 	.word	0x20000368

10000430 <tud_resume_cb>:
10000430:	22fa      	movs	r2, #250	; 0xfa
10000432:	4b02      	ldr	r3, [pc, #8]	; (1000043c <tud_resume_cb+0xc>)
10000434:	0092      	lsls	r2, r2, #2
10000436:	601a      	str	r2, [r3, #0]
10000438:	4770      	bx	lr
1000043a:	46c0      	nop			; (mov r8, r8)
1000043c:	20000368 	.word	0x20000368

10000440 <tud_cdc_line_state_cb>:
10000440:	4770      	bx	lr
10000442:	46c0      	nop			; (mov r8, r8)

10000444 <tud_cdc_rx_cb>:
10000444:	4770      	bx	lr
10000446:	46c0      	nop			; (mov r8, r8)

10000448 <tud_msc_inquiry_cb>:
10000448:	b5f0      	push	{r4, r5, r6, r7, lr}
1000044a:	46c6      	mov	lr, r8
1000044c:	b500      	push	{lr}
1000044e:	b088      	sub	sp, #32
10000450:	468c      	mov	ip, r1
10000452:	a902      	add	r1, sp, #8
10000454:	0016      	movs	r6, r2
10000456:	000a      	movs	r2, r1
10000458:	4698      	mov	r8, r3
1000045a:	4b0f      	ldr	r3, [pc, #60]	; (10000498 <tud_msc_inquiry_cb+0x50>)
1000045c:	cb90      	ldmia	r3!, {r4, r7}
1000045e:	c290      	stmia	r2!, {r4, r7}
10000460:	ac04      	add	r4, sp, #16
10000462:	0022      	movs	r2, r4
10000464:	4b0d      	ldr	r3, [pc, #52]	; (1000049c <tud_msc_inquiry_cb+0x54>)
10000466:	cba1      	ldmia	r3!, {r0, r5, r7}
10000468:	c2a1      	stmia	r2!, {r0, r5, r7}
1000046a:	781b      	ldrb	r3, [r3, #0]
1000046c:	4660      	mov	r0, ip
1000046e:	7013      	strb	r3, [r2, #0]
10000470:	4b0b      	ldr	r3, [pc, #44]	; (100004a0 <tud_msc_inquiry_cb+0x58>)
10000472:	2207      	movs	r2, #7
10000474:	9301      	str	r3, [sp, #4]
10000476:	f002 f9a5 	bl	100027c4 <__wrap___aeabi_memcpy>
1000047a:	0021      	movs	r1, r4
1000047c:	220c      	movs	r2, #12
1000047e:	0030      	movs	r0, r6
10000480:	f002 f9a0 	bl	100027c4 <__wrap___aeabi_memcpy>
10000484:	2203      	movs	r2, #3
10000486:	a901      	add	r1, sp, #4
10000488:	4640      	mov	r0, r8
1000048a:	f002 f99b 	bl	100027c4 <__wrap___aeabi_memcpy>
1000048e:	b008      	add	sp, #32
10000490:	bc04      	pop	{r2}
10000492:	4690      	mov	r8, r2
10000494:	bdf0      	pop	{r4, r5, r6, r7, pc}
10000496:	46c0      	nop			; (mov r8, r8)
10000498:	10006b10 	.word	0x10006b10
1000049c:	10006b18 	.word	0x10006b18
100004a0:	00302e31 	.word	0x00302e31

100004a4 <tud_msc_test_unit_ready_cb>:
100004a4:	4b06      	ldr	r3, [pc, #24]	; (100004c0 <tud_msc_test_unit_ready_cb+0x1c>)
100004a6:	b510      	push	{r4, lr}
100004a8:	781a      	ldrb	r2, [r3, #0]
100004aa:	2301      	movs	r3, #1
100004ac:	2a00      	cmp	r2, #0
100004ae:	d005      	beq.n	100004bc <tud_msc_test_unit_ready_cb+0x18>
100004b0:	2300      	movs	r3, #0
100004b2:	223a      	movs	r2, #58	; 0x3a
100004b4:	2102      	movs	r1, #2
100004b6:	f004 fb65 	bl	10004b84 <tud_msc_set_sense>
100004ba:	2300      	movs	r3, #0
100004bc:	0018      	movs	r0, r3
100004be:	bd10      	pop	{r4, pc}
100004c0:	2000377f 	.word	0x2000377f

100004c4 <tud_msc_capacity_cb>:
100004c4:	2310      	movs	r3, #16
100004c6:	600b      	str	r3, [r1, #0]
100004c8:	33f1      	adds	r3, #241	; 0xf1
100004ca:	33ff      	adds	r3, #255	; 0xff
100004cc:	8013      	strh	r3, [r2, #0]
100004ce:	4770      	bx	lr

100004d0 <tud_msc_start_stop_cb>:
100004d0:	2b00      	cmp	r3, #0
100004d2:	d004      	beq.n	100004de <tud_msc_start_stop_cb+0xe>
100004d4:	2a00      	cmp	r2, #0
100004d6:	d102      	bne.n	100004de <tud_msc_start_stop_cb+0xe>
100004d8:	4b02      	ldr	r3, [pc, #8]	; (100004e4 <tud_msc_start_stop_cb+0x14>)
100004da:	3201      	adds	r2, #1
100004dc:	701a      	strb	r2, [r3, #0]
100004de:	2001      	movs	r0, #1
100004e0:	4770      	bx	lr
100004e2:	46c0      	nop			; (mov r8, r8)
100004e4:	2000377f 	.word	0x2000377f

100004e8 <tud_msc_read10_cb>:
100004e8:	b510      	push	{r4, lr}
100004ea:	0249      	lsls	r1, r1, #9
100004ec:	1889      	adds	r1, r1, r2
100004ee:	4a04      	ldr	r2, [pc, #16]	; (10000500 <tud_msc_read10_cb+0x18>)
100004f0:	0018      	movs	r0, r3
100004f2:	1851      	adds	r1, r2, r1
100004f4:	9a02      	ldr	r2, [sp, #8]
100004f6:	f002 f965 	bl	100027c4 <__wrap___aeabi_memcpy>
100004fa:	9802      	ldr	r0, [sp, #8]
100004fc:	bd10      	pop	{r4, pc}
100004fe:	46c0      	nop			; (mov r8, r8)
10000500:	2000036c 	.word	0x2000036c

10000504 <tud_msc_write10_cb>:
10000504:	b510      	push	{r4, lr}
10000506:	4805      	ldr	r0, [pc, #20]	; (1000051c <tud_msc_write10_cb+0x18>)
10000508:	024c      	lsls	r4, r1, #9
1000050a:	18a2      	adds	r2, r4, r2
1000050c:	1880      	adds	r0, r0, r2
1000050e:	0019      	movs	r1, r3
10000510:	9a02      	ldr	r2, [sp, #8]
10000512:	f002 f957 	bl	100027c4 <__wrap___aeabi_memcpy>
10000516:	9802      	ldr	r0, [sp, #8]
10000518:	bd10      	pop	{r4, pc}
1000051a:	46c0      	nop			; (mov r8, r8)
1000051c:	2000036c 	.word	0x2000036c

10000520 <tud_msc_scsi_cb>:
10000520:	b510      	push	{r4, lr}
10000522:	780a      	ldrb	r2, [r1, #0]
10000524:	001c      	movs	r4, r3
10000526:	2300      	movs	r3, #0
10000528:	2a1e      	cmp	r2, #30
1000052a:	d101      	bne.n	10000530 <tud_msc_scsi_cb+0x10>
1000052c:	0018      	movs	r0, r3
1000052e:	bd10      	pop	{r4, pc}
10000530:	2220      	movs	r2, #32
10000532:	2105      	movs	r1, #5
10000534:	f004 fb26 	bl	10004b84 <tud_msc_set_sense>
10000538:	0023      	movs	r3, r4
1000053a:	e7f7      	b.n	1000052c <tud_msc_scsi_cb+0xc>

1000053c <tud_descriptor_device_cb>:
1000053c:	4800      	ldr	r0, [pc, #0]	; (10000540 <tud_descriptor_device_cb+0x4>)
1000053e:	4770      	bx	lr
10000540:	10006b2c 	.word	0x10006b2c

10000544 <tud_descriptor_configuration_cb>:
10000544:	4800      	ldr	r0, [pc, #0]	; (10000548 <tud_descriptor_configuration_cb+0x4>)
10000546:	4770      	bx	lr
10000548:	10006b40 	.word	0x10006b40

1000054c <tud_descriptor_string_cb>:
1000054c:	b570      	push	{r4, r5, r6, lr}
1000054e:	2800      	cmp	r0, #0
10000550:	d025      	beq.n	1000059e <tud_descriptor_string_cb+0x52>
10000552:	2805      	cmp	r0, #5
10000554:	d82d      	bhi.n	100005b2 <tud_descriptor_string_cb+0x66>
10000556:	4b19      	ldr	r3, [pc, #100]	; (100005bc <tud_descriptor_string_cb+0x70>)
10000558:	0080      	lsls	r0, r0, #2
1000055a:	58c4      	ldr	r4, [r0, r3]
1000055c:	0020      	movs	r0, r4
1000055e:	f005 fc8f 	bl	10005e80 <strlen>
10000562:	b2c3      	uxtb	r3, r0
10000564:	2b1f      	cmp	r3, #31
10000566:	d818      	bhi.n	1000059a <tud_descriptor_string_cb+0x4e>
10000568:	b2d8      	uxtb	r0, r3
1000056a:	2800      	cmp	r0, #0
1000056c:	d023      	beq.n	100005b6 <tud_descriptor_string_cb+0x6a>
1000056e:	0023      	movs	r3, r4
10000570:	1e44      	subs	r4, r0, #1
10000572:	4d13      	ldr	r5, [pc, #76]	; (100005c0 <tud_descriptor_string_cb+0x74>)
10000574:	b2e4      	uxtb	r4, r4
10000576:	3401      	adds	r4, #1
10000578:	1caa      	adds	r2, r5, #2
1000057a:	191c      	adds	r4, r3, r4
1000057c:	7819      	ldrb	r1, [r3, #0]
1000057e:	3301      	adds	r3, #1
10000580:	8011      	strh	r1, [r2, #0]
10000582:	3202      	adds	r2, #2
10000584:	429c      	cmp	r4, r3
10000586:	d1f9      	bne.n	1000057c <tud_descriptor_string_cb+0x30>
10000588:	23c0      	movs	r3, #192	; 0xc0
1000058a:	3001      	adds	r0, #1
1000058c:	0040      	lsls	r0, r0, #1
1000058e:	009b      	lsls	r3, r3, #2
10000590:	4318      	orrs	r0, r3
10000592:	b280      	uxth	r0, r0
10000594:	8028      	strh	r0, [r5, #0]
10000596:	0028      	movs	r0, r5
10000598:	bd70      	pop	{r4, r5, r6, pc}
1000059a:	201f      	movs	r0, #31
1000059c:	e7e7      	b.n	1000056e <tud_descriptor_string_cb+0x22>
1000059e:	4d08      	ldr	r5, [pc, #32]	; (100005c0 <tud_descriptor_string_cb+0x74>)
100005a0:	4b06      	ldr	r3, [pc, #24]	; (100005bc <tud_descriptor_string_cb+0x70>)
100005a2:	1ca8      	adds	r0, r5, #2
100005a4:	6819      	ldr	r1, [r3, #0]
100005a6:	2202      	movs	r2, #2
100005a8:	f002 f90c 	bl	100027c4 <__wrap___aeabi_memcpy>
100005ac:	20c1      	movs	r0, #193	; 0xc1
100005ae:	0080      	lsls	r0, r0, #2
100005b0:	e7f0      	b.n	10000594 <tud_descriptor_string_cb+0x48>
100005b2:	2000      	movs	r0, #0
100005b4:	e7f0      	b.n	10000598 <tud_descriptor_string_cb+0x4c>
100005b6:	4803      	ldr	r0, [pc, #12]	; (100005c4 <tud_descriptor_string_cb+0x78>)
100005b8:	4d01      	ldr	r5, [pc, #4]	; (100005c0 <tud_descriptor_string_cb+0x74>)
100005ba:	e7eb      	b.n	10000594 <tud_descriptor_string_cb+0x48>
100005bc:	2000236c 	.word	0x2000236c
100005c0:	20002f90 	.word	0x20002f90
100005c4:	00000302 	.word	0x00000302

100005c8 <gpio_set_function>:
100005c8:	4a09      	ldr	r2, [pc, #36]	; (100005f0 <gpio_set_function+0x28>)
100005ca:	0083      	lsls	r3, r0, #2
100005cc:	4694      	mov	ip, r2
100005ce:	2240      	movs	r2, #64	; 0x40
100005d0:	4463      	add	r3, ip
100005d2:	b510      	push	{r4, lr}
100005d4:	681c      	ldr	r4, [r3, #0]
100005d6:	00c0      	lsls	r0, r0, #3
100005d8:	4062      	eors	r2, r4
100005da:	24c0      	movs	r4, #192	; 0xc0
100005dc:	4014      	ands	r4, r2
100005de:	2280      	movs	r2, #128	; 0x80
100005e0:	0152      	lsls	r2, r2, #5
100005e2:	4313      	orrs	r3, r2
100005e4:	601c      	str	r4, [r3, #0]
100005e6:	4b03      	ldr	r3, [pc, #12]	; (100005f4 <gpio_set_function+0x2c>)
100005e8:	469c      	mov	ip, r3
100005ea:	4460      	add	r0, ip
100005ec:	6041      	str	r1, [r0, #4]
100005ee:	bd10      	pop	{r4, pc}
100005f0:	4001c004 	.word	0x4001c004
100005f4:	40014000 	.word	0x40014000

100005f8 <gpio_get_function>:
100005f8:	4b03      	ldr	r3, [pc, #12]	; (10000608 <gpio_get_function+0x10>)
100005fa:	00c0      	lsls	r0, r0, #3
100005fc:	469c      	mov	ip, r3
100005fe:	4460      	add	r0, ip
10000600:	6843      	ldr	r3, [r0, #4]
10000602:	201f      	movs	r0, #31
10000604:	4018      	ands	r0, r3
10000606:	4770      	bx	lr
10000608:	40014000 	.word	0x40014000

1000060c <gpio_set_pulls>:
1000060c:	4b0b      	ldr	r3, [pc, #44]	; (1000063c <gpio_set_pulls+0x30>)
1000060e:	0080      	lsls	r0, r0, #2
10000610:	469c      	mov	ip, r3
10000612:	4460      	add	r0, ip
10000614:	2900      	cmp	r1, #0
10000616:	d00d      	beq.n	10000634 <gpio_set_pulls+0x28>
10000618:	210c      	movs	r1, #12
1000061a:	2308      	movs	r3, #8
1000061c:	2a00      	cmp	r2, #0
1000061e:	d000      	beq.n	10000622 <gpio_set_pulls+0x16>
10000620:	000b      	movs	r3, r1
10000622:	6802      	ldr	r2, [r0, #0]
10000624:	4053      	eors	r3, r2
10000626:	220c      	movs	r2, #12
10000628:	401a      	ands	r2, r3
1000062a:	2380      	movs	r3, #128	; 0x80
1000062c:	015b      	lsls	r3, r3, #5
1000062e:	4318      	orrs	r0, r3
10000630:	6002      	str	r2, [r0, #0]
10000632:	4770      	bx	lr
10000634:	2104      	movs	r1, #4
10000636:	2300      	movs	r3, #0
10000638:	e7f0      	b.n	1000061c <gpio_set_pulls+0x10>
1000063a:	46c0      	nop			; (mov r8, r8)
1000063c:	4001c004 	.word	0x4001c004

10000640 <gpio_set_inover>:
10000640:	4b07      	ldr	r3, [pc, #28]	; (10000660 <gpio_set_inover+0x20>)
10000642:	00c0      	lsls	r0, r0, #3
10000644:	469c      	mov	ip, r3
10000646:	4460      	add	r0, ip
10000648:	6803      	ldr	r3, [r0, #0]
1000064a:	0409      	lsls	r1, r1, #16
1000064c:	4059      	eors	r1, r3
1000064e:	23c0      	movs	r3, #192	; 0xc0
10000650:	029b      	lsls	r3, r3, #10
10000652:	4019      	ands	r1, r3
10000654:	2380      	movs	r3, #128	; 0x80
10000656:	015b      	lsls	r3, r3, #5
10000658:	4318      	orrs	r0, r3
1000065a:	6001      	str	r1, [r0, #0]
1000065c:	4770      	bx	lr
1000065e:	46c0      	nop			; (mov r8, r8)
10000660:	40014004 	.word	0x40014004

10000664 <gpio_set_oeover>:
10000664:	4b07      	ldr	r3, [pc, #28]	; (10000684 <gpio_set_oeover+0x20>)
10000666:	00c0      	lsls	r0, r0, #3
10000668:	469c      	mov	ip, r3
1000066a:	4460      	add	r0, ip
1000066c:	6803      	ldr	r3, [r0, #0]
1000066e:	0309      	lsls	r1, r1, #12
10000670:	4059      	eors	r1, r3
10000672:	23c0      	movs	r3, #192	; 0xc0
10000674:	019b      	lsls	r3, r3, #6
10000676:	4019      	ands	r1, r3
10000678:	2380      	movs	r3, #128	; 0x80
1000067a:	015b      	lsls	r3, r3, #5
1000067c:	4318      	orrs	r0, r3
1000067e:	6001      	str	r1, [r0, #0]
10000680:	4770      	bx	lr
10000682:	46c0      	nop			; (mov r8, r8)
10000684:	40014004 	.word	0x40014004

10000688 <gpio_init>:
10000688:	2301      	movs	r3, #1
1000068a:	22d0      	movs	r2, #208	; 0xd0
1000068c:	4083      	lsls	r3, r0
1000068e:	0612      	lsls	r2, r2, #24
10000690:	6293      	str	r3, [r2, #40]	; 0x28
10000692:	6193      	str	r3, [r2, #24]
10000694:	4a09      	ldr	r2, [pc, #36]	; (100006bc <gpio_init+0x34>)
10000696:	0083      	lsls	r3, r0, #2
10000698:	4694      	mov	ip, r2
1000069a:	2240      	movs	r2, #64	; 0x40
1000069c:	4463      	add	r3, ip
1000069e:	6819      	ldr	r1, [r3, #0]
100006a0:	00c0      	lsls	r0, r0, #3
100006a2:	404a      	eors	r2, r1
100006a4:	21c0      	movs	r1, #192	; 0xc0
100006a6:	4011      	ands	r1, r2
100006a8:	2280      	movs	r2, #128	; 0x80
100006aa:	0152      	lsls	r2, r2, #5
100006ac:	4313      	orrs	r3, r2
100006ae:	6019      	str	r1, [r3, #0]
100006b0:	4b03      	ldr	r3, [pc, #12]	; (100006c0 <gpio_init+0x38>)
100006b2:	469c      	mov	ip, r3
100006b4:	2305      	movs	r3, #5
100006b6:	4460      	add	r0, ip
100006b8:	6043      	str	r3, [r0, #4]
100006ba:	4770      	bx	lr
100006bc:	4001c004 	.word	0x4001c004
100006c0:	40014000 	.word	0x40014000

100006c4 <hw_claim_or_assert>:
100006c4:	b5f8      	push	{r3, r4, r5, r6, r7, lr}
100006c6:	f3ef 8710 	mrs	r7, PRIMASK
100006ca:	b672      	cpsid	i
100006cc:	4e0d      	ldr	r6, [pc, #52]	; (10000704 <hw_claim_or_assert+0x40>)
100006ce:	6833      	ldr	r3, [r6, #0]
100006d0:	2b00      	cmp	r3, #0
100006d2:	d0fc      	beq.n	100006ce <hw_claim_or_assert+0xa>
100006d4:	f3bf 8f5f 	dmb	sy
100006d8:	2507      	movs	r5, #7
100006da:	08cb      	lsrs	r3, r1, #3
100006dc:	18c0      	adds	r0, r0, r3
100006de:	2301      	movs	r3, #1
100006e0:	400d      	ands	r5, r1
100006e2:	40ab      	lsls	r3, r5
100006e4:	001d      	movs	r5, r3
100006e6:	7804      	ldrb	r4, [r0, #0]
100006e8:	4025      	ands	r5, r4
100006ea:	d107      	bne.n	100006fc <hw_claim_or_assert+0x38>
100006ec:	4323      	orrs	r3, r4
100006ee:	7003      	strb	r3, [r0, #0]
100006f0:	f3bf 8f5f 	dmb	sy
100006f4:	6035      	str	r5, [r6, #0]
100006f6:	f387 8810 	msr	PRIMASK, r7
100006fa:	bdf8      	pop	{r3, r4, r5, r6, r7, pc}
100006fc:	0010      	movs	r0, r2
100006fe:	f001 f97d 	bl	100019fc <panic>
10000702:	46c0      	nop			; (mov r8, r8)
10000704:	d000012c 	.word	0xd000012c

10000708 <hw_claim_unused_from_range>:
10000708:	b5f8      	push	{r3, r4, r5, r6, r7, lr}
1000070a:	46ce      	mov	lr, r9
1000070c:	4647      	mov	r7, r8
1000070e:	468c      	mov	ip, r1
10000710:	b580      	push	{r7, lr}
10000712:	f3ef 8810 	mrs	r8, PRIMASK
10000716:	b672      	cpsid	i
10000718:	4d1d      	ldr	r5, [pc, #116]	; (10000790 <hw_claim_unused_from_range+0x88>)
1000071a:	682c      	ldr	r4, [r5, #0]
1000071c:	2c00      	cmp	r4, #0
1000071e:	d0fc      	beq.n	1000071a <hw_claim_unused_from_range+0x12>
10000720:	f3bf 8f5f 	dmb	sy
10000724:	429a      	cmp	r2, r3
10000726:	d819      	bhi.n	1000075c <hw_claim_unused_from_range+0x54>
10000728:	2107      	movs	r1, #7
1000072a:	2501      	movs	r5, #1
1000072c:	4011      	ands	r1, r2
1000072e:	408d      	lsls	r5, r1
10000730:	08d4      	lsrs	r4, r2, #3
10000732:	1904      	adds	r4, r0, r4
10000734:	7826      	ldrb	r6, [r4, #0]
10000736:	4235      	tst	r5, r6
10000738:	d01f      	beq.n	1000077a <hw_claim_unused_from_range+0x72>
1000073a:	2107      	movs	r1, #7
1000073c:	4689      	mov	r9, r1
1000073e:	3906      	subs	r1, #6
10000740:	e009      	b.n	10000756 <hw_claim_unused_from_range+0x4e>
10000742:	464d      	mov	r5, r9
10000744:	000f      	movs	r7, r1
10000746:	4015      	ands	r5, r2
10000748:	40af      	lsls	r7, r5
1000074a:	08d4      	lsrs	r4, r2, #3
1000074c:	1904      	adds	r4, r0, r4
1000074e:	7826      	ldrb	r6, [r4, #0]
10000750:	003d      	movs	r5, r7
10000752:	4237      	tst	r7, r6
10000754:	d011      	beq.n	1000077a <hw_claim_unused_from_range+0x72>
10000756:	3201      	adds	r2, #1
10000758:	4293      	cmp	r3, r2
1000075a:	d2f2      	bcs.n	10000742 <hw_claim_unused_from_range+0x3a>
1000075c:	2001      	movs	r0, #1
1000075e:	4240      	negs	r0, r0
10000760:	f3bf 8f5f 	dmb	sy
10000764:	2200      	movs	r2, #0
10000766:	4b0a      	ldr	r3, [pc, #40]	; (10000790 <hw_claim_unused_from_range+0x88>)
10000768:	601a      	str	r2, [r3, #0]
1000076a:	f388 8810 	msr	PRIMASK, r8
1000076e:	2800      	cmp	r0, #0
10000770:	db07      	blt.n	10000782 <hw_claim_unused_from_range+0x7a>
10000772:	bc0c      	pop	{r2, r3}
10000774:	4690      	mov	r8, r2
10000776:	4699      	mov	r9, r3
10000778:	bdf8      	pop	{r3, r4, r5, r6, r7, pc}
1000077a:	4335      	orrs	r5, r6
1000077c:	7025      	strb	r5, [r4, #0]
1000077e:	0010      	movs	r0, r2
10000780:	e7ee      	b.n	10000760 <hw_claim_unused_from_range+0x58>
10000782:	4663      	mov	r3, ip
10000784:	2b00      	cmp	r3, #0
10000786:	d0f4      	beq.n	10000772 <hw_claim_unused_from_range+0x6a>
10000788:	9808      	ldr	r0, [sp, #32]
1000078a:	f001 f937 	bl	100019fc <panic>
1000078e:	46c0      	nop			; (mov r8, r8)
10000790:	d000012c 	.word	0xd000012c

10000794 <running_on_fpga>:
10000794:	4b02      	ldr	r3, [pc, #8]	; (100007a0 <running_on_fpga+0xc>)
10000796:	6818      	ldr	r0, [r3, #0]
10000798:	0780      	lsls	r0, r0, #30
1000079a:	0fc0      	lsrs	r0, r0, #31
1000079c:	4770      	bx	lr
1000079e:	46c0      	nop			; (mov r8, r8)
100007a0:	4006c000 	.word	0x4006c000

100007a4 <spin_locks_reset>:
100007a4:	2100      	movs	r1, #0
100007a6:	4b04      	ldr	r3, [pc, #16]	; (100007b8 <spin_locks_reset+0x14>)
100007a8:	4a04      	ldr	r2, [pc, #16]	; (100007bc <spin_locks_reset+0x18>)
100007aa:	f3bf 8f5f 	dmb	sy
100007ae:	c302      	stmia	r3!, {r1}
100007b0:	4293      	cmp	r3, r2
100007b2:	d1fa      	bne.n	100007aa <spin_locks_reset+0x6>
100007b4:	4770      	bx	lr
100007b6:	46c0      	nop			; (mov r8, r8)
100007b8:	d0000100 	.word	0xd0000100
100007bc:	d0000180 	.word	0xd0000180

100007c0 <next_striped_spin_lock_num>:
100007c0:	4a04      	ldr	r2, [pc, #16]	; (100007d4 <next_striped_spin_lock_num+0x14>)
100007c2:	7810      	ldrb	r0, [r2, #0]
100007c4:	1c43      	adds	r3, r0, #1
100007c6:	b2db      	uxtb	r3, r3
100007c8:	2b17      	cmp	r3, #23
100007ca:	d900      	bls.n	100007ce <next_striped_spin_lock_num+0xe>
100007cc:	2310      	movs	r3, #16
100007ce:	7013      	strb	r3, [r2, #0]
100007d0:	4770      	bx	lr
100007d2:	46c0      	nop			; (mov r8, r8)
100007d4:	20002384 	.word	0x20002384

100007d8 <spin_lock_claim_unused>:
100007d8:	b500      	push	{lr}
100007da:	4b05      	ldr	r3, [pc, #20]	; (100007f0 <spin_lock_claim_unused+0x18>)
100007dc:	b083      	sub	sp, #12
100007de:	0001      	movs	r1, r0
100007e0:	9300      	str	r3, [sp, #0]
100007e2:	2218      	movs	r2, #24
100007e4:	231f      	movs	r3, #31
100007e6:	4803      	ldr	r0, [pc, #12]	; (100007f4 <spin_lock_claim_unused+0x1c>)
100007e8:	f7ff ff8e 	bl	10000708 <hw_claim_unused_from_range>
100007ec:	b003      	add	sp, #12
100007ee:	bd00      	pop	{pc}
100007f0:	10006bd4 	.word	0x10006bd4
100007f4:	200032c4 	.word	0x200032c4

100007f8 <uart_init>:
100007f8:	b5f8      	push	{r3, r4, r5, r6, r7, lr}
100007fa:	0004      	movs	r4, r0
100007fc:	2006      	movs	r0, #6
100007fe:	000d      	movs	r5, r1
10000800:	f001 fa7e 	bl	10001d00 <clock_get_hz>
10000804:	0003      	movs	r3, r0
10000806:	2000      	movs	r0, #0
10000808:	2b00      	cmp	r3, #0
1000080a:	d049      	beq.n	100008a0 <uart_init+0xa8>
1000080c:	4b29      	ldr	r3, [pc, #164]	; (100008b4 <uart_init+0xbc>)
1000080e:	2280      	movs	r2, #128	; 0x80
10000810:	429c      	cmp	r4, r3
10000812:	d04d      	beq.n	100008b0 <uart_init+0xb8>
10000814:	03d2      	lsls	r2, r2, #15
10000816:	4b28      	ldr	r3, [pc, #160]	; (100008b8 <uart_init+0xc0>)
10000818:	4928      	ldr	r1, [pc, #160]	; (100008bc <uart_init+0xc4>)
1000081a:	601a      	str	r2, [r3, #0]
1000081c:	4b28      	ldr	r3, [pc, #160]	; (100008c0 <uart_init+0xc8>)
1000081e:	601a      	str	r2, [r3, #0]
10000820:	0010      	movs	r0, r2
10000822:	688b      	ldr	r3, [r1, #8]
10000824:	4398      	bics	r0, r3
10000826:	d1fb      	bne.n	10000820 <uart_init+0x28>
10000828:	4b26      	ldr	r3, [pc, #152]	; (100008c4 <uart_init+0xcc>)
1000082a:	2180      	movs	r1, #128	; 0x80
1000082c:	18e3      	adds	r3, r4, r3
1000082e:	425a      	negs	r2, r3
10000830:	4153      	adcs	r3, r2
10000832:	4a25      	ldr	r2, [pc, #148]	; (100008c8 <uart_init+0xd0>)
10000834:	005b      	lsls	r3, r3, #1
10000836:	0049      	lsls	r1, r1, #1
10000838:	2006      	movs	r0, #6
1000083a:	5299      	strh	r1, [r3, r2]
1000083c:	f001 fa60 	bl	10001d00 <clock_get_hz>
10000840:	0029      	movs	r1, r5
10000842:	00c0      	lsls	r0, r0, #3
10000844:	f001 fcd2 	bl	100021ec <__wrap___aeabi_uidiv>
10000848:	09c3      	lsrs	r3, r0, #7
1000084a:	d02a      	beq.n	100008a2 <uart_init+0xaa>
1000084c:	4a1f      	ldr	r2, [pc, #124]	; (100008cc <uart_init+0xd4>)
1000084e:	4293      	cmp	r3, r2
10000850:	d82a      	bhi.n	100008a8 <uart_init+0xb0>
10000852:	227f      	movs	r2, #127	; 0x7f
10000854:	4010      	ands	r0, r2
10000856:	3001      	adds	r0, #1
10000858:	0840      	lsrs	r0, r0, #1
1000085a:	019f      	lsls	r7, r3, #6
1000085c:	001a      	movs	r2, r3
1000085e:	0003      	movs	r3, r0
10000860:	183f      	adds	r7, r7, r0
10000862:	0026      	movs	r6, r4
10000864:	2580      	movs	r5, #128	; 0x80
10000866:	6262      	str	r2, [r4, #36]	; 0x24
10000868:	62a3      	str	r3, [r4, #40]	; 0x28
1000086a:	2300      	movs	r3, #0
1000086c:	362c      	adds	r6, #44	; 0x2c
1000086e:	01ad      	lsls	r5, r5, #6
10000870:	4335      	orrs	r5, r6
10000872:	602b      	str	r3, [r5, #0]
10000874:	2006      	movs	r0, #6
10000876:	f001 fa43 	bl	10001d00 <clock_get_hz>
1000087a:	0039      	movs	r1, r7
1000087c:	0080      	lsls	r0, r0, #2
1000087e:	f001 fcb5 	bl	100021ec <__wrap___aeabi_uidiv>
10000882:	2360      	movs	r3, #96	; 0x60
10000884:	6ae2      	ldr	r2, [r4, #44]	; 0x2c
10000886:	4053      	eors	r3, r2
10000888:	226e      	movs	r2, #110	; 0x6e
1000088a:	401a      	ands	r2, r3
1000088c:	2380      	movs	r3, #128	; 0x80
1000088e:	015b      	lsls	r3, r3, #5
10000890:	4333      	orrs	r3, r6
10000892:	601a      	str	r2, [r3, #0]
10000894:	4b0e      	ldr	r3, [pc, #56]	; (100008d0 <uart_init+0xd8>)
10000896:	6323      	str	r3, [r4, #48]	; 0x30
10000898:	2310      	movs	r3, #16
1000089a:	602b      	str	r3, [r5, #0]
1000089c:	3b0d      	subs	r3, #13
1000089e:	64a3      	str	r3, [r4, #72]	; 0x48
100008a0:	bdf8      	pop	{r3, r4, r5, r6, r7, pc}
100008a2:	2740      	movs	r7, #64	; 0x40
100008a4:	2201      	movs	r2, #1
100008a6:	e7dc      	b.n	10000862 <uart_init+0x6a>
100008a8:	4f0a      	ldr	r7, [pc, #40]	; (100008d4 <uart_init+0xdc>)
100008aa:	2300      	movs	r3, #0
100008ac:	4a0a      	ldr	r2, [pc, #40]	; (100008d8 <uart_init+0xe0>)
100008ae:	e7d8      	b.n	10000862 <uart_init+0x6a>
100008b0:	0412      	lsls	r2, r2, #16
100008b2:	e7b0      	b.n	10000816 <uart_init+0x1e>
100008b4:	40038000 	.word	0x40038000
100008b8:	4000e000 	.word	0x4000e000
100008bc:	4000c000 	.word	0x4000c000
100008c0:	4000f000 	.word	0x4000f000
100008c4:	bffc8000 	.word	0xbffc8000
100008c8:	20003784 	.word	0x20003784
100008cc:	0000fffe 	.word	0x0000fffe
100008d0:	00000301 	.word	0x00000301
100008d4:	003fffc0 	.word	0x003fffc0
100008d8:	0000ffff 	.word	0x0000ffff

100008dc <timer_pool_entry_comparator>:
100008dc:	6883      	ldr	r3, [r0, #8]
100008de:	480b      	ldr	r0, [pc, #44]	; (1000090c <timer_pool_entry_comparator+0x30>)
100008e0:	b510      	push	{r4, lr}
100008e2:	4684      	mov	ip, r0
100008e4:	4461      	add	r1, ip
100008e6:	4462      	add	r2, ip
100008e8:	0109      	lsls	r1, r1, #4
100008ea:	0112      	lsls	r2, r2, #4
100008ec:	189a      	adds	r2, r3, r2
100008ee:	1859      	adds	r1, r3, r1
100008f0:	6854      	ldr	r4, [r2, #4]
100008f2:	684b      	ldr	r3, [r1, #4]
100008f4:	2001      	movs	r0, #1
100008f6:	429c      	cmp	r4, r3
100008f8:	d801      	bhi.n	100008fe <timer_pool_entry_comparator+0x22>
100008fa:	d002      	beq.n	10000902 <timer_pool_entry_comparator+0x26>
100008fc:	2000      	movs	r0, #0
100008fe:	b2c0      	uxtb	r0, r0
10000900:	bd10      	pop	{r4, pc}
10000902:	6812      	ldr	r2, [r2, #0]
10000904:	680b      	ldr	r3, [r1, #0]
10000906:	429a      	cmp	r2, r3
10000908:	d8f9      	bhi.n	100008fe <timer_pool_entry_comparator+0x22>
1000090a:	e7f7      	b.n	100008fc <timer_pool_entry_comparator+0x20>
1000090c:	0fffffff 	.word	0x0fffffff

10000910 <sleep_until_callback>:
10000910:	4b0a      	ldr	r3, [pc, #40]	; (1000093c <sleep_until_callback+0x2c>)
10000912:	6819      	ldr	r1, [r3, #0]
10000914:	f3ef 8010 	mrs	r0, PRIMASK
10000918:	b672      	cpsid	i
1000091a:	680a      	ldr	r2, [r1, #0]
1000091c:	2a00      	cmp	r2, #0
1000091e:	d0fc      	beq.n	1000091a <sleep_until_callback+0xa>
10000920:	f3bf 8f5f 	dmb	sy
10000924:	681b      	ldr	r3, [r3, #0]
10000926:	f3bf 8f5f 	dmb	sy
1000092a:	2200      	movs	r2, #0
1000092c:	601a      	str	r2, [r3, #0]
1000092e:	f380 8810 	msr	PRIMASK, r0
10000932:	bf40      	sev
10000934:	2000      	movs	r0, #0
10000936:	2100      	movs	r1, #0
10000938:	4770      	bx	lr
1000093a:	46c0      	nop			; (mov r8, r8)
1000093c:	2000375c 	.word	0x2000375c

10000940 <add_alarm_under_lock>:
10000940:	b5f8      	push	{r3, r4, r5, r6, r7, lr}
10000942:	464e      	mov	r6, r9
10000944:	4645      	mov	r5, r8
10000946:	46de      	mov	lr, fp
10000948:	4657      	mov	r7, sl
1000094a:	b5e0      	push	{r5, r6, r7, lr}
1000094c:	001f      	movs	r7, r3
1000094e:	ab0c      	add	r3, sp, #48	; 0x30
10000950:	781d      	ldrb	r5, [r3, #0]
10000952:	ab0d      	add	r3, sp, #52	; 0x34
10000954:	781b      	ldrb	r3, [r3, #0]
10000956:	4681      	mov	r9, r0
10000958:	469b      	mov	fp, r3
1000095a:	6803      	ldr	r3, [r0, #0]
1000095c:	0016      	movs	r6, r2
1000095e:	4698      	mov	r8, r3
10000960:	2d00      	cmp	r5, #0
10000962:	d108      	bne.n	10000976 <add_alarm_under_lock+0x36>
10000964:	7b98      	ldrb	r0, [r3, #14]
10000966:	2800      	cmp	r0, #0
10000968:	d141      	bne.n	100009ee <add_alarm_under_lock+0xae>
1000096a:	bc3c      	pop	{r2, r3, r4, r5}
1000096c:	4690      	mov	r8, r2
1000096e:	4699      	mov	r9, r3
10000970:	46a2      	mov	sl, r4
10000972:	46ab      	mov	fp, r5
10000974:	bdf8      	pop	{r3, r4, r5, r6, r7, pc}
10000976:	0028      	movs	r0, r5
10000978:	006c      	lsls	r4, r5, #1
1000097a:	1964      	adds	r4, r4, r5
1000097c:	3c03      	subs	r4, #3
1000097e:	4b38      	ldr	r3, [pc, #224]	; (10000a60 <add_alarm_under_lock+0x120>)
10000980:	2200      	movs	r2, #0
10000982:	469c      	mov	ip, r3
10000984:	464b      	mov	r3, r9
10000986:	689b      	ldr	r3, [r3, #8]
10000988:	4460      	add	r0, ip
1000098a:	469c      	mov	ip, r3
1000098c:	0100      	lsls	r0, r0, #4
1000098e:	9b0a      	ldr	r3, [sp, #40]	; 0x28
10000990:	4460      	add	r0, ip
10000992:	6083      	str	r3, [r0, #8]
10000994:	9b0b      	ldr	r3, [sp, #44]	; 0x2c
10000996:	6006      	str	r6, [r0, #0]
10000998:	6047      	str	r7, [r0, #4]
1000099a:	60c3      	str	r3, [r0, #12]
1000099c:	4643      	mov	r3, r8
1000099e:	681b      	ldr	r3, [r3, #0]
100009a0:	191b      	adds	r3, r3, r4
100009a2:	709a      	strb	r2, [r3, #2]
100009a4:	705a      	strb	r2, [r3, #1]
100009a6:	701a      	strb	r2, [r3, #0]
100009a8:	4643      	mov	r3, r8
100009aa:	7b5b      	ldrb	r3, [r3, #13]
100009ac:	469a      	mov	sl, r3
100009ae:	2b00      	cmp	r3, #0
100009b0:	d03b      	beq.n	10000a2a <add_alarm_under_lock+0xea>
100009b2:	4643      	mov	r3, r8
100009b4:	002a      	movs	r2, r5
100009b6:	6898      	ldr	r0, [r3, #8]
100009b8:	4651      	mov	r1, sl
100009ba:	685b      	ldr	r3, [r3, #4]
100009bc:	4798      	blx	r3
100009be:	4643      	mov	r3, r8
100009c0:	681a      	ldr	r2, [r3, #0]
100009c2:	2800      	cmp	r0, #0
100009c4:	d024      	beq.n	10000a10 <add_alarm_under_lock+0xd0>
100009c6:	4653      	mov	r3, sl
100009c8:	005b      	lsls	r3, r3, #1
100009ca:	4453      	add	r3, sl
100009cc:	3b03      	subs	r3, #3
100009ce:	18d3      	adds	r3, r2, r3
100009d0:	1914      	adds	r4, r2, r4
100009d2:	4652      	mov	r2, sl
100009d4:	70a2      	strb	r2, [r4, #2]
100009d6:	781a      	ldrb	r2, [r3, #0]
100009d8:	2a00      	cmp	r2, #0
100009da:	d000      	beq.n	100009de <add_alarm_under_lock+0x9e>
100009dc:	7062      	strb	r2, [r4, #1]
100009de:	701d      	strb	r5, [r3, #0]
100009e0:	4652      	mov	r2, sl
100009e2:	4643      	mov	r3, r8
100009e4:	0028      	movs	r0, r5
100009e6:	735a      	strb	r2, [r3, #13]
100009e8:	45aa      	cmp	sl, r5
100009ea:	d1be      	bne.n	1000096a <add_alarm_under_lock+0x2a>
100009ec:	e01f      	b.n	10000a2e <add_alarm_under_lock+0xee>
100009ee:	4641      	mov	r1, r8
100009f0:	0044      	lsls	r4, r0, #1
100009f2:	681b      	ldr	r3, [r3, #0]
100009f4:	1824      	adds	r4, r4, r0
100009f6:	3c03      	subs	r4, #3
100009f8:	191b      	adds	r3, r3, r4
100009fa:	785a      	ldrb	r2, [r3, #1]
100009fc:	738a      	strb	r2, [r1, #14]
100009fe:	2a00      	cmp	r2, #0
10000a00:	d100      	bne.n	10000a04 <add_alarm_under_lock+0xc4>
10000a02:	73ca      	strb	r2, [r1, #15]
10000a04:	2200      	movs	r2, #0
10000a06:	0005      	movs	r5, r0
10000a08:	709a      	strb	r2, [r3, #2]
10000a0a:	705a      	strb	r2, [r3, #1]
10000a0c:	701a      	strb	r2, [r3, #0]
10000a0e:	e7b6      	b.n	1000097e <add_alarm_under_lock+0x3e>
10000a10:	4653      	mov	r3, sl
10000a12:	005b      	lsls	r3, r3, #1
10000a14:	4453      	add	r3, sl
10000a16:	3b03      	subs	r3, #3
10000a18:	18d3      	adds	r3, r2, r3
10000a1a:	1914      	adds	r4, r2, r4
10000a1c:	709d      	strb	r5, [r3, #2]
10000a1e:	7822      	ldrb	r2, [r4, #0]
10000a20:	2a00      	cmp	r2, #0
10000a22:	d000      	beq.n	10000a26 <add_alarm_under_lock+0xe6>
10000a24:	705a      	strb	r2, [r3, #1]
10000a26:	4653      	mov	r3, sl
10000a28:	7023      	strb	r3, [r4, #0]
10000a2a:	4643      	mov	r3, r8
10000a2c:	735d      	strb	r5, [r3, #13]
10000a2e:	464b      	mov	r3, r9
10000a30:	0032      	movs	r2, r6
10000a32:	7d18      	ldrb	r0, [r3, #20]
10000a34:	003b      	movs	r3, r7
10000a36:	f000 fbc5 	bl	100011c4 <hardware_alarm_set_target>
10000a3a:	1e04      	subs	r4, r0, #0
10000a3c:	d007      	beq.n	10000a4e <add_alarm_under_lock+0x10e>
10000a3e:	465b      	mov	r3, fp
10000a40:	2b00      	cmp	r3, #0
10000a42:	d104      	bne.n	10000a4e <add_alarm_under_lock+0x10e>
10000a44:	464b      	mov	r3, r9
10000a46:	0029      	movs	r1, r5
10000a48:	6818      	ldr	r0, [r3, #0]
10000a4a:	f000 fe0f 	bl	1000166c <ph_remove_and_free_node>
10000a4e:	9b0e      	ldr	r3, [sp, #56]	; 0x38
10000a50:	2b00      	cmp	r3, #0
10000a52:	d002      	beq.n	10000a5a <add_alarm_under_lock+0x11a>
10000a54:	701c      	strb	r4, [r3, #0]
10000a56:	0028      	movs	r0, r5
10000a58:	e787      	b.n	1000096a <add_alarm_under_lock+0x2a>
10000a5a:	0028      	movs	r0, r5
10000a5c:	e785      	b.n	1000096a <add_alarm_under_lock+0x2a>
10000a5e:	46c0      	nop			; (mov r8, r8)
10000a60:	0fffffff 	.word	0x0fffffff

10000a64 <alarm_pool_alarm_callback>:
10000a64:	4b74      	ldr	r3, [pc, #464]	; (10000c38 <alarm_pool_alarm_callback+0x1d4>)
10000a66:	0082      	lsls	r2, r0, #2
10000a68:	b5f0      	push	{r4, r5, r6, r7, lr}
10000a6a:	58d4      	ldr	r4, [r2, r3]
10000a6c:	2300      	movs	r3, #0
10000a6e:	46de      	mov	lr, fp
10000a70:	4657      	mov	r7, sl
10000a72:	464e      	mov	r6, r9
10000a74:	4645      	mov	r5, r8
10000a76:	469b      	mov	fp, r3
10000a78:	b5e0      	push	{r5, r6, r7, lr}
10000a7a:	b08d      	sub	sp, #52	; 0x34
10000a7c:	900b      	str	r0, [sp, #44]	; 0x2c
10000a7e:	f000 fb25 	bl	100010cc <time_us_64>
10000a82:	6862      	ldr	r2, [r4, #4]
10000a84:	f3ef 8510 	mrs	r5, PRIMASK
10000a88:	b672      	cpsid	i
10000a8a:	6813      	ldr	r3, [r2, #0]
10000a8c:	2b00      	cmp	r3, #0
10000a8e:	d0fc      	beq.n	10000a8a <alarm_pool_alarm_callback+0x26>
10000a90:	f3bf 8f5f 	dmb	sy
10000a94:	6823      	ldr	r3, [r4, #0]
10000a96:	469c      	mov	ip, r3
10000a98:	7b5b      	ldrb	r3, [r3, #13]
10000a9a:	4699      	mov	r9, r3
10000a9c:	2b00      	cmp	r3, #0
10000a9e:	d100      	bne.n	10000aa2 <alarm_pool_alarm_callback+0x3e>
10000aa0:	e081      	b.n	10000ba6 <alarm_pool_alarm_callback+0x142>
10000aa2:	68a2      	ldr	r2, [r4, #8]
10000aa4:	4b65      	ldr	r3, [pc, #404]	; (10000c3c <alarm_pool_alarm_callback+0x1d8>)
10000aa6:	4690      	mov	r8, r2
10000aa8:	444b      	add	r3, r9
10000aaa:	011b      	lsls	r3, r3, #4
10000aac:	4498      	add	r8, r3
10000aae:	4643      	mov	r3, r8
10000ab0:	681e      	ldr	r6, [r3, #0]
10000ab2:	685f      	ldr	r7, [r3, #4]
10000ab4:	0032      	movs	r2, r6
10000ab6:	003b      	movs	r3, r7
10000ab8:	1a12      	subs	r2, r2, r0
10000aba:	418b      	sbcs	r3, r1
10000abc:	2b00      	cmp	r3, #0
10000abe:	dc00      	bgt.n	10000ac2 <alarm_pool_alarm_callback+0x5e>
10000ac0:	e084      	b.n	10000bcc <alarm_pool_alarm_callback+0x168>
10000ac2:	003b      	movs	r3, r7
10000ac4:	0032      	movs	r2, r6
10000ac6:	980b      	ldr	r0, [sp, #44]	; 0x2c
10000ac8:	f000 fb7c 	bl	100011c4 <hardware_alarm_set_target>
10000acc:	2300      	movs	r3, #0
10000ace:	2200      	movs	r2, #0
10000ad0:	9208      	str	r2, [sp, #32]
10000ad2:	9309      	str	r3, [sp, #36]	; 0x24
10000ad4:	2300      	movs	r3, #0
10000ad6:	2700      	movs	r7, #0
10000ad8:	469a      	mov	sl, r3
10000ada:	6863      	ldr	r3, [r4, #4]
10000adc:	f3bf 8f5f 	dmb	sy
10000ae0:	465a      	mov	r2, fp
10000ae2:	601a      	str	r2, [r3, #0]
10000ae4:	f385 8810 	msr	PRIMASK, r5
10000ae8:	4653      	mov	r3, sl
10000aea:	2b00      	cmp	r3, #0
10000aec:	d064      	beq.n	10000bb8 <alarm_pool_alarm_callback+0x154>
10000aee:	9b0a      	ldr	r3, [sp, #40]	; 0x28
10000af0:	0039      	movs	r1, r7
10000af2:	0218      	lsls	r0, r3, #8
10000af4:	464b      	mov	r3, r9
10000af6:	4318      	orrs	r0, r3
10000af8:	47d0      	blx	sl
10000afa:	6862      	ldr	r2, [r4, #4]
10000afc:	9006      	str	r0, [sp, #24]
10000afe:	9107      	str	r1, [sp, #28]
10000b00:	f3ef 8810 	mrs	r8, PRIMASK
10000b04:	b672      	cpsid	i
10000b06:	4656      	mov	r6, sl
10000b08:	4645      	mov	r5, r8
10000b0a:	6813      	ldr	r3, [r2, #0]
10000b0c:	2b00      	cmp	r3, #0
10000b0e:	d0fc      	beq.n	10000b0a <alarm_pool_alarm_callback+0xa6>
10000b10:	46b2      	mov	sl, r6
10000b12:	46a8      	mov	r8, r5
10000b14:	f3bf 8f5f 	dmb	sy
10000b18:	9906      	ldr	r1, [sp, #24]
10000b1a:	9a07      	ldr	r2, [sp, #28]
10000b1c:	2a00      	cmp	r2, #0
10000b1e:	da25      	bge.n	10000b6c <alarm_pool_alarm_callback+0x108>
10000b20:	6923      	ldr	r3, [r4, #16]
10000b22:	2b00      	cmp	r3, #0
10000b24:	d028      	beq.n	10000b78 <alarm_pool_alarm_callback+0x114>
10000b26:	9d08      	ldr	r5, [sp, #32]
10000b28:	9e09      	ldr	r6, [sp, #36]	; 0x24
10000b2a:	1a6d      	subs	r5, r5, r1
10000b2c:	4196      	sbcs	r6, r2
10000b2e:	002a      	movs	r2, r5
10000b30:	0033      	movs	r3, r6
10000b32:	9d08      	ldr	r5, [sp, #32]
10000b34:	9e09      	ldr	r6, [sp, #36]	; 0x24
10000b36:	429e      	cmp	r6, r3
10000b38:	d900      	bls.n	10000b3c <alarm_pool_alarm_callback+0xd8>
10000b3a:	e071      	b.n	10000c20 <alarm_pool_alarm_callback+0x1bc>
10000b3c:	d100      	bne.n	10000b40 <alarm_pool_alarm_callback+0xdc>
10000b3e:	e073      	b.n	10000c28 <alarm_pool_alarm_callback+0x1c4>
10000b40:	4659      	mov	r1, fp
10000b42:	9104      	str	r1, [sp, #16]
10000b44:	2101      	movs	r1, #1
10000b46:	9103      	str	r1, [sp, #12]
10000b48:	4649      	mov	r1, r9
10000b4a:	9102      	str	r1, [sp, #8]
10000b4c:	4651      	mov	r1, sl
10000b4e:	9701      	str	r7, [sp, #4]
10000b50:	9100      	str	r1, [sp, #0]
10000b52:	0020      	movs	r0, r4
10000b54:	f7ff fef4 	bl	10000940 <add_alarm_under_lock>
10000b58:	465b      	mov	r3, fp
10000b5a:	6123      	str	r3, [r4, #16]
10000b5c:	6863      	ldr	r3, [r4, #4]
10000b5e:	f3bf 8f5f 	dmb	sy
10000b62:	465a      	mov	r2, fp
10000b64:	601a      	str	r2, [r3, #0]
10000b66:	f388 8810 	msr	PRIMASK, r8
10000b6a:	e788      	b.n	10000a7e <alarm_pool_alarm_callback+0x1a>
10000b6c:	0013      	movs	r3, r2
10000b6e:	4319      	orrs	r1, r3
10000b70:	d002      	beq.n	10000b78 <alarm_pool_alarm_callback+0x114>
10000b72:	6923      	ldr	r3, [r4, #16]
10000b74:	2b00      	cmp	r3, #0
10000b76:	d146      	bne.n	10000c06 <alarm_pool_alarm_callback+0x1a2>
10000b78:	6823      	ldr	r3, [r4, #0]
10000b7a:	7bda      	ldrb	r2, [r3, #15]
10000b7c:	2a00      	cmp	r2, #0
10000b7e:	d007      	beq.n	10000b90 <alarm_pool_alarm_callback+0x12c>
10000b80:	0051      	lsls	r1, r2, #1
10000b82:	188a      	adds	r2, r1, r2
10000b84:	6819      	ldr	r1, [r3, #0]
10000b86:	468c      	mov	ip, r1
10000b88:	4649      	mov	r1, r9
10000b8a:	4462      	add	r2, ip
10000b8c:	3a03      	subs	r2, #3
10000b8e:	7051      	strb	r1, [r2, #1]
10000b90:	464a      	mov	r2, r9
10000b92:	73da      	strb	r2, [r3, #15]
10000b94:	68e2      	ldr	r2, [r4, #12]
10000b96:	464b      	mov	r3, r9
10000b98:	4694      	mov	ip, r2
10000b9a:	3b01      	subs	r3, #1
10000b9c:	4463      	add	r3, ip
10000b9e:	781a      	ldrb	r2, [r3, #0]
10000ba0:	3201      	adds	r2, #1
10000ba2:	701a      	strb	r2, [r3, #0]
10000ba4:	e7d8      	b.n	10000b58 <alarm_pool_alarm_callback+0xf4>
10000ba6:	2300      	movs	r3, #0
10000ba8:	2200      	movs	r2, #0
10000baa:	9208      	str	r2, [sp, #32]
10000bac:	9309      	str	r3, [sp, #36]	; 0x24
10000bae:	2300      	movs	r3, #0
10000bb0:	2700      	movs	r7, #0
10000bb2:	469a      	mov	sl, r3
10000bb4:	2000      	movs	r0, #0
10000bb6:	e790      	b.n	10000ada <alarm_pool_alarm_callback+0x76>
10000bb8:	2800      	cmp	r0, #0
10000bba:	d000      	beq.n	10000bbe <alarm_pool_alarm_callback+0x15a>
10000bbc:	e75f      	b.n	10000a7e <alarm_pool_alarm_callback+0x1a>
10000bbe:	b00d      	add	sp, #52	; 0x34
10000bc0:	bc3c      	pop	{r2, r3, r4, r5}
10000bc2:	4690      	mov	r8, r2
10000bc4:	4699      	mov	r9, r3
10000bc6:	46a2      	mov	sl, r4
10000bc8:	46ab      	mov	fp, r5
10000bca:	bdf0      	pop	{r4, r5, r6, r7, pc}
10000bcc:	2b00      	cmp	r3, #0
10000bce:	d102      	bne.n	10000bd6 <alarm_pool_alarm_callback+0x172>
10000bd0:	2a00      	cmp	r2, #0
10000bd2:	d000      	beq.n	10000bd6 <alarm_pool_alarm_callback+0x172>
10000bd4:	e775      	b.n	10000ac2 <alarm_pool_alarm_callback+0x5e>
10000bd6:	2100      	movs	r1, #0
10000bd8:	4660      	mov	r0, ip
10000bda:	f000 fc9b 	bl	10001514 <ph_remove_head>
10000bde:	4643      	mov	r3, r8
10000be0:	681a      	ldr	r2, [r3, #0]
10000be2:	685b      	ldr	r3, [r3, #4]
10000be4:	9208      	str	r2, [sp, #32]
10000be6:	9309      	str	r3, [sp, #36]	; 0x24
10000be8:	4643      	mov	r3, r8
10000bea:	689b      	ldr	r3, [r3, #8]
10000bec:	469a      	mov	sl, r3
10000bee:	4643      	mov	r3, r8
10000bf0:	68df      	ldr	r7, [r3, #12]
10000bf2:	68e3      	ldr	r3, [r4, #12]
10000bf4:	444b      	add	r3, r9
10000bf6:	3b01      	subs	r3, #1
10000bf8:	781b      	ldrb	r3, [r3, #0]
10000bfa:	930a      	str	r3, [sp, #40]	; 0x28
10000bfc:	021b      	lsls	r3, r3, #8
10000bfe:	4318      	orrs	r0, r3
10000c00:	6120      	str	r0, [r4, #16]
10000c02:	2000      	movs	r0, #0
10000c04:	e769      	b.n	10000ada <alarm_pool_alarm_callback+0x76>
10000c06:	f000 fa61 	bl	100010cc <time_us_64>
10000c0a:	9a06      	ldr	r2, [sp, #24]
10000c0c:	9b07      	ldr	r3, [sp, #28]
10000c0e:	1812      	adds	r2, r2, r0
10000c10:	414b      	adcs	r3, r1
10000c12:	4299      	cmp	r1, r3
10000c14:	d804      	bhi.n	10000c20 <alarm_pool_alarm_callback+0x1bc>
10000c16:	d000      	beq.n	10000c1a <alarm_pool_alarm_callback+0x1b6>
10000c18:	e792      	b.n	10000b40 <alarm_pool_alarm_callback+0xdc>
10000c1a:	4290      	cmp	r0, r2
10000c1c:	d800      	bhi.n	10000c20 <alarm_pool_alarm_callback+0x1bc>
10000c1e:	e78f      	b.n	10000b40 <alarm_pool_alarm_callback+0xdc>
10000c20:	2201      	movs	r2, #1
10000c22:	4252      	negs	r2, r2
10000c24:	17d3      	asrs	r3, r2, #31
10000c26:	e78b      	b.n	10000b40 <alarm_pool_alarm_callback+0xdc>
10000c28:	4295      	cmp	r5, r2
10000c2a:	d800      	bhi.n	10000c2e <alarm_pool_alarm_callback+0x1ca>
10000c2c:	e788      	b.n	10000b40 <alarm_pool_alarm_callback+0xdc>
10000c2e:	2201      	movs	r2, #1
10000c30:	4252      	negs	r2, r2
10000c32:	17d3      	asrs	r3, r2, #31
10000c34:	e784      	b.n	10000b40 <alarm_pool_alarm_callback+0xdc>
10000c36:	46c0      	nop			; (mov r8, r8)
10000c38:	2000374c 	.word	0x2000374c
10000c3c:	0fffffff 	.word	0x0fffffff

10000c40 <alarm_pool_init_default>:
10000c40:	b510      	push	{r4, lr}
10000c42:	4c12      	ldr	r4, [pc, #72]	; (10000c8c <alarm_pool_init_default+0x4c>)
10000c44:	6863      	ldr	r3, [r4, #4]
10000c46:	2b00      	cmp	r3, #0
10000c48:	d004      	beq.n	10000c54 <alarm_pool_init_default+0x14>
10000c4a:	210a      	movs	r1, #10
10000c4c:	4810      	ldr	r0, [pc, #64]	; (10000c90 <alarm_pool_init_default+0x50>)
10000c4e:	f000 fb47 	bl	100012e0 <lock_init>
10000c52:	bd10      	pop	{r4, pc}
10000c54:	0023      	movs	r3, r4
10000c56:	4a0f      	ldr	r2, [pc, #60]	; (10000c94 <alarm_pool_init_default+0x54>)
10000c58:	2110      	movs	r1, #16
10000c5a:	6820      	ldr	r0, [r4, #0]
10000c5c:	f000 fc3c 	bl	100014d8 <ph_post_alloc_init>
10000c60:	2003      	movs	r0, #3
10000c62:	f000 fa27 	bl	100010b4 <hardware_alarm_claim>
10000c66:	2003      	movs	r0, #3
10000c68:	f000 fb1a 	bl	100012a0 <hardware_alarm_cancel>
10000c6c:	490a      	ldr	r1, [pc, #40]	; (10000c98 <alarm_pool_init_default+0x58>)
10000c6e:	2003      	movs	r0, #3
10000c70:	f000 fa62 	bl	10001138 <hardware_alarm_set_callback>
10000c74:	f7ff fda4 	bl	100007c0 <next_striped_spin_lock_num>
10000c78:	4b08      	ldr	r3, [pc, #32]	; (10000c9c <alarm_pool_init_default+0x5c>)
10000c7a:	469c      	mov	ip, r3
10000c7c:	2303      	movs	r3, #3
10000c7e:	4460      	add	r0, ip
10000c80:	7523      	strb	r3, [r4, #20]
10000c82:	4b07      	ldr	r3, [pc, #28]	; (10000ca0 <alarm_pool_init_default+0x60>)
10000c84:	0080      	lsls	r0, r0, #2
10000c86:	6060      	str	r0, [r4, #4]
10000c88:	60dc      	str	r4, [r3, #12]
10000c8a:	e7de      	b.n	10000c4a <alarm_pool_init_default+0xa>
10000c8c:	20002388 	.word	0x20002388
10000c90:	2000375c 	.word	0x2000375c
10000c94:	100008dd 	.word	0x100008dd
10000c98:	10000a65 	.word	0x10000a65
10000c9c:	34000040 	.word	0x34000040
10000ca0:	2000374c 	.word	0x2000374c

10000ca4 <alarm_pool_get_default>:
10000ca4:	4800      	ldr	r0, [pc, #0]	; (10000ca8 <alarm_pool_get_default+0x4>)
10000ca6:	4770      	bx	lr
10000ca8:	20002388 	.word	0x20002388

10000cac <alarm_pool_add_alarm_at>:
10000cac:	b5f0      	push	{r4, r5, r6, r7, lr}
10000cae:	4657      	mov	r7, sl
10000cb0:	46de      	mov	lr, fp
10000cb2:	4645      	mov	r5, r8
10000cb4:	464e      	mov	r6, r9
10000cb6:	b5e0      	push	{r5, r6, r7, lr}
10000cb8:	b085      	sub	sp, #20
10000cba:	9200      	str	r2, [sp, #0]
10000cbc:	9301      	str	r3, [sp, #4]
10000cbe:	ab10      	add	r3, sp, #64	; 0x40
10000cc0:	781b      	ldrb	r3, [r3, #0]
10000cc2:	0007      	movs	r7, r0
10000cc4:	469b      	mov	fp, r3
10000cc6:	2300      	movs	r3, #0
10000cc8:	469a      	mov	sl, r3
10000cca:	4698      	mov	r8, r3
10000ccc:	687a      	ldr	r2, [r7, #4]
10000cce:	f3ef 8910 	mrs	r9, PRIMASK
10000cd2:	b672      	cpsid	i
10000cd4:	6813      	ldr	r3, [r2, #0]
10000cd6:	2b00      	cmp	r3, #0
10000cd8:	d0fc      	beq.n	10000cd4 <alarm_pool_add_alarm_at+0x28>
10000cda:	f3bf 8f5f 	dmb	sy
10000cde:	683e      	ldr	r6, [r7, #0]
10000ce0:	7bb4      	ldrb	r4, [r6, #14]
10000ce2:	2c00      	cmp	r4, #0
10000ce4:	d100      	bne.n	10000ce8 <alarm_pool_add_alarm_at+0x3c>
10000ce6:	e073      	b.n	10000dd0 <alarm_pool_add_alarm_at+0x124>
10000ce8:	0065      	lsls	r5, r4, #1
10000cea:	192d      	adds	r5, r5, r4
10000cec:	6833      	ldr	r3, [r6, #0]
10000cee:	3d03      	subs	r5, #3
10000cf0:	195b      	adds	r3, r3, r5
10000cf2:	785a      	ldrb	r2, [r3, #1]
10000cf4:	73b2      	strb	r2, [r6, #14]
10000cf6:	2a00      	cmp	r2, #0
10000cf8:	d100      	bne.n	10000cfc <alarm_pool_add_alarm_at+0x50>
10000cfa:	73f2      	strb	r2, [r6, #15]
10000cfc:	4642      	mov	r2, r8
10000cfe:	709a      	strb	r2, [r3, #2]
10000d00:	705a      	strb	r2, [r3, #1]
10000d02:	701a      	strb	r2, [r3, #0]
10000d04:	68ba      	ldr	r2, [r7, #8]
10000d06:	4b50      	ldr	r3, [pc, #320]	; (10000e48 <alarm_pool_add_alarm_at+0x19c>)
10000d08:	4694      	mov	ip, r2
10000d0a:	9900      	ldr	r1, [sp, #0]
10000d0c:	9a01      	ldr	r2, [sp, #4]
10000d0e:	18e3      	adds	r3, r4, r3
10000d10:	011b      	lsls	r3, r3, #4
10000d12:	4463      	add	r3, ip
10000d14:	6019      	str	r1, [r3, #0]
10000d16:	605a      	str	r2, [r3, #4]
10000d18:	9a0e      	ldr	r2, [sp, #56]	; 0x38
10000d1a:	609a      	str	r2, [r3, #8]
10000d1c:	9a0f      	ldr	r2, [sp, #60]	; 0x3c
10000d1e:	60da      	str	r2, [r3, #12]
10000d20:	4642      	mov	r2, r8
10000d22:	6833      	ldr	r3, [r6, #0]
10000d24:	195b      	adds	r3, r3, r5
10000d26:	709a      	strb	r2, [r3, #2]
10000d28:	705a      	strb	r2, [r3, #1]
10000d2a:	701a      	strb	r2, [r3, #0]
10000d2c:	7b73      	ldrb	r3, [r6, #13]
10000d2e:	9303      	str	r3, [sp, #12]
10000d30:	2b00      	cmp	r3, #0
10000d32:	d100      	bne.n	10000d36 <alarm_pool_add_alarm_at+0x8a>
10000d34:	e076      	b.n	10000e24 <alarm_pool_add_alarm_at+0x178>
10000d36:	0019      	movs	r1, r3
10000d38:	6873      	ldr	r3, [r6, #4]
10000d3a:	0022      	movs	r2, r4
10000d3c:	68b0      	ldr	r0, [r6, #8]
10000d3e:	469c      	mov	ip, r3
10000d40:	47e0      	blx	ip
10000d42:	6832      	ldr	r2, [r6, #0]
10000d44:	2800      	cmp	r0, #0
10000d46:	d05e      	beq.n	10000e06 <alarm_pool_add_alarm_at+0x15a>
10000d48:	9803      	ldr	r0, [sp, #12]
10000d4a:	1955      	adds	r5, r2, r5
10000d4c:	4684      	mov	ip, r0
10000d4e:	0043      	lsls	r3, r0, #1
10000d50:	4463      	add	r3, ip
10000d52:	3b03      	subs	r3, #3
10000d54:	18d3      	adds	r3, r2, r3
10000d56:	70a8      	strb	r0, [r5, #2]
10000d58:	781a      	ldrb	r2, [r3, #0]
10000d5a:	2a00      	cmp	r2, #0
10000d5c:	d000      	beq.n	10000d60 <alarm_pool_add_alarm_at+0xb4>
10000d5e:	e06f      	b.n	10000e40 <alarm_pool_add_alarm_at+0x194>
10000d60:	701c      	strb	r4, [r3, #0]
10000d62:	7370      	strb	r0, [r6, #13]
10000d64:	4284      	cmp	r4, r0
10000d66:	d05e      	beq.n	10000e26 <alarm_pool_add_alarm_at+0x17a>
10000d68:	68fb      	ldr	r3, [r7, #12]
10000d6a:	191b      	adds	r3, r3, r4
10000d6c:	3b01      	subs	r3, #1
10000d6e:	7818      	ldrb	r0, [r3, #0]
10000d70:	687b      	ldr	r3, [r7, #4]
10000d72:	f3bf 8f5f 	dmb	sy
10000d76:	4642      	mov	r2, r8
10000d78:	601a      	str	r2, [r3, #0]
10000d7a:	f389 8810 	msr	PRIMASK, r9
10000d7e:	4653      	mov	r3, sl
10000d80:	2b00      	cmp	r3, #0
10000d82:	d108      	bne.n	10000d96 <alarm_pool_add_alarm_at+0xea>
10000d84:	0200      	lsls	r0, r0, #8
10000d86:	4320      	orrs	r0, r4
10000d88:	b005      	add	sp, #20
10000d8a:	bc3c      	pop	{r2, r3, r4, r5}
10000d8c:	4690      	mov	r8, r2
10000d8e:	4699      	mov	r9, r3
10000d90:	46a2      	mov	sl, r4
10000d92:	46ab      	mov	fp, r5
10000d94:	bdf0      	pop	{r4, r5, r6, r7, pc}
10000d96:	465b      	mov	r3, fp
10000d98:	2b00      	cmp	r3, #0
10000d9a:	d053      	beq.n	10000e44 <alarm_pool_add_alarm_at+0x198>
10000d9c:	9b0e      	ldr	r3, [sp, #56]	; 0x38
10000d9e:	990f      	ldr	r1, [sp, #60]	; 0x3c
10000da0:	2000      	movs	r0, #0
10000da2:	4798      	blx	r3
10000da4:	0003      	movs	r3, r0
10000da6:	0004      	movs	r4, r0
10000da8:	000d      	movs	r5, r1
10000daa:	430b      	orrs	r3, r1
10000dac:	d04a      	beq.n	10000e44 <alarm_pool_add_alarm_at+0x198>
10000dae:	2900      	cmp	r1, #0
10000db0:	da17      	bge.n	10000de2 <alarm_pool_add_alarm_at+0x136>
10000db2:	9800      	ldr	r0, [sp, #0]
10000db4:	9901      	ldr	r1, [sp, #4]
10000db6:	0002      	movs	r2, r0
10000db8:	000b      	movs	r3, r1
10000dba:	1b12      	subs	r2, r2, r4
10000dbc:	41ab      	sbcs	r3, r5
10000dbe:	4299      	cmp	r1, r3
10000dc0:	d81a      	bhi.n	10000df8 <alarm_pool_add_alarm_at+0x14c>
10000dc2:	d101      	bne.n	10000dc8 <alarm_pool_add_alarm_at+0x11c>
10000dc4:	4290      	cmp	r0, r2
10000dc6:	d817      	bhi.n	10000df8 <alarm_pool_add_alarm_at+0x14c>
10000dc8:	9200      	str	r2, [sp, #0]
10000dca:	9301      	str	r3, [sp, #4]
10000dcc:	46da      	mov	sl, fp
10000dce:	e77d      	b.n	10000ccc <alarm_pool_add_alarm_at+0x20>
10000dd0:	687b      	ldr	r3, [r7, #4]
10000dd2:	f3bf 8f5f 	dmb	sy
10000dd6:	601c      	str	r4, [r3, #0]
10000dd8:	f389 8810 	msr	PRIMASK, r9
10000ddc:	2001      	movs	r0, #1
10000dde:	4240      	negs	r0, r0
10000de0:	e7d2      	b.n	10000d88 <alarm_pool_add_alarm_at+0xdc>
10000de2:	f000 f973 	bl	100010cc <time_us_64>
10000de6:	1824      	adds	r4, r4, r0
10000de8:	414d      	adcs	r5, r1
10000dea:	9400      	str	r4, [sp, #0]
10000dec:	9501      	str	r5, [sp, #4]
10000dee:	42a9      	cmp	r1, r5
10000df0:	d802      	bhi.n	10000df8 <alarm_pool_add_alarm_at+0x14c>
10000df2:	d1eb      	bne.n	10000dcc <alarm_pool_add_alarm_at+0x120>
10000df4:	42a0      	cmp	r0, r4
10000df6:	d9e9      	bls.n	10000dcc <alarm_pool_add_alarm_at+0x120>
10000df8:	2301      	movs	r3, #1
10000dfa:	425b      	negs	r3, r3
10000dfc:	17dc      	asrs	r4, r3, #31
10000dfe:	46da      	mov	sl, fp
10000e00:	9300      	str	r3, [sp, #0]
10000e02:	9401      	str	r4, [sp, #4]
10000e04:	e762      	b.n	10000ccc <alarm_pool_add_alarm_at+0x20>
10000e06:	9903      	ldr	r1, [sp, #12]
10000e08:	1955      	adds	r5, r2, r5
10000e0a:	468c      	mov	ip, r1
10000e0c:	004b      	lsls	r3, r1, #1
10000e0e:	4463      	add	r3, ip
10000e10:	3b03      	subs	r3, #3
10000e12:	18d3      	adds	r3, r2, r3
10000e14:	709c      	strb	r4, [r3, #2]
10000e16:	782a      	ldrb	r2, [r5, #0]
10000e18:	2a00      	cmp	r2, #0
10000e1a:	d000      	beq.n	10000e1e <alarm_pool_add_alarm_at+0x172>
10000e1c:	705a      	strb	r2, [r3, #1]
10000e1e:	466b      	mov	r3, sp
10000e20:	7b1b      	ldrb	r3, [r3, #12]
10000e22:	702b      	strb	r3, [r5, #0]
10000e24:	7374      	strb	r4, [r6, #13]
10000e26:	7d38      	ldrb	r0, [r7, #20]
10000e28:	9a00      	ldr	r2, [sp, #0]
10000e2a:	9b01      	ldr	r3, [sp, #4]
10000e2c:	f000 f9ca 	bl	100011c4 <hardware_alarm_set_target>
10000e30:	4682      	mov	sl, r0
10000e32:	2800      	cmp	r0, #0
10000e34:	d098      	beq.n	10000d68 <alarm_pool_add_alarm_at+0xbc>
10000e36:	0021      	movs	r1, r4
10000e38:	6838      	ldr	r0, [r7, #0]
10000e3a:	f000 fc17 	bl	1000166c <ph_remove_and_free_node>
10000e3e:	e793      	b.n	10000d68 <alarm_pool_add_alarm_at+0xbc>
10000e40:	706a      	strb	r2, [r5, #1]
10000e42:	e78d      	b.n	10000d60 <alarm_pool_add_alarm_at+0xb4>
10000e44:	2000      	movs	r0, #0
10000e46:	e79f      	b.n	10000d88 <alarm_pool_add_alarm_at+0xdc>
10000e48:	0fffffff 	.word	0x0fffffff

10000e4c <best_effort_wfe_or_timeout>:
10000e4c:	b5f0      	push	{r4, r5, r6, r7, lr}
10000e4e:	464e      	mov	r6, r9
10000e50:	4645      	mov	r5, r8
10000e52:	46de      	mov	lr, fp
10000e54:	4657      	mov	r7, sl
10000e56:	b5e0      	push	{r5, r6, r7, lr}
10000e58:	4c6a      	ldr	r4, [pc, #424]	; (10001004 <best_effort_wfe_or_timeout+0x1b8>)
10000e5a:	b083      	sub	sp, #12
10000e5c:	4681      	mov	r9, r0
10000e5e:	4688      	mov	r8, r1
10000e60:	6862      	ldr	r2, [r4, #4]
10000e62:	f3ef 8a10 	mrs	sl, PRIMASK
10000e66:	b672      	cpsid	i
10000e68:	6813      	ldr	r3, [r2, #0]
10000e6a:	2b00      	cmp	r3, #0
10000e6c:	d0fc      	beq.n	10000e68 <best_effort_wfe_or_timeout+0x1c>
10000e6e:	f3bf 8f5f 	dmb	sy
10000e72:	6826      	ldr	r6, [r4, #0]
10000e74:	7bb5      	ldrb	r5, [r6, #14]
10000e76:	2d00      	cmp	r5, #0
10000e78:	d046      	beq.n	10000f08 <best_effort_wfe_or_timeout+0xbc>
10000e7a:	006f      	lsls	r7, r5, #1
10000e7c:	197f      	adds	r7, r7, r5
10000e7e:	6833      	ldr	r3, [r6, #0]
10000e80:	3f03      	subs	r7, #3
10000e82:	9501      	str	r5, [sp, #4]
10000e84:	19db      	adds	r3, r3, r7
10000e86:	785a      	ldrb	r2, [r3, #1]
10000e88:	73b2      	strb	r2, [r6, #14]
10000e8a:	2a00      	cmp	r2, #0
10000e8c:	d100      	bne.n	10000e90 <best_effort_wfe_or_timeout+0x44>
10000e8e:	73f2      	strb	r2, [r6, #15]
10000e90:	2200      	movs	r2, #0
10000e92:	709a      	strb	r2, [r3, #2]
10000e94:	705a      	strb	r2, [r3, #1]
10000e96:	701a      	strb	r2, [r3, #0]
10000e98:	68a1      	ldr	r1, [r4, #8]
10000e9a:	4b5b      	ldr	r3, [pc, #364]	; (10001008 <best_effort_wfe_or_timeout+0x1bc>)
10000e9c:	468c      	mov	ip, r1
10000e9e:	4649      	mov	r1, r9
10000ea0:	18eb      	adds	r3, r5, r3
10000ea2:	011b      	lsls	r3, r3, #4
10000ea4:	4463      	add	r3, ip
10000ea6:	6019      	str	r1, [r3, #0]
10000ea8:	4641      	mov	r1, r8
10000eaa:	6059      	str	r1, [r3, #4]
10000eac:	4957      	ldr	r1, [pc, #348]	; (1000100c <best_effort_wfe_or_timeout+0x1c0>)
10000eae:	60da      	str	r2, [r3, #12]
10000eb0:	6099      	str	r1, [r3, #8]
10000eb2:	6833      	ldr	r3, [r6, #0]
10000eb4:	19db      	adds	r3, r3, r7
10000eb6:	709a      	strb	r2, [r3, #2]
10000eb8:	705a      	strb	r2, [r3, #1]
10000eba:	701a      	strb	r2, [r3, #0]
10000ebc:	7b73      	ldrb	r3, [r6, #13]
10000ebe:	469b      	mov	fp, r3
10000ec0:	2b00      	cmp	r3, #0
10000ec2:	d100      	bne.n	10000ec6 <best_effort_wfe_or_timeout+0x7a>
10000ec4:	e089      	b.n	10000fda <best_effort_wfe_or_timeout+0x18e>
10000ec6:	002a      	movs	r2, r5
10000ec8:	0019      	movs	r1, r3
10000eca:	68b0      	ldr	r0, [r6, #8]
10000ecc:	6873      	ldr	r3, [r6, #4]
10000ece:	4798      	blx	r3
10000ed0:	6832      	ldr	r2, [r6, #0]
10000ed2:	2800      	cmp	r0, #0
10000ed4:	d100      	bne.n	10000ed8 <best_effort_wfe_or_timeout+0x8c>
10000ed6:	e073      	b.n	10000fc0 <best_effort_wfe_or_timeout+0x174>
10000ed8:	465b      	mov	r3, fp
10000eda:	005b      	lsls	r3, r3, #1
10000edc:	445b      	add	r3, fp
10000ede:	3b03      	subs	r3, #3
10000ee0:	18d3      	adds	r3, r2, r3
10000ee2:	19d7      	adds	r7, r2, r7
10000ee4:	465a      	mov	r2, fp
10000ee6:	70ba      	strb	r2, [r7, #2]
10000ee8:	781a      	ldrb	r2, [r3, #0]
10000eea:	2a00      	cmp	r2, #0
10000eec:	d000      	beq.n	10000ef0 <best_effort_wfe_or_timeout+0xa4>
10000eee:	707a      	strb	r2, [r7, #1]
10000ef0:	701d      	strb	r5, [r3, #0]
10000ef2:	465b      	mov	r3, fp
10000ef4:	7373      	strb	r3, [r6, #13]
10000ef6:	455d      	cmp	r5, fp
10000ef8:	d100      	bne.n	10000efc <best_effort_wfe_or_timeout+0xb0>
10000efa:	e06f      	b.n	10000fdc <best_effort_wfe_or_timeout+0x190>
10000efc:	2600      	movs	r6, #0
10000efe:	68e3      	ldr	r3, [r4, #12]
10000f00:	195b      	adds	r3, r3, r5
10000f02:	3b01      	subs	r3, #1
10000f04:	781b      	ldrb	r3, [r3, #0]
10000f06:	e002      	b.n	10000f0e <best_effort_wfe_or_timeout+0xc2>
10000f08:	2300      	movs	r3, #0
10000f0a:	2600      	movs	r6, #0
10000f0c:	9301      	str	r3, [sp, #4]
10000f0e:	6862      	ldr	r2, [r4, #4]
10000f10:	f3bf 8f5f 	dmb	sy
10000f14:	2100      	movs	r1, #0
10000f16:	6011      	str	r1, [r2, #0]
10000f18:	f38a 8810 	msr	PRIMASK, sl
10000f1c:	2d00      	cmp	r5, #0
10000f1e:	d044      	beq.n	10000faa <best_effort_wfe_or_timeout+0x15e>
10000f20:	2e00      	cmp	r6, #0
10000f22:	d142      	bne.n	10000faa <best_effort_wfe_or_timeout+0x15e>
10000f24:	9a01      	ldr	r2, [sp, #4]
10000f26:	021b      	lsls	r3, r3, #8
10000f28:	4313      	orrs	r3, r2
10000f2a:	bf20      	wfe
10000f2c:	6861      	ldr	r1, [r4, #4]
10000f2e:	f3ef 8710 	mrs	r7, PRIMASK
10000f32:	b672      	cpsid	i
10000f34:	680a      	ldr	r2, [r1, #0]
10000f36:	2a00      	cmp	r2, #0
10000f38:	d0fc      	beq.n	10000f34 <best_effort_wfe_or_timeout+0xe8>
10000f3a:	f3bf 8f5f 	dmb	sy
10000f3e:	6820      	ldr	r0, [r4, #0]
10000f40:	b2d9      	uxtb	r1, r3
10000f42:	7b42      	ldrb	r2, [r0, #13]
10000f44:	428a      	cmp	r2, r1
10000f46:	d056      	beq.n	10000ff6 <best_effort_wfe_or_timeout+0x1aa>
10000f48:	22ff      	movs	r2, #255	; 0xff
10000f4a:	401a      	ands	r2, r3
10000f4c:	0055      	lsls	r5, r2, #1
10000f4e:	46aa      	mov	sl, r5
10000f50:	6805      	ldr	r5, [r0, #0]
10000f52:	4492      	add	sl, r2
10000f54:	46ac      	mov	ip, r5
10000f56:	4655      	mov	r5, sl
10000f58:	4465      	add	r5, ip
10000f5a:	3d03      	subs	r5, #3
10000f5c:	78ad      	ldrb	r5, [r5, #2]
10000f5e:	2d00      	cmp	r5, #0
10000f60:	d029      	beq.n	10000fb6 <best_effort_wfe_or_timeout+0x16a>
10000f62:	68e5      	ldr	r5, [r4, #12]
10000f64:	0a1b      	lsrs	r3, r3, #8
10000f66:	46ac      	mov	ip, r5
10000f68:	4462      	add	r2, ip
10000f6a:	3a01      	subs	r2, #1
10000f6c:	7812      	ldrb	r2, [r2, #0]
10000f6e:	429a      	cmp	r2, r3
10000f70:	d044      	beq.n	10000ffc <best_effort_wfe_or_timeout+0x1b0>
10000f72:	6863      	ldr	r3, [r4, #4]
10000f74:	f3bf 8f5f 	dmb	sy
10000f78:	2200      	movs	r2, #0
10000f7a:	601a      	str	r2, [r3, #0]
10000f7c:	f387 8810 	msr	PRIMASK, r7
10000f80:	4a23      	ldr	r2, [pc, #140]	; (10001010 <best_effort_wfe_or_timeout+0x1c4>)
10000f82:	6a53      	ldr	r3, [r2, #36]	; 0x24
10000f84:	4598      	cmp	r8, r3
10000f86:	d808      	bhi.n	10000f9a <best_effort_wfe_or_timeout+0x14e>
10000f88:	6a92      	ldr	r2, [r2, #40]	; 0x28
10000f8a:	2601      	movs	r6, #1
10000f8c:	454a      	cmp	r2, r9
10000f8e:	d204      	bcs.n	10000f9a <best_effort_wfe_or_timeout+0x14e>
10000f90:	4642      	mov	r2, r8
10000f92:	1ad3      	subs	r3, r2, r3
10000f94:	1e5e      	subs	r6, r3, #1
10000f96:	41b3      	sbcs	r3, r6
10000f98:	b2de      	uxtb	r6, r3
10000f9a:	0030      	movs	r0, r6
10000f9c:	b003      	add	sp, #12
10000f9e:	bc3c      	pop	{r2, r3, r4, r5}
10000fa0:	4690      	mov	r8, r2
10000fa2:	4699      	mov	r9, r3
10000fa4:	46a2      	mov	sl, r4
10000fa6:	46ab      	mov	fp, r5
10000fa8:	bdf0      	pop	{r4, r5, r6, r7, pc}
10000faa:	4a19      	ldr	r2, [pc, #100]	; (10001010 <best_effort_wfe_or_timeout+0x1c4>)
10000fac:	2600      	movs	r6, #0
10000fae:	6a53      	ldr	r3, [r2, #36]	; 0x24
10000fb0:	4598      	cmp	r8, r3
10000fb2:	d8f2      	bhi.n	10000f9a <best_effort_wfe_or_timeout+0x14e>
10000fb4:	e7e8      	b.n	10000f88 <best_effort_wfe_or_timeout+0x13c>
10000fb6:	6922      	ldr	r2, [r4, #16]
10000fb8:	4293      	cmp	r3, r2
10000fba:	d1da      	bne.n	10000f72 <best_effort_wfe_or_timeout+0x126>
10000fbc:	6125      	str	r5, [r4, #16]
10000fbe:	e7d8      	b.n	10000f72 <best_effort_wfe_or_timeout+0x126>
10000fc0:	465b      	mov	r3, fp
10000fc2:	005b      	lsls	r3, r3, #1
10000fc4:	445b      	add	r3, fp
10000fc6:	3b03      	subs	r3, #3
10000fc8:	18d3      	adds	r3, r2, r3
10000fca:	19d7      	adds	r7, r2, r7
10000fcc:	709d      	strb	r5, [r3, #2]
10000fce:	783a      	ldrb	r2, [r7, #0]
10000fd0:	2a00      	cmp	r2, #0
10000fd2:	d000      	beq.n	10000fd6 <best_effort_wfe_or_timeout+0x18a>
10000fd4:	705a      	strb	r2, [r3, #1]
10000fd6:	465b      	mov	r3, fp
10000fd8:	703b      	strb	r3, [r7, #0]
10000fda:	7375      	strb	r5, [r6, #13]
10000fdc:	7d20      	ldrb	r0, [r4, #20]
10000fde:	464a      	mov	r2, r9
10000fe0:	4643      	mov	r3, r8
10000fe2:	f000 f8ef 	bl	100011c4 <hardware_alarm_set_target>
10000fe6:	1e06      	subs	r6, r0, #0
10000fe8:	d100      	bne.n	10000fec <best_effort_wfe_or_timeout+0x1a0>
10000fea:	e787      	b.n	10000efc <best_effort_wfe_or_timeout+0xb0>
10000fec:	0029      	movs	r1, r5
10000fee:	6820      	ldr	r0, [r4, #0]
10000ff0:	f000 fb3c 	bl	1000166c <ph_remove_and_free_node>
10000ff4:	e783      	b.n	10000efe <best_effort_wfe_or_timeout+0xb2>
10000ff6:	22ff      	movs	r2, #255	; 0xff
10000ff8:	401a      	ands	r2, r3
10000ffa:	e7b2      	b.n	10000f62 <best_effort_wfe_or_timeout+0x116>
10000ffc:	f000 fb36 	bl	1000166c <ph_remove_and_free_node>
10001000:	e7b7      	b.n	10000f72 <best_effort_wfe_or_timeout+0x126>
10001002:	46c0      	nop			; (mov r8, r8)
10001004:	20002388 	.word	0x20002388
10001008:	0fffffff 	.word	0x0fffffff
1000100c:	10000911 	.word	0x10000911
10001010:	40054000 	.word	0x40054000

10001014 <hardware_alarm_irq_handler>:
10001014:	b5f8      	push	{r3, r4, r5, r6, r7, lr}
10001016:	46ce      	mov	lr, r9
10001018:	4647      	mov	r7, r8
1000101a:	b580      	push	{r7, lr}
1000101c:	f3ef 8305 	mrs	r3, IPSR
10001020:	223f      	movs	r2, #63	; 0x3f
10001022:	4013      	ands	r3, r2
10001024:	0018      	movs	r0, r3
10001026:	3810      	subs	r0, #16
10001028:	f3ef 8c10 	mrs	ip, PRIMASK
1000102c:	b672      	cpsid	i
1000102e:	491b      	ldr	r1, [pc, #108]	; (1000109c <hardware_alarm_irq_handler+0x88>)
10001030:	680a      	ldr	r2, [r1, #0]
10001032:	2a00      	cmp	r2, #0
10001034:	d0fc      	beq.n	10001030 <hardware_alarm_irq_handler+0x1c>
10001036:	f3bf 8f5f 	dmb	sy
1000103a:	2101      	movs	r1, #1
1000103c:	000f      	movs	r7, r1
1000103e:	4087      	lsls	r7, r0
10001040:	4d17      	ldr	r5, [pc, #92]	; (100010a0 <hardware_alarm_irq_handler+0x8c>)
10001042:	4a18      	ldr	r2, [pc, #96]	; (100010a4 <hardware_alarm_irq_handler+0x90>)
10001044:	636f      	str	r7, [r5, #52]	; 0x34
10001046:	7814      	ldrb	r4, [r2, #0]
10001048:	4691      	mov	r9, r2
1000104a:	0022      	movs	r2, r4
1000104c:	40c2      	lsrs	r2, r0
1000104e:	4690      	mov	r8, r2
10001050:	4646      	mov	r6, r8
10001052:	2200      	movs	r2, #0
10001054:	4231      	tst	r1, r6
10001056:	d00b      	beq.n	10001070 <hardware_alarm_irq_handler+0x5c>
10001058:	6a69      	ldr	r1, [r5, #36]	; 0x24
1000105a:	4d13      	ldr	r5, [pc, #76]	; (100010a8 <hardware_alarm_irq_handler+0x94>)
1000105c:	4688      	mov	r8, r1
1000105e:	0081      	lsls	r1, r0, #2
10001060:	594d      	ldr	r5, [r1, r5]
10001062:	45a8      	cmp	r8, r5
10001064:	d312      	bcc.n	1000108c <hardware_alarm_irq_handler+0x78>
10001066:	4b11      	ldr	r3, [pc, #68]	; (100010ac <hardware_alarm_irq_handler+0x98>)
10001068:	43bc      	bics	r4, r7
1000106a:	58ca      	ldr	r2, [r1, r3]
1000106c:	464b      	mov	r3, r9
1000106e:	701c      	strb	r4, [r3, #0]
10001070:	f3bf 8f5f 	dmb	sy
10001074:	2100      	movs	r1, #0
10001076:	4b09      	ldr	r3, [pc, #36]	; (1000109c <hardware_alarm_irq_handler+0x88>)
10001078:	6019      	str	r1, [r3, #0]
1000107a:	f38c 8810 	msr	PRIMASK, ip
1000107e:	2a00      	cmp	r2, #0
10001080:	d000      	beq.n	10001084 <hardware_alarm_irq_handler+0x70>
10001082:	4790      	blx	r2
10001084:	bc0c      	pop	{r2, r3}
10001086:	4690      	mov	r8, r2
10001088:	4699      	mov	r9, r3
1000108a:	bdf8      	pop	{r3, r4, r5, r6, r7, pc}
1000108c:	4908      	ldr	r1, [pc, #32]	; (100010b0 <hardware_alarm_irq_handler+0x9c>)
1000108e:	009b      	lsls	r3, r3, #2
10001090:	4688      	mov	r8, r1
10001092:	4443      	add	r3, r8
10001094:	6819      	ldr	r1, [r3, #0]
10001096:	6019      	str	r1, [r3, #0]
10001098:	e7ea      	b.n	10001070 <hardware_alarm_irq_handler+0x5c>
1000109a:	46c0      	nop			; (mov r8, r8)
1000109c:	d0000128 	.word	0xd0000128
100010a0:	40054000 	.word	0x40054000
100010a4:	20003782 	.word	0x20003782
100010a8:	20003764 	.word	0x20003764
100010ac:	200032b4 	.word	0x200032b4
100010b0:	40053fd0 	.word	0x40053fd0

100010b4 <hardware_alarm_claim>:
100010b4:	b510      	push	{r4, lr}
100010b6:	0001      	movs	r1, r0
100010b8:	4a02      	ldr	r2, [pc, #8]	; (100010c4 <hardware_alarm_claim+0x10>)
100010ba:	4803      	ldr	r0, [pc, #12]	; (100010c8 <hardware_alarm_claim+0x14>)
100010bc:	f7ff fb02 	bl	100006c4 <hw_claim_or_assert>
100010c0:	bd10      	pop	{r4, pc}
100010c2:	46c0      	nop			; (mov r8, r8)
100010c4:	10006bf8 	.word	0x10006bf8
100010c8:	2000377e 	.word	0x2000377e

100010cc <time_us_64>:
100010cc:	4a04      	ldr	r2, [pc, #16]	; (100010e0 <time_us_64+0x14>)
100010ce:	6a51      	ldr	r1, [r2, #36]	; 0x24
100010d0:	e000      	b.n	100010d4 <time_us_64+0x8>
100010d2:	0019      	movs	r1, r3
100010d4:	6a90      	ldr	r0, [r2, #40]	; 0x28
100010d6:	6a53      	ldr	r3, [r2, #36]	; 0x24
100010d8:	4299      	cmp	r1, r3
100010da:	d1fa      	bne.n	100010d2 <time_us_64+0x6>
100010dc:	4770      	bx	lr
100010de:	46c0      	nop			; (mov r8, r8)
100010e0:	40054000 	.word	0x40054000

100010e4 <busy_wait_us>:
100010e4:	4a13      	ldr	r2, [pc, #76]	; (10001134 <busy_wait_us+0x50>)
100010e6:	b530      	push	{r4, r5, lr}
100010e8:	6a54      	ldr	r4, [r2, #36]	; 0x24
100010ea:	e000      	b.n	100010ee <busy_wait_us+0xa>
100010ec:	001c      	movs	r4, r3
100010ee:	6a95      	ldr	r5, [r2, #40]	; 0x28
100010f0:	6a53      	ldr	r3, [r2, #36]	; 0x24
100010f2:	42a3      	cmp	r3, r4
100010f4:	d1fa      	bne.n	100010ec <busy_wait_us+0x8>
100010f6:	002a      	movs	r2, r5
100010f8:	0023      	movs	r3, r4
100010fa:	1880      	adds	r0, r0, r2
100010fc:	4159      	adcs	r1, r3
100010fe:	428c      	cmp	r4, r1
10001100:	d811      	bhi.n	10001126 <busy_wait_us+0x42>
10001102:	d00e      	beq.n	10001122 <busy_wait_us+0x3e>
10001104:	000c      	movs	r4, r1
10001106:	4a0b      	ldr	r2, [pc, #44]	; (10001134 <busy_wait_us+0x50>)
10001108:	6a53      	ldr	r3, [r2, #36]	; 0x24
1000110a:	42a3      	cmp	r3, r4
1000110c:	d3fc      	bcc.n	10001108 <busy_wait_us+0x24>
1000110e:	d107      	bne.n	10001120 <busy_wait_us+0x3c>
10001110:	4a08      	ldr	r2, [pc, #32]	; (10001134 <busy_wait_us+0x50>)
10001112:	e002      	b.n	1000111a <busy_wait_us+0x36>
10001114:	6a51      	ldr	r1, [r2, #36]	; 0x24
10001116:	4299      	cmp	r1, r3
10001118:	d102      	bne.n	10001120 <busy_wait_us+0x3c>
1000111a:	6a91      	ldr	r1, [r2, #40]	; 0x28
1000111c:	4281      	cmp	r1, r0
1000111e:	d3f9      	bcc.n	10001114 <busy_wait_us+0x30>
10001120:	bd30      	pop	{r4, r5, pc}
10001122:	4285      	cmp	r5, r0
10001124:	d9ee      	bls.n	10001104 <busy_wait_us+0x20>
10001126:	2401      	movs	r4, #1
10001128:	2001      	movs	r0, #1
1000112a:	4240      	negs	r0, r0
1000112c:	17c1      	asrs	r1, r0, #31
1000112e:	4264      	negs	r4, r4
10001130:	e7e9      	b.n	10001106 <busy_wait_us+0x22>
10001132:	46c0      	nop			; (mov r8, r8)
10001134:	40054000 	.word	0x40054000

10001138 <hardware_alarm_set_callback>:
10001138:	b570      	push	{r4, r5, r6, lr}
1000113a:	0004      	movs	r4, r0
1000113c:	000d      	movs	r5, r1
1000113e:	f3ef 8610 	mrs	r6, PRIMASK
10001142:	b672      	cpsid	i
10001144:	4a1a      	ldr	r2, [pc, #104]	; (100011b0 <hardware_alarm_set_callback+0x78>)
10001146:	6813      	ldr	r3, [r2, #0]
10001148:	2b00      	cmp	r3, #0
1000114a:	d0fc      	beq.n	10001146 <hardware_alarm_set_callback+0xe>
1000114c:	f3bf 8f5f 	dmb	sy
10001150:	2d00      	cmp	r5, #0
10001152:	d01b      	beq.n	1000118c <hardware_alarm_set_callback+0x54>
10001154:	0020      	movs	r0, r4
10001156:	f000 fdeb 	bl	10001d30 <irq_get_vtable_handler>
1000115a:	4916      	ldr	r1, [pc, #88]	; (100011b4 <hardware_alarm_set_callback+0x7c>)
1000115c:	4288      	cmp	r0, r1
1000115e:	d00a      	beq.n	10001176 <hardware_alarm_set_callback+0x3e>
10001160:	0020      	movs	r0, r4
10001162:	f000 fded 	bl	10001d40 <irq_set_exclusive_handler>
10001166:	2101      	movs	r1, #1
10001168:	0020      	movs	r0, r4
1000116a:	f000 fdcf 	bl	10001d0c <irq_set_enabled>
1000116e:	2301      	movs	r3, #1
10001170:	40a3      	lsls	r3, r4
10001172:	4a11      	ldr	r2, [pc, #68]	; (100011b8 <hardware_alarm_set_callback+0x80>)
10001174:	6013      	str	r3, [r2, #0]
10001176:	4b11      	ldr	r3, [pc, #68]	; (100011bc <hardware_alarm_set_callback+0x84>)
10001178:	00a4      	lsls	r4, r4, #2
1000117a:	50e5      	str	r5, [r4, r3]
1000117c:	f3bf 8f5f 	dmb	sy
10001180:	2200      	movs	r2, #0
10001182:	4b0b      	ldr	r3, [pc, #44]	; (100011b0 <hardware_alarm_set_callback+0x78>)
10001184:	601a      	str	r2, [r3, #0]
10001186:	f386 8810 	msr	PRIMASK, r6
1000118a:	bd70      	pop	{r4, r5, r6, pc}
1000118c:	4b0b      	ldr	r3, [pc, #44]	; (100011bc <hardware_alarm_set_callback+0x84>)
1000118e:	00a2      	lsls	r2, r4, #2
10001190:	50d5      	str	r5, [r2, r3]
10001192:	2201      	movs	r2, #1
10001194:	40a2      	lsls	r2, r4
10001196:	490a      	ldr	r1, [pc, #40]	; (100011c0 <hardware_alarm_set_callback+0x88>)
10001198:	0020      	movs	r0, r4
1000119a:	780b      	ldrb	r3, [r1, #0]
1000119c:	4393      	bics	r3, r2
1000119e:	700b      	strb	r3, [r1, #0]
100011a0:	4904      	ldr	r1, [pc, #16]	; (100011b4 <hardware_alarm_set_callback+0x7c>)
100011a2:	f000 fdf7 	bl	10001d94 <irq_remove_handler>
100011a6:	2100      	movs	r1, #0
100011a8:	0020      	movs	r0, r4
100011aa:	f000 fdaf 	bl	10001d0c <irq_set_enabled>
100011ae:	e7e5      	b.n	1000117c <hardware_alarm_set_callback+0x44>
100011b0:	d0000128 	.word	0xd0000128
100011b4:	10001015 	.word	0x10001015
100011b8:	40056038 	.word	0x40056038
100011bc:	200032b4 	.word	0x200032b4
100011c0:	20003782 	.word	0x20003782

100011c4 <hardware_alarm_set_target>:
100011c4:	b5f0      	push	{r4, r5, r6, r7, lr}
100011c6:	46d6      	mov	lr, sl
100011c8:	464f      	mov	r7, r9
100011ca:	4646      	mov	r6, r8
100011cc:	4c2f      	ldr	r4, [pc, #188]	; (1000128c <hardware_alarm_set_target+0xc8>)
100011ce:	b5c0      	push	{r6, r7, lr}
100011d0:	6a65      	ldr	r5, [r4, #36]	; 0x24
100011d2:	e000      	b.n	100011d6 <hardware_alarm_set_target+0x12>
100011d4:	000d      	movs	r5, r1
100011d6:	6aa6      	ldr	r6, [r4, #40]	; 0x28
100011d8:	6a61      	ldr	r1, [r4, #36]	; 0x24
100011da:	42a9      	cmp	r1, r5
100011dc:	d1fa      	bne.n	100011d4 <hardware_alarm_set_target+0x10>
100011de:	42ab      	cmp	r3, r5
100011e0:	d949      	bls.n	10001276 <hardware_alarm_set_target+0xb2>
100011e2:	f3ef 8910 	mrs	r9, PRIMASK
100011e6:	b672      	cpsid	i
100011e8:	4c29      	ldr	r4, [pc, #164]	; (10001290 <hardware_alarm_set_target+0xcc>)
100011ea:	6821      	ldr	r1, [r4, #0]
100011ec:	2900      	cmp	r1, #0
100011ee:	d0fc      	beq.n	100011ea <hardware_alarm_set_target+0x26>
100011f0:	f3bf 8f5f 	dmb	sy
100011f4:	2601      	movs	r6, #1
100011f6:	4927      	ldr	r1, [pc, #156]	; (10001294 <hardware_alarm_set_target+0xd0>)
100011f8:	4086      	lsls	r6, r0
100011fa:	468c      	mov	ip, r1
100011fc:	7809      	ldrb	r1, [r1, #0]
100011fe:	4d26      	ldr	r5, [pc, #152]	; (10001298 <hardware_alarm_set_target+0xd4>)
10001200:	000f      	movs	r7, r1
10001202:	4337      	orrs	r7, r6
10001204:	4688      	mov	r8, r1
10001206:	b2f9      	uxtb	r1, r7
10001208:	468a      	mov	sl, r1
1000120a:	4661      	mov	r1, ip
1000120c:	4654      	mov	r4, sl
1000120e:	700c      	strb	r4, [r1, #0]
10001210:	491e      	ldr	r1, [pc, #120]	; (1000128c <hardware_alarm_set_target+0xc8>)
10001212:	1d04      	adds	r4, r0, #4
10001214:	00a4      	lsls	r4, r4, #2
10001216:	634e      	str	r6, [r1, #52]	; 0x34
10001218:	5062      	str	r2, [r4, r1]
1000121a:	0084      	lsls	r4, r0, #2
1000121c:	5163      	str	r3, [r4, r5]
1000121e:	6a0d      	ldr	r5, [r1, #32]
10001220:	2400      	movs	r4, #0
10001222:	4235      	tst	r5, r6
10001224:	d01a      	beq.n	1000125c <hardware_alarm_set_target+0x98>
10001226:	6a4d      	ldr	r5, [r1, #36]	; 0x24
10001228:	e000      	b.n	1000122c <hardware_alarm_set_target+0x68>
1000122a:	0025      	movs	r5, r4
1000122c:	6a8f      	ldr	r7, [r1, #40]	; 0x28
1000122e:	6a4c      	ldr	r4, [r1, #36]	; 0x24
10001230:	42ac      	cmp	r4, r5
10001232:	d1fa      	bne.n	1000122a <hardware_alarm_set_target+0x66>
10001234:	42ab      	cmp	r3, r5
10001236:	d824      	bhi.n	10001282 <hardware_alarm_set_target+0xbe>
10001238:	d101      	bne.n	1000123e <hardware_alarm_set_target+0x7a>
1000123a:	42ba      	cmp	r2, r7
1000123c:	d821      	bhi.n	10001282 <hardware_alarm_set_target+0xbe>
1000123e:	45d0      	cmp	r8, sl
10001240:	d021      	beq.n	10001286 <hardware_alarm_set_target+0xc2>
10001242:	4b12      	ldr	r3, [pc, #72]	; (1000128c <hardware_alarm_set_target+0xc8>)
10001244:	4a15      	ldr	r2, [pc, #84]	; (1000129c <hardware_alarm_set_target+0xd8>)
10001246:	621e      	str	r6, [r3, #32]
10001248:	635e      	str	r6, [r3, #52]	; 0x34
1000124a:	231f      	movs	r3, #31
1000124c:	4018      	ands	r0, r3
1000124e:	3b1e      	subs	r3, #30
10001250:	4083      	lsls	r3, r0
10001252:	6013      	str	r3, [r2, #0]
10001254:	4663      	mov	r3, ip
10001256:	4642      	mov	r2, r8
10001258:	2401      	movs	r4, #1
1000125a:	701a      	strb	r2, [r3, #0]
1000125c:	f3bf 8f5f 	dmb	sy
10001260:	2200      	movs	r2, #0
10001262:	4b0b      	ldr	r3, [pc, #44]	; (10001290 <hardware_alarm_set_target+0xcc>)
10001264:	601a      	str	r2, [r3, #0]
10001266:	f389 8810 	msr	PRIMASK, r9
1000126a:	0020      	movs	r0, r4
1000126c:	bc1c      	pop	{r2, r3, r4}
1000126e:	4690      	mov	r8, r2
10001270:	4699      	mov	r9, r3
10001272:	46a2      	mov	sl, r4
10001274:	bdf0      	pop	{r4, r5, r6, r7, pc}
10001276:	42ab      	cmp	r3, r5
10001278:	d101      	bne.n	1000127e <hardware_alarm_set_target+0xba>
1000127a:	42b2      	cmp	r2, r6
1000127c:	d8b1      	bhi.n	100011e2 <hardware_alarm_set_target+0x1e>
1000127e:	2401      	movs	r4, #1
10001280:	e7f3      	b.n	1000126a <hardware_alarm_set_target+0xa6>
10001282:	2400      	movs	r4, #0
10001284:	e7ea      	b.n	1000125c <hardware_alarm_set_target+0x98>
10001286:	2401      	movs	r4, #1
10001288:	e7e8      	b.n	1000125c <hardware_alarm_set_target+0x98>
1000128a:	46c0      	nop			; (mov r8, r8)
1000128c:	40054000 	.word	0x40054000
10001290:	d0000128 	.word	0xd0000128
10001294:	20003782 	.word	0x20003782
10001298:	20003764 	.word	0x20003764
1000129c:	e000e280 	.word	0xe000e280

100012a0 <hardware_alarm_cancel>:
100012a0:	b510      	push	{r4, lr}
100012a2:	f3ef 8410 	mrs	r4, PRIMASK
100012a6:	b672      	cpsid	i
100012a8:	490a      	ldr	r1, [pc, #40]	; (100012d4 <hardware_alarm_cancel+0x34>)
100012aa:	680b      	ldr	r3, [r1, #0]
100012ac:	2b00      	cmp	r3, #0
100012ae:	d0fc      	beq.n	100012aa <hardware_alarm_cancel+0xa>
100012b0:	f3bf 8f5f 	dmb	sy
100012b4:	2301      	movs	r3, #1
100012b6:	4083      	lsls	r3, r0
100012b8:	4a07      	ldr	r2, [pc, #28]	; (100012d8 <hardware_alarm_cancel+0x38>)
100012ba:	4808      	ldr	r0, [pc, #32]	; (100012dc <hardware_alarm_cancel+0x3c>)
100012bc:	6213      	str	r3, [r2, #32]
100012be:	7802      	ldrb	r2, [r0, #0]
100012c0:	439a      	bics	r2, r3
100012c2:	7002      	strb	r2, [r0, #0]
100012c4:	f3bf 8f5f 	dmb	sy
100012c8:	2300      	movs	r3, #0
100012ca:	600b      	str	r3, [r1, #0]
100012cc:	f384 8810 	msr	PRIMASK, r4
100012d0:	bd10      	pop	{r4, pc}
100012d2:	46c0      	nop			; (mov r8, r8)
100012d4:	d0000128 	.word	0xd0000128
100012d8:	40054000 	.word	0x40054000
100012dc:	20003782 	.word	0x20003782

100012e0 <lock_init>:
100012e0:	4b02      	ldr	r3, [pc, #8]	; (100012ec <lock_init+0xc>)
100012e2:	469c      	mov	ip, r3
100012e4:	4461      	add	r1, ip
100012e6:	0089      	lsls	r1, r1, #2
100012e8:	6001      	str	r1, [r0, #0]
100012ea:	4770      	bx	lr
100012ec:	34000040 	.word	0x34000040

100012f0 <mutex_init>:
100012f0:	b510      	push	{r4, lr}
100012f2:	0004      	movs	r4, r0
100012f4:	f7ff fa64 	bl	100007c0 <next_striped_spin_lock_num>
100012f8:	0001      	movs	r1, r0
100012fa:	0020      	movs	r0, r4
100012fc:	f7ff fff0 	bl	100012e0 <lock_init>
10001300:	23ff      	movs	r3, #255	; 0xff
10001302:	7123      	strb	r3, [r4, #4]
10001304:	2300      	movs	r3, #0
10001306:	7163      	strb	r3, [r4, #5]
10001308:	f3bf 8f5f 	dmb	sy
1000130c:	bd10      	pop	{r4, pc}
1000130e:	46c0      	nop			; (mov r8, r8)

10001310 <recursive_mutex_init>:
10001310:	b510      	push	{r4, lr}
10001312:	0004      	movs	r4, r0
10001314:	f7ff fa54 	bl	100007c0 <next_striped_spin_lock_num>
10001318:	0001      	movs	r1, r0
1000131a:	0020      	movs	r0, r4
1000131c:	f7ff ffe0 	bl	100012e0 <lock_init>
10001320:	23ff      	movs	r3, #255	; 0xff
10001322:	7123      	strb	r3, [r4, #4]
10001324:	7163      	strb	r3, [r4, #5]
10001326:	f3bf 8f5f 	dmb	sy
1000132a:	bd10      	pop	{r4, pc}

1000132c <critical_section_init>:
1000132c:	b510      	push	{r4, lr}
1000132e:	0004      	movs	r4, r0
10001330:	2001      	movs	r0, #1
10001332:	f7ff fa51 	bl	100007d8 <spin_lock_claim_unused>
10001336:	4b04      	ldr	r3, [pc, #16]	; (10001348 <critical_section_init+0x1c>)
10001338:	469c      	mov	ip, r3
1000133a:	4460      	add	r0, ip
1000133c:	0080      	lsls	r0, r0, #2
1000133e:	6020      	str	r0, [r4, #0]
10001340:	f3bf 8f5f 	dmb	sy
10001344:	bd10      	pop	{r4, pc}
10001346:	46c0      	nop			; (mov r8, r8)
10001348:	34000040 	.word	0x34000040

1000134c <ph_merge_two_pass.part.3>:
1000134c:	b5f8      	push	{r3, r4, r5, r6, r7, lr}
1000134e:	464e      	mov	r6, r9
10001350:	4645      	mov	r5, r8
10001352:	46de      	mov	lr, fp
10001354:	4657      	mov	r7, sl
10001356:	b5e0      	push	{r5, r6, r7, lr}
10001358:	004c      	lsls	r4, r1, #1
1000135a:	1864      	adds	r4, r4, r1
1000135c:	6803      	ldr	r3, [r0, #0]
1000135e:	3c03      	subs	r4, #3
10001360:	191a      	adds	r2, r3, r4
10001362:	000d      	movs	r5, r1
10001364:	7851      	ldrb	r1, [r2, #1]
10001366:	0006      	movs	r6, r0
10001368:	4689      	mov	r9, r1
1000136a:	2900      	cmp	r1, #0
1000136c:	d106      	bne.n	1000137c <ph_merge_two_pass.part.3+0x30>
1000136e:	0028      	movs	r0, r5
10001370:	bc3c      	pop	{r2, r3, r4, r5}
10001372:	4690      	mov	r8, r2
10001374:	4699      	mov	r9, r3
10001376:	46a2      	mov	sl, r4
10001378:	46ab      	mov	fp, r5
1000137a:	bdf8      	pop	{r3, r4, r5, r6, r7, pc}
1000137c:	004f      	lsls	r7, r1, #1
1000137e:	444f      	add	r7, r9
10001380:	3f03      	subs	r7, #3
10001382:	19d8      	adds	r0, r3, r7
10001384:	7841      	ldrb	r1, [r0, #1]
10001386:	4688      	mov	r8, r1
10001388:	2100      	movs	r1, #0
1000138a:	7041      	strb	r1, [r0, #1]
1000138c:	7051      	strb	r1, [r2, #1]
1000138e:	2d00      	cmp	r5, #0
10001390:	d012      	beq.n	100013b8 <ph_merge_two_pass.part.3+0x6c>
10001392:	6873      	ldr	r3, [r6, #4]
10001394:	464a      	mov	r2, r9
10001396:	0029      	movs	r1, r5
10001398:	68b0      	ldr	r0, [r6, #8]
1000139a:	4798      	blx	r3
1000139c:	6833      	ldr	r3, [r6, #0]
1000139e:	2800      	cmp	r0, #0
100013a0:	d073      	beq.n	1000148a <ph_merge_two_pass.part.3+0x13e>
100013a2:	19df      	adds	r7, r3, r7
100013a4:	191a      	adds	r2, r3, r4
100013a6:	70bd      	strb	r5, [r7, #2]
100013a8:	7811      	ldrb	r1, [r2, #0]
100013aa:	2900      	cmp	r1, #0
100013ac:	d000      	beq.n	100013b0 <ph_merge_two_pass.part.3+0x64>
100013ae:	7079      	strb	r1, [r7, #1]
100013b0:	4649      	mov	r1, r9
100013b2:	0027      	movs	r7, r4
100013b4:	7011      	strb	r1, [r2, #0]
100013b6:	e000      	b.n	100013ba <ph_merge_two_pass.part.3+0x6e>
100013b8:	464d      	mov	r5, r9
100013ba:	4642      	mov	r2, r8
100013bc:	2a00      	cmp	r2, #0
100013be:	d0d6      	beq.n	1000136e <ph_merge_two_pass.part.3+0x22>
100013c0:	0054      	lsls	r4, r2, #1
100013c2:	4444      	add	r4, r8
100013c4:	3c03      	subs	r4, #3
100013c6:	191a      	adds	r2, r3, r4
100013c8:	7851      	ldrb	r1, [r2, #1]
100013ca:	4689      	mov	r9, r1
100013cc:	2900      	cmp	r1, #0
100013ce:	d111      	bne.n	100013f4 <ph_merge_two_pass.part.3+0xa8>
100013d0:	6873      	ldr	r3, [r6, #4]
100013d2:	4642      	mov	r2, r8
100013d4:	0029      	movs	r1, r5
100013d6:	68b0      	ldr	r0, [r6, #8]
100013d8:	4798      	blx	r3
100013da:	6833      	ldr	r3, [r6, #0]
100013dc:	2800      	cmp	r0, #0
100013de:	d049      	beq.n	10001474 <ph_merge_two_pass.part.3+0x128>
100013e0:	191c      	adds	r4, r3, r4
100013e2:	19df      	adds	r7, r3, r7
100013e4:	70a5      	strb	r5, [r4, #2]
100013e6:	783b      	ldrb	r3, [r7, #0]
100013e8:	2b00      	cmp	r3, #0
100013ea:	d000      	beq.n	100013ee <ph_merge_two_pass.part.3+0xa2>
100013ec:	7063      	strb	r3, [r4, #1]
100013ee:	4643      	mov	r3, r8
100013f0:	703b      	strb	r3, [r7, #0]
100013f2:	e7bc      	b.n	1000136e <ph_merge_two_pass.part.3+0x22>
100013f4:	0049      	lsls	r1, r1, #1
100013f6:	4449      	add	r1, r9
100013f8:	3903      	subs	r1, #3
100013fa:	468a      	mov	sl, r1
100013fc:	4453      	add	r3, sl
100013fe:	7859      	ldrb	r1, [r3, #1]
10001400:	468b      	mov	fp, r1
10001402:	2100      	movs	r1, #0
10001404:	7059      	strb	r1, [r3, #1]
10001406:	7051      	strb	r1, [r2, #1]
10001408:	6873      	ldr	r3, [r6, #4]
1000140a:	464a      	mov	r2, r9
1000140c:	4641      	mov	r1, r8
1000140e:	68b0      	ldr	r0, [r6, #8]
10001410:	4798      	blx	r3
10001412:	6833      	ldr	r3, [r6, #0]
10001414:	2800      	cmp	r0, #0
10001416:	d143      	bne.n	100014a0 <ph_merge_two_pass.part.3+0x154>
10001418:	4652      	mov	r2, sl
1000141a:	191c      	adds	r4, r3, r4
1000141c:	189a      	adds	r2, r3, r2
1000141e:	464b      	mov	r3, r9
10001420:	70a3      	strb	r3, [r4, #2]
10001422:	7813      	ldrb	r3, [r2, #0]
10001424:	2b00      	cmp	r3, #0
10001426:	d000      	beq.n	1000142a <ph_merge_two_pass.part.3+0xde>
10001428:	7063      	strb	r3, [r4, #1]
1000142a:	4643      	mov	r3, r8
1000142c:	4654      	mov	r4, sl
1000142e:	46c8      	mov	r8, r9
10001430:	7013      	strb	r3, [r2, #0]
10001432:	465b      	mov	r3, fp
10001434:	2b00      	cmp	r3, #0
10001436:	d0cb      	beq.n	100013d0 <ph_merge_two_pass.part.3+0x84>
10001438:	4659      	mov	r1, fp
1000143a:	0030      	movs	r0, r6
1000143c:	f7ff ff86 	bl	1000134c <ph_merge_two_pass.part.3>
10001440:	4681      	mov	r9, r0
10001442:	2800      	cmp	r0, #0
10001444:	d0c4      	beq.n	100013d0 <ph_merge_two_pass.part.3+0x84>
10001446:	0002      	movs	r2, r0
10001448:	4641      	mov	r1, r8
1000144a:	68b0      	ldr	r0, [r6, #8]
1000144c:	6873      	ldr	r3, [r6, #4]
1000144e:	4798      	blx	r3
10001450:	6832      	ldr	r2, [r6, #0]
10001452:	2800      	cmp	r0, #0
10001454:	d02f      	beq.n	100014b6 <ph_merge_two_pass.part.3+0x16a>
10001456:	464b      	mov	r3, r9
10001458:	005b      	lsls	r3, r3, #1
1000145a:	444b      	add	r3, r9
1000145c:	3b03      	subs	r3, #3
1000145e:	1911      	adds	r1, r2, r4
10001460:	18d3      	adds	r3, r2, r3
10001462:	4642      	mov	r2, r8
10001464:	709a      	strb	r2, [r3, #2]
10001466:	780a      	ldrb	r2, [r1, #0]
10001468:	2a00      	cmp	r2, #0
1000146a:	d000      	beq.n	1000146e <ph_merge_two_pass.part.3+0x122>
1000146c:	705a      	strb	r2, [r3, #1]
1000146e:	464b      	mov	r3, r9
10001470:	700b      	strb	r3, [r1, #0]
10001472:	e7ad      	b.n	100013d0 <ph_merge_two_pass.part.3+0x84>
10001474:	191c      	adds	r4, r3, r4
10001476:	19df      	adds	r7, r3, r7
10001478:	4643      	mov	r3, r8
1000147a:	70bb      	strb	r3, [r7, #2]
1000147c:	7823      	ldrb	r3, [r4, #0]
1000147e:	2b00      	cmp	r3, #0
10001480:	d000      	beq.n	10001484 <ph_merge_two_pass.part.3+0x138>
10001482:	707b      	strb	r3, [r7, #1]
10001484:	7025      	strb	r5, [r4, #0]
10001486:	4645      	mov	r5, r8
10001488:	e771      	b.n	1000136e <ph_merge_two_pass.part.3+0x22>
1000148a:	4649      	mov	r1, r9
1000148c:	191c      	adds	r4, r3, r4
1000148e:	19da      	adds	r2, r3, r7
10001490:	70a1      	strb	r1, [r4, #2]
10001492:	7811      	ldrb	r1, [r2, #0]
10001494:	2900      	cmp	r1, #0
10001496:	d000      	beq.n	1000149a <ph_merge_two_pass.part.3+0x14e>
10001498:	7061      	strb	r1, [r4, #1]
1000149a:	7015      	strb	r5, [r2, #0]
1000149c:	464d      	mov	r5, r9
1000149e:	e78c      	b.n	100013ba <ph_merge_two_pass.part.3+0x6e>
100014a0:	4641      	mov	r1, r8
100014a2:	191a      	adds	r2, r3, r4
100014a4:	4453      	add	r3, sl
100014a6:	7099      	strb	r1, [r3, #2]
100014a8:	7811      	ldrb	r1, [r2, #0]
100014aa:	2900      	cmp	r1, #0
100014ac:	d000      	beq.n	100014b0 <ph_merge_two_pass.part.3+0x164>
100014ae:	7059      	strb	r1, [r3, #1]
100014b0:	464b      	mov	r3, r9
100014b2:	7013      	strb	r3, [r2, #0]
100014b4:	e7bd      	b.n	10001432 <ph_merge_two_pass.part.3+0xe6>
100014b6:	464b      	mov	r3, r9
100014b8:	005b      	lsls	r3, r3, #1
100014ba:	444b      	add	r3, r9
100014bc:	3b03      	subs	r3, #3
100014be:	18d1      	adds	r1, r2, r3
100014c0:	1914      	adds	r4, r2, r4
100014c2:	464a      	mov	r2, r9
100014c4:	70a2      	strb	r2, [r4, #2]
100014c6:	780a      	ldrb	r2, [r1, #0]
100014c8:	2a00      	cmp	r2, #0
100014ca:	d000      	beq.n	100014ce <ph_merge_two_pass.part.3+0x182>
100014cc:	7062      	strb	r2, [r4, #1]
100014ce:	4642      	mov	r2, r8
100014d0:	001c      	movs	r4, r3
100014d2:	700a      	strb	r2, [r1, #0]
100014d4:	46c8      	mov	r8, r9
100014d6:	e77b      	b.n	100013d0 <ph_merge_two_pass.part.3+0x84>

100014d8 <ph_post_alloc_init>:
100014d8:	b510      	push	{r4, lr}
100014da:	6083      	str	r3, [r0, #8]
100014dc:	2300      	movs	r3, #0
100014de:	b2cc      	uxtb	r4, r1
100014e0:	7343      	strb	r3, [r0, #13]
100014e2:	3301      	adds	r3, #1
100014e4:	7304      	strb	r4, [r0, #12]
100014e6:	6042      	str	r2, [r0, #4]
100014e8:	7383      	strb	r3, [r0, #14]
100014ea:	73c4      	strb	r4, [r0, #15]
100014ec:	6800      	ldr	r0, [r0, #0]
100014ee:	2c01      	cmp	r4, #1
100014f0:	d907      	bls.n	10001502 <ph_post_alloc_init+0x2a>
100014f2:	2301      	movs	r3, #1
100014f4:	1c42      	adds	r2, r0, #1
100014f6:	3301      	adds	r3, #1
100014f8:	b2db      	uxtb	r3, r3
100014fa:	7013      	strb	r3, [r2, #0]
100014fc:	3203      	adds	r2, #3
100014fe:	429c      	cmp	r4, r3
10001500:	d8f9      	bhi.n	100014f6 <ph_post_alloc_init+0x1e>
10001502:	23ff      	movs	r3, #255	; 0xff
10001504:	4019      	ands	r1, r3
10001506:	004b      	lsls	r3, r1, #1
10001508:	1859      	adds	r1, r3, r1
1000150a:	2300      	movs	r3, #0
1000150c:	1840      	adds	r0, r0, r1
1000150e:	3803      	subs	r0, #3
10001510:	7043      	strb	r3, [r0, #1]
10001512:	bd10      	pop	{r4, pc}

10001514 <ph_remove_head>:
10001514:	b5f0      	push	{r4, r5, r6, r7, lr}
10001516:	464e      	mov	r6, r9
10001518:	4657      	mov	r7, sl
1000151a:	4645      	mov	r5, r8
1000151c:	46de      	mov	lr, fp
1000151e:	b5e0      	push	{r5, r6, r7, lr}
10001520:	7b47      	ldrb	r7, [r0, #13]
10001522:	6803      	ldr	r3, [r0, #0]
10001524:	007c      	lsls	r4, r7, #1
10001526:	19e4      	adds	r4, r4, r7
10001528:	3c03      	subs	r4, #3
1000152a:	191a      	adds	r2, r3, r4
1000152c:	7816      	ldrb	r6, [r2, #0]
1000152e:	b083      	sub	sp, #12
10001530:	0005      	movs	r5, r0
10001532:	4689      	mov	r9, r1
10001534:	2e00      	cmp	r6, #0
10001536:	d11e      	bne.n	10001576 <ph_remove_head+0x62>
10001538:	2900      	cmp	r1, #0
1000153a:	d011      	beq.n	10001560 <ph_remove_head+0x4c>
1000153c:	7bc0      	ldrb	r0, [r0, #15]
1000153e:	2800      	cmp	r0, #0
10001540:	d069      	beq.n	10001616 <ph_remove_head+0x102>
10001542:	0041      	lsls	r1, r0, #1
10001544:	1809      	adds	r1, r1, r0
10001546:	1859      	adds	r1, r3, r1
10001548:	3903      	subs	r1, #3
1000154a:	704f      	strb	r7, [r1, #1]
1000154c:	73ef      	strb	r7, [r5, #15]
1000154e:	2e00      	cmp	r6, #0
10001550:	d006      	beq.n	10001560 <ph_remove_head+0x4c>
10001552:	0071      	lsls	r1, r6, #1
10001554:	1989      	adds	r1, r1, r6
10001556:	3903      	subs	r1, #3
10001558:	4688      	mov	r8, r1
1000155a:	2100      	movs	r1, #0
1000155c:	4443      	add	r3, r8
1000155e:	7099      	strb	r1, [r3, #2]
10001560:	2300      	movs	r3, #0
10001562:	0038      	movs	r0, r7
10001564:	7053      	strb	r3, [r2, #1]
10001566:	736e      	strb	r6, [r5, #13]
10001568:	b003      	add	sp, #12
1000156a:	bc3c      	pop	{r2, r3, r4, r5}
1000156c:	4690      	mov	r8, r2
1000156e:	4699      	mov	r9, r3
10001570:	46a2      	mov	sl, r4
10001572:	46ab      	mov	fp, r5
10001574:	bdf0      	pop	{r4, r5, r6, r7, pc}
10001576:	0071      	lsls	r1, r6, #1
10001578:	1989      	adds	r1, r1, r6
1000157a:	3903      	subs	r1, #3
1000157c:	4688      	mov	r8, r1
1000157e:	1859      	adds	r1, r3, r1
10001580:	7848      	ldrb	r0, [r1, #1]
10001582:	4682      	mov	sl, r0
10001584:	2800      	cmp	r0, #0
10001586:	d107      	bne.n	10001598 <ph_remove_head+0x84>
10001588:	4649      	mov	r1, r9
1000158a:	2900      	cmp	r1, #0
1000158c:	d0e5      	beq.n	1000155a <ph_remove_head+0x46>
1000158e:	7be8      	ldrb	r0, [r5, #15]
10001590:	2800      	cmp	r0, #0
10001592:	d1d6      	bne.n	10001542 <ph_remove_head+0x2e>
10001594:	73ef      	strb	r7, [r5, #15]
10001596:	e7dc      	b.n	10001552 <ph_remove_head+0x3e>
10001598:	0042      	lsls	r2, r0, #1
1000159a:	4452      	add	r2, sl
1000159c:	3a03      	subs	r2, #3
1000159e:	4694      	mov	ip, r2
100015a0:	9201      	str	r2, [sp, #4]
100015a2:	4463      	add	r3, ip
100015a4:	785a      	ldrb	r2, [r3, #1]
100015a6:	4693      	mov	fp, r2
100015a8:	2200      	movs	r2, #0
100015aa:	705a      	strb	r2, [r3, #1]
100015ac:	704a      	strb	r2, [r1, #1]
100015ae:	686b      	ldr	r3, [r5, #4]
100015b0:	4652      	mov	r2, sl
100015b2:	0031      	movs	r1, r6
100015b4:	68a8      	ldr	r0, [r5, #8]
100015b6:	4798      	blx	r3
100015b8:	682b      	ldr	r3, [r5, #0]
100015ba:	2800      	cmp	r0, #0
100015bc:	d032      	beq.n	10001624 <ph_remove_head+0x110>
100015be:	4641      	mov	r1, r8
100015c0:	9801      	ldr	r0, [sp, #4]
100015c2:	185a      	adds	r2, r3, r1
100015c4:	1819      	adds	r1, r3, r0
100015c6:	708e      	strb	r6, [r1, #2]
100015c8:	7810      	ldrb	r0, [r2, #0]
100015ca:	2800      	cmp	r0, #0
100015cc:	d125      	bne.n	1000161a <ph_remove_head+0x106>
100015ce:	4651      	mov	r1, sl
100015d0:	7011      	strb	r1, [r2, #0]
100015d2:	465a      	mov	r2, fp
100015d4:	2a00      	cmp	r2, #0
100015d6:	d023      	beq.n	10001620 <ph_remove_head+0x10c>
100015d8:	4659      	mov	r1, fp
100015da:	0028      	movs	r0, r5
100015dc:	f7ff feb6 	bl	1000134c <ph_merge_two_pass.part.3>
100015e0:	4682      	mov	sl, r0
100015e2:	2800      	cmp	r0, #0
100015e4:	d01b      	beq.n	1000161e <ph_remove_head+0x10a>
100015e6:	0002      	movs	r2, r0
100015e8:	686b      	ldr	r3, [r5, #4]
100015ea:	0031      	movs	r1, r6
100015ec:	68a8      	ldr	r0, [r5, #8]
100015ee:	4798      	blx	r3
100015f0:	682b      	ldr	r3, [r5, #0]
100015f2:	2800      	cmp	r0, #0
100015f4:	d025      	beq.n	10001642 <ph_remove_head+0x12e>
100015f6:	4642      	mov	r2, r8
100015f8:	1899      	adds	r1, r3, r2
100015fa:	4652      	mov	r2, sl
100015fc:	0052      	lsls	r2, r2, #1
100015fe:	4452      	add	r2, sl
10001600:	3a03      	subs	r2, #3
10001602:	189a      	adds	r2, r3, r2
10001604:	7096      	strb	r6, [r2, #2]
10001606:	7808      	ldrb	r0, [r1, #0]
10001608:	2800      	cmp	r0, #0
1000160a:	d000      	beq.n	1000160e <ph_remove_head+0xfa>
1000160c:	7050      	strb	r0, [r2, #1]
1000160e:	4652      	mov	r2, sl
10001610:	700a      	strb	r2, [r1, #0]
10001612:	191a      	adds	r2, r3, r4
10001614:	e7b8      	b.n	10001588 <ph_remove_head+0x74>
10001616:	73ef      	strb	r7, [r5, #15]
10001618:	e7a2      	b.n	10001560 <ph_remove_head+0x4c>
1000161a:	7048      	strb	r0, [r1, #1]
1000161c:	e7d7      	b.n	100015ce <ph_remove_head+0xba>
1000161e:	682b      	ldr	r3, [r5, #0]
10001620:	191a      	adds	r2, r3, r4
10001622:	e7b1      	b.n	10001588 <ph_remove_head+0x74>
10001624:	4641      	mov	r1, r8
10001626:	4650      	mov	r0, sl
10001628:	9a01      	ldr	r2, [sp, #4]
1000162a:	1859      	adds	r1, r3, r1
1000162c:	189a      	adds	r2, r3, r2
1000162e:	7088      	strb	r0, [r1, #2]
10001630:	7810      	ldrb	r0, [r2, #0]
10001632:	2800      	cmp	r0, #0
10001634:	d000      	beq.n	10001638 <ph_remove_head+0x124>
10001636:	7048      	strb	r0, [r1, #1]
10001638:	7016      	strb	r6, [r2, #0]
1000163a:	9a01      	ldr	r2, [sp, #4]
1000163c:	4656      	mov	r6, sl
1000163e:	4690      	mov	r8, r2
10001640:	e7c7      	b.n	100015d2 <ph_remove_head+0xbe>
10001642:	4652      	mov	r2, sl
10001644:	0051      	lsls	r1, r2, #1
10001646:	4451      	add	r1, sl
10001648:	3903      	subs	r1, #3
1000164a:	185a      	adds	r2, r3, r1
1000164c:	4640      	mov	r0, r8
1000164e:	4693      	mov	fp, r2
10001650:	4652      	mov	r2, sl
10001652:	1818      	adds	r0, r3, r0
10001654:	7082      	strb	r2, [r0, #2]
10001656:	465a      	mov	r2, fp
10001658:	7812      	ldrb	r2, [r2, #0]
1000165a:	2a00      	cmp	r2, #0
1000165c:	d000      	beq.n	10001660 <ph_remove_head+0x14c>
1000165e:	7042      	strb	r2, [r0, #1]
10001660:	465a      	mov	r2, fp
10001662:	4688      	mov	r8, r1
10001664:	7016      	strb	r6, [r2, #0]
10001666:	191a      	adds	r2, r3, r4
10001668:	4656      	mov	r6, sl
1000166a:	e78d      	b.n	10001588 <ph_remove_head+0x74>

1000166c <ph_remove_and_free_node>:
1000166c:	b5f0      	push	{r4, r5, r6, r7, lr}
1000166e:	4645      	mov	r5, r8
10001670:	46de      	mov	lr, fp
10001672:	4657      	mov	r7, sl
10001674:	464e      	mov	r6, r9
10001676:	b5e0      	push	{r5, r6, r7, lr}
10001678:	000c      	movs	r4, r1
1000167a:	b083      	sub	sp, #12
1000167c:	0005      	movs	r5, r0
1000167e:	2200      	movs	r2, #0
10001680:	2900      	cmp	r1, #0
10001682:	d03d      	beq.n	10001700 <ph_remove_and_free_node+0x94>
10001684:	7b47      	ldrb	r7, [r0, #13]
10001686:	6801      	ldr	r1, [r0, #0]
10001688:	42bc      	cmp	r4, r7
1000168a:	d06b      	beq.n	10001764 <ph_remove_and_free_node+0xf8>
1000168c:	0066      	lsls	r6, r4, #1
1000168e:	1936      	adds	r6, r6, r4
10001690:	3e03      	subs	r6, #3
10001692:	1988      	adds	r0, r1, r6
10001694:	7883      	ldrb	r3, [r0, #2]
10001696:	2b00      	cmp	r3, #0
10001698:	d032      	beq.n	10001700 <ph_remove_and_free_node+0x94>
1000169a:	005a      	lsls	r2, r3, #1
1000169c:	18d3      	adds	r3, r2, r3
1000169e:	3b03      	subs	r3, #3
100016a0:	18cb      	adds	r3, r1, r3
100016a2:	781a      	ldrb	r2, [r3, #0]
100016a4:	4294      	cmp	r4, r2
100016a6:	d102      	bne.n	100016ae <ph_remove_and_free_node+0x42>
100016a8:	e043      	b.n	10001732 <ph_remove_and_free_node+0xc6>
100016aa:	2a00      	cmp	r2, #0
100016ac:	d008      	beq.n	100016c0 <ph_remove_and_free_node+0x54>
100016ae:	0053      	lsls	r3, r2, #1
100016b0:	189b      	adds	r3, r3, r2
100016b2:	3b03      	subs	r3, #3
100016b4:	18cb      	adds	r3, r1, r3
100016b6:	785a      	ldrb	r2, [r3, #1]
100016b8:	4294      	cmp	r4, r2
100016ba:	d1f6      	bne.n	100016aa <ph_remove_and_free_node+0x3e>
100016bc:	7842      	ldrb	r2, [r0, #1]
100016be:	705a      	strb	r2, [r3, #1]
100016c0:	2300      	movs	r3, #0
100016c2:	7083      	strb	r3, [r0, #2]
100016c4:	7043      	strb	r3, [r0, #1]
100016c6:	7803      	ldrb	r3, [r0, #0]
100016c8:	4698      	mov	r8, r3
100016ca:	2b00      	cmp	r3, #0
100016cc:	d125      	bne.n	1000171a <ph_remove_and_free_node+0xae>
100016ce:	7bea      	ldrb	r2, [r5, #15]
100016d0:	2a00      	cmp	r2, #0
100016d2:	d01d      	beq.n	10001710 <ph_remove_and_free_node+0xa4>
100016d4:	0053      	lsls	r3, r2, #1
100016d6:	189b      	adds	r3, r3, r2
100016d8:	18cb      	adds	r3, r1, r3
100016da:	3b03      	subs	r3, #3
100016dc:	705c      	strb	r4, [r3, #1]
100016de:	4643      	mov	r3, r8
100016e0:	73ec      	strb	r4, [r5, #15]
100016e2:	2b00      	cmp	r3, #0
100016e4:	d100      	bne.n	100016e8 <ph_remove_and_free_node+0x7c>
100016e6:	e071      	b.n	100017cc <ph_remove_and_free_node+0x160>
100016e8:	005c      	lsls	r4, r3, #1
100016ea:	2300      	movs	r3, #0
100016ec:	4444      	add	r4, r8
100016ee:	3c03      	subs	r4, #3
100016f0:	1909      	adds	r1, r1, r4
100016f2:	708b      	strb	r3, [r1, #2]
100016f4:	7043      	strb	r3, [r0, #1]
100016f6:	2f00      	cmp	r7, #0
100016f8:	d11e      	bne.n	10001738 <ph_remove_and_free_node+0xcc>
100016fa:	4643      	mov	r3, r8
100016fc:	2201      	movs	r2, #1
100016fe:	736b      	strb	r3, [r5, #13]
10001700:	0010      	movs	r0, r2
10001702:	b003      	add	sp, #12
10001704:	bc3c      	pop	{r2, r3, r4, r5}
10001706:	4690      	mov	r8, r2
10001708:	4699      	mov	r9, r3
1000170a:	46a2      	mov	sl, r4
1000170c:	46ab      	mov	fp, r5
1000170e:	bdf0      	pop	{r4, r5, r6, r7, pc}
10001710:	46b8      	mov	r8, r7
10001712:	73ec      	strb	r4, [r5, #15]
10001714:	2300      	movs	r3, #0
10001716:	7043      	strb	r3, [r0, #1]
10001718:	e7ef      	b.n	100016fa <ph_remove_and_free_node+0x8e>
1000171a:	0019      	movs	r1, r3
1000171c:	0028      	movs	r0, r5
1000171e:	f7ff fe15 	bl	1000134c <ph_merge_two_pass.part.3>
10001722:	6829      	ldr	r1, [r5, #0]
10001724:	7bea      	ldrb	r2, [r5, #15]
10001726:	4680      	mov	r8, r0
10001728:	7b6f      	ldrb	r7, [r5, #13]
1000172a:	1988      	adds	r0, r1, r6
1000172c:	2a00      	cmp	r2, #0
1000172e:	d0d6      	beq.n	100016de <ph_remove_and_free_node+0x72>
10001730:	e7d0      	b.n	100016d4 <ph_remove_and_free_node+0x68>
10001732:	7842      	ldrb	r2, [r0, #1]
10001734:	701a      	strb	r2, [r3, #0]
10001736:	e7c3      	b.n	100016c0 <ph_remove_and_free_node+0x54>
10001738:	4642      	mov	r2, r8
1000173a:	0039      	movs	r1, r7
1000173c:	68a8      	ldr	r0, [r5, #8]
1000173e:	686b      	ldr	r3, [r5, #4]
10001740:	4798      	blx	r3
10001742:	682a      	ldr	r2, [r5, #0]
10001744:	2800      	cmp	r0, #0
10001746:	d024      	beq.n	10001792 <ph_remove_and_free_node+0x126>
10001748:	007b      	lsls	r3, r7, #1
1000174a:	19db      	adds	r3, r3, r7
1000174c:	1914      	adds	r4, r2, r4
1000174e:	3b03      	subs	r3, #3
10001750:	18d3      	adds	r3, r2, r3
10001752:	70a7      	strb	r7, [r4, #2]
10001754:	781a      	ldrb	r2, [r3, #0]
10001756:	2a00      	cmp	r2, #0
10001758:	d000      	beq.n	1000175c <ph_remove_and_free_node+0xf0>
1000175a:	7062      	strb	r2, [r4, #1]
1000175c:	4642      	mov	r2, r8
1000175e:	46b8      	mov	r8, r7
10001760:	701a      	strb	r2, [r3, #0]
10001762:	e7ca      	b.n	100016fa <ph_remove_and_free_node+0x8e>
10001764:	007e      	lsls	r6, r7, #1
10001766:	19f6      	adds	r6, r6, r7
10001768:	3e03      	subs	r6, #3
1000176a:	198b      	adds	r3, r1, r6
1000176c:	7818      	ldrb	r0, [r3, #0]
1000176e:	4680      	mov	r8, r0
10001770:	2800      	cmp	r0, #0
10001772:	d11b      	bne.n	100017ac <ph_remove_and_free_node+0x140>
10001774:	7be8      	ldrb	r0, [r5, #15]
10001776:	2800      	cmp	r0, #0
10001778:	d004      	beq.n	10001784 <ph_remove_and_free_node+0x118>
1000177a:	0042      	lsls	r2, r0, #1
1000177c:	1812      	adds	r2, r2, r0
1000177e:	188a      	adds	r2, r1, r2
10001780:	3a03      	subs	r2, #3
10001782:	7054      	strb	r4, [r2, #1]
10001784:	73ec      	strb	r4, [r5, #15]
10001786:	2200      	movs	r2, #0
10001788:	705a      	strb	r2, [r3, #1]
1000178a:	4643      	mov	r3, r8
1000178c:	3201      	adds	r2, #1
1000178e:	736b      	strb	r3, [r5, #13]
10001790:	e7b6      	b.n	10001700 <ph_remove_and_free_node+0x94>
10001792:	007b      	lsls	r3, r7, #1
10001794:	19db      	adds	r3, r3, r7
10001796:	3b03      	subs	r3, #3
10001798:	1914      	adds	r4, r2, r4
1000179a:	18d3      	adds	r3, r2, r3
1000179c:	4642      	mov	r2, r8
1000179e:	709a      	strb	r2, [r3, #2]
100017a0:	7822      	ldrb	r2, [r4, #0]
100017a2:	2a00      	cmp	r2, #0
100017a4:	d000      	beq.n	100017a8 <ph_remove_and_free_node+0x13c>
100017a6:	705a      	strb	r2, [r3, #1]
100017a8:	7027      	strb	r7, [r4, #0]
100017aa:	e7a6      	b.n	100016fa <ph_remove_and_free_node+0x8e>
100017ac:	0044      	lsls	r4, r0, #1
100017ae:	4444      	add	r4, r8
100017b0:	1ee0      	subs	r0, r4, #3
100017b2:	9001      	str	r0, [sp, #4]
100017b4:	1808      	adds	r0, r1, r0
100017b6:	7844      	ldrb	r4, [r0, #1]
100017b8:	46a2      	mov	sl, r4
100017ba:	2c00      	cmp	r4, #0
100017bc:	d108      	bne.n	100017d0 <ph_remove_and_free_node+0x164>
100017be:	7bec      	ldrb	r4, [r5, #15]
100017c0:	2c00      	cmp	r4, #0
100017c2:	d176      	bne.n	100018b2 <ph_remove_and_free_node+0x246>
100017c4:	73ef      	strb	r7, [r5, #15]
100017c6:	2200      	movs	r2, #0
100017c8:	7082      	strb	r2, [r0, #2]
100017ca:	e7dc      	b.n	10001786 <ph_remove_and_free_node+0x11a>
100017cc:	46b8      	mov	r8, r7
100017ce:	e7a1      	b.n	10001714 <ph_remove_and_free_node+0xa8>
100017d0:	0063      	lsls	r3, r4, #1
100017d2:	4453      	add	r3, sl
100017d4:	3b03      	subs	r3, #3
100017d6:	4699      	mov	r9, r3
100017d8:	4449      	add	r1, r9
100017da:	784b      	ldrb	r3, [r1, #1]
100017dc:	704a      	strb	r2, [r1, #1]
100017de:	7042      	strb	r2, [r0, #1]
100017e0:	469b      	mov	fp, r3
100017e2:	0022      	movs	r2, r4
100017e4:	686b      	ldr	r3, [r5, #4]
100017e6:	4641      	mov	r1, r8
100017e8:	68a8      	ldr	r0, [r5, #8]
100017ea:	4798      	blx	r3
100017ec:	682b      	ldr	r3, [r5, #0]
100017ee:	2800      	cmp	r0, #0
100017f0:	d04b      	beq.n	1000188a <ph_remove_and_free_node+0x21e>
100017f2:	4649      	mov	r1, r9
100017f4:	4640      	mov	r0, r8
100017f6:	9c01      	ldr	r4, [sp, #4]
100017f8:	1859      	adds	r1, r3, r1
100017fa:	191a      	adds	r2, r3, r4
100017fc:	7088      	strb	r0, [r1, #2]
100017fe:	7810      	ldrb	r0, [r2, #0]
10001800:	2800      	cmp	r0, #0
10001802:	d150      	bne.n	100018a6 <ph_remove_and_free_node+0x23a>
10001804:	4651      	mov	r1, sl
10001806:	46a1      	mov	r9, r4
10001808:	7011      	strb	r1, [r2, #0]
1000180a:	465a      	mov	r2, fp
1000180c:	2a00      	cmp	r2, #0
1000180e:	d020      	beq.n	10001852 <ph_remove_and_free_node+0x1e6>
10001810:	4659      	mov	r1, fp
10001812:	0028      	movs	r0, r5
10001814:	f7ff fd9a 	bl	1000134c <ph_merge_two_pass.part.3>
10001818:	1e04      	subs	r4, r0, #0
1000181a:	d019      	beq.n	10001850 <ph_remove_and_free_node+0x1e4>
1000181c:	0002      	movs	r2, r0
1000181e:	4641      	mov	r1, r8
10001820:	68a8      	ldr	r0, [r5, #8]
10001822:	686b      	ldr	r3, [r5, #4]
10001824:	4798      	blx	r3
10001826:	2800      	cmp	r0, #0
10001828:	d01e      	beq.n	10001868 <ph_remove_and_free_node+0x1fc>
1000182a:	464a      	mov	r2, r9
1000182c:	4641      	mov	r1, r8
1000182e:	682b      	ldr	r3, [r5, #0]
10001830:	1898      	adds	r0, r3, r2
10001832:	0062      	lsls	r2, r4, #1
10001834:	1912      	adds	r2, r2, r4
10001836:	3a03      	subs	r2, #3
10001838:	189a      	adds	r2, r3, r2
1000183a:	7091      	strb	r1, [r2, #2]
1000183c:	7801      	ldrb	r1, [r0, #0]
1000183e:	2900      	cmp	r1, #0
10001840:	d000      	beq.n	10001844 <ph_remove_and_free_node+0x1d8>
10001842:	7051      	strb	r1, [r2, #1]
10001844:	7004      	strb	r4, [r0, #0]
10001846:	7be9      	ldrb	r1, [r5, #15]
10001848:	2900      	cmp	r1, #0
1000184a:	d105      	bne.n	10001858 <ph_remove_and_free_node+0x1ec>
1000184c:	199b      	adds	r3, r3, r6
1000184e:	e7b9      	b.n	100017c4 <ph_remove_and_free_node+0x158>
10001850:	682b      	ldr	r3, [r5, #0]
10001852:	464a      	mov	r2, r9
10001854:	1898      	adds	r0, r3, r2
10001856:	e7f6      	b.n	10001846 <ph_remove_and_free_node+0x1da>
10001858:	004a      	lsls	r2, r1, #1
1000185a:	1852      	adds	r2, r2, r1
1000185c:	189a      	adds	r2, r3, r2
1000185e:	3a03      	subs	r2, #3
10001860:	7057      	strb	r7, [r2, #1]
10001862:	199b      	adds	r3, r3, r6
10001864:	73ef      	strb	r7, [r5, #15]
10001866:	e7ae      	b.n	100017c6 <ph_remove_and_free_node+0x15a>
10001868:	464b      	mov	r3, r9
1000186a:	6829      	ldr	r1, [r5, #0]
1000186c:	0060      	lsls	r0, r4, #1
1000186e:	1900      	adds	r0, r0, r4
10001870:	3803      	subs	r0, #3
10001872:	18cb      	adds	r3, r1, r3
10001874:	1808      	adds	r0, r1, r0
10001876:	709c      	strb	r4, [r3, #2]
10001878:	7802      	ldrb	r2, [r0, #0]
1000187a:	2a00      	cmp	r2, #0
1000187c:	d000      	beq.n	10001880 <ph_remove_and_free_node+0x214>
1000187e:	705a      	strb	r2, [r3, #1]
10001880:	4643      	mov	r3, r8
10001882:	46a0      	mov	r8, r4
10001884:	7003      	strb	r3, [r0, #0]
10001886:	198b      	adds	r3, r1, r6
10001888:	e799      	b.n	100017be <ph_remove_and_free_node+0x152>
1000188a:	464a      	mov	r2, r9
1000188c:	1898      	adds	r0, r3, r2
1000188e:	9a01      	ldr	r2, [sp, #4]
10001890:	189c      	adds	r4, r3, r2
10001892:	4652      	mov	r2, sl
10001894:	70a2      	strb	r2, [r4, #2]
10001896:	7802      	ldrb	r2, [r0, #0]
10001898:	2a00      	cmp	r2, #0
1000189a:	d000      	beq.n	1000189e <ph_remove_and_free_node+0x232>
1000189c:	7062      	strb	r2, [r4, #1]
1000189e:	4642      	mov	r2, r8
100018a0:	46d0      	mov	r8, sl
100018a2:	7002      	strb	r2, [r0, #0]
100018a4:	e7b1      	b.n	1000180a <ph_remove_and_free_node+0x19e>
100018a6:	7048      	strb	r0, [r1, #1]
100018a8:	4651      	mov	r1, sl
100018aa:	7011      	strb	r1, [r2, #0]
100018ac:	9a01      	ldr	r2, [sp, #4]
100018ae:	4691      	mov	r9, r2
100018b0:	e7ab      	b.n	1000180a <ph_remove_and_free_node+0x19e>
100018b2:	2203      	movs	r2, #3
100018b4:	4362      	muls	r2, r4
100018b6:	188a      	adds	r2, r1, r2
100018b8:	3a03      	subs	r2, #3
100018ba:	7057      	strb	r7, [r2, #1]
100018bc:	e782      	b.n	100017c4 <ph_remove_and_free_node+0x158>
100018be:	46c0      	nop			; (mov r8, r8)

100018c0 <runtime_init>:
100018c0:	4a31      	ldr	r2, [pc, #196]	; (10001988 <runtime_init+0xc8>)
100018c2:	4b32      	ldr	r3, [pc, #200]	; (1000198c <runtime_init+0xcc>)
100018c4:	b570      	push	{r4, r5, r6, lr}
100018c6:	601a      	str	r2, [r3, #0]
100018c8:	4a31      	ldr	r2, [pc, #196]	; (10001990 <runtime_init+0xd0>)
100018ca:	4b32      	ldr	r3, [pc, #200]	; (10001994 <runtime_init+0xd4>)
100018cc:	4932      	ldr	r1, [pc, #200]	; (10001998 <runtime_init+0xd8>)
100018ce:	601a      	str	r2, [r3, #0]
100018d0:	0010      	movs	r0, r2
100018d2:	688b      	ldr	r3, [r1, #8]
100018d4:	4398      	bics	r0, r3
100018d6:	d1fb      	bne.n	100018d0 <runtime_init+0x10>
100018d8:	4e30      	ldr	r6, [pc, #192]	; (1000199c <runtime_init+0xdc>)
100018da:	4b31      	ldr	r3, [pc, #196]	; (100019a0 <runtime_init+0xe0>)
100018dc:	429e      	cmp	r6, r3
100018de:	d20a      	bcs.n	100018f6 <runtime_init+0x36>
100018e0:	43f5      	mvns	r5, r6
100018e2:	2400      	movs	r4, #0
100018e4:	18ed      	adds	r5, r5, r3
100018e6:	08ad      	lsrs	r5, r5, #2
100018e8:	3501      	adds	r5, #1
100018ea:	00a3      	lsls	r3, r4, #2
100018ec:	58f3      	ldr	r3, [r6, r3]
100018ee:	3401      	adds	r4, #1
100018f0:	4798      	blx	r3
100018f2:	42ac      	cmp	r4, r5
100018f4:	d1f9      	bne.n	100018ea <runtime_init+0x2a>
100018f6:	f000 f89f 	bl	10001a38 <clocks_init>
100018fa:	4a2a      	ldr	r2, [pc, #168]	; (100019a4 <runtime_init+0xe4>)
100018fc:	4b25      	ldr	r3, [pc, #148]	; (10001994 <runtime_init+0xd4>)
100018fe:	601a      	str	r2, [r3, #0]
10001900:	4a25      	ldr	r2, [pc, #148]	; (10001998 <runtime_init+0xd8>)
10001902:	6893      	ldr	r3, [r2, #8]
10001904:	01db      	lsls	r3, r3, #7
10001906:	3380      	adds	r3, #128	; 0x80
10001908:	d1fb      	bne.n	10001902 <runtime_init+0x42>
1000190a:	2240      	movs	r2, #64	; 0x40
1000190c:	4b26      	ldr	r3, [pc, #152]	; (100019a8 <runtime_init+0xe8>)
1000190e:	4c27      	ldr	r4, [pc, #156]	; (100019ac <runtime_init+0xec>)
10001910:	679a      	str	r2, [r3, #120]	; 0x78
10001912:	675a      	str	r2, [r3, #116]	; 0x74
10001914:	671a      	str	r2, [r3, #112]	; 0x70
10001916:	66da      	str	r2, [r3, #108]	; 0x6c
10001918:	4b25      	ldr	r3, [pc, #148]	; (100019b0 <runtime_init+0xf0>)
1000191a:	429c      	cmp	r4, r3
1000191c:	d20e      	bcs.n	1000193c <runtime_init+0x7c>
1000191e:	43e6      	mvns	r6, r4
10001920:	2500      	movs	r5, #0
10001922:	18f6      	adds	r6, r6, r3
10001924:	08f6      	lsrs	r6, r6, #3
10001926:	3601      	adds	r6, #1
10001928:	7963      	ldrb	r3, [r4, #5]
1000192a:	0020      	movs	r0, r4
1000192c:	2b00      	cmp	r3, #0
1000192e:	d023      	beq.n	10001978 <runtime_init+0xb8>
10001930:	3501      	adds	r5, #1
10001932:	f7ff fced 	bl	10001310 <recursive_mutex_init>
10001936:	3408      	adds	r4, #8
10001938:	42ae      	cmp	r6, r5
1000193a:	d1f5      	bne.n	10001928 <runtime_init+0x68>
1000193c:	4d1d      	ldr	r5, [pc, #116]	; (100019b4 <runtime_init+0xf4>)
1000193e:	4c1e      	ldr	r4, [pc, #120]	; (100019b8 <runtime_init+0xf8>)
10001940:	22c0      	movs	r2, #192	; 0xc0
10001942:	68a1      	ldr	r1, [r4, #8]
10001944:	0028      	movs	r0, r5
10001946:	f000 ff3d 	bl	100027c4 <__wrap___aeabi_memcpy>
1000194a:	60a5      	str	r5, [r4, #8]
1000194c:	f7fe ff2a 	bl	100007a4 <spin_locks_reset>
10001950:	f000 fb58 	bl	10002004 <irq_init_priorities>
10001954:	f7ff f974 	bl	10000c40 <alarm_pool_init_default>
10001958:	4e18      	ldr	r6, [pc, #96]	; (100019bc <runtime_init+0xfc>)
1000195a:	4b19      	ldr	r3, [pc, #100]	; (100019c0 <runtime_init+0x100>)
1000195c:	429e      	cmp	r6, r3
1000195e:	d20a      	bcs.n	10001976 <runtime_init+0xb6>
10001960:	43f5      	mvns	r5, r6
10001962:	2400      	movs	r4, #0
10001964:	18ed      	adds	r5, r5, r3
10001966:	08ad      	lsrs	r5, r5, #2
10001968:	3501      	adds	r5, #1
1000196a:	00a3      	lsls	r3, r4, #2
1000196c:	58f3      	ldr	r3, [r6, r3]
1000196e:	3401      	adds	r4, #1
10001970:	4798      	blx	r3
10001972:	42a5      	cmp	r5, r4
10001974:	d1f9      	bne.n	1000196a <runtime_init+0xaa>
10001976:	bd70      	pop	{r4, r5, r6, pc}
10001978:	3501      	adds	r5, #1
1000197a:	f7ff fcb9 	bl	100012f0 <mutex_init>
1000197e:	3408      	adds	r4, #8
10001980:	42b5      	cmp	r5, r6
10001982:	d1d1      	bne.n	10001928 <runtime_init+0x68>
10001984:	e7da      	b.n	1000193c <runtime_init+0x7c>
10001986:	46c0      	nop			; (mov r8, r8)
10001988:	fefbcdbf 	.word	0xfefbcdbf
1000198c:	4000e000 	.word	0x4000e000
10001990:	003c7ffe 	.word	0x003c7ffe
10001994:	4000f000 	.word	0x4000f000
10001998:	4000c000 	.word	0x4000c000
1000199c:	20002ca8 	.word	0x20002ca8
100019a0:	20002cb8 	.word	0x20002cb8
100019a4:	01ffffff 	.word	0x01ffffff
100019a8:	4001f000 	.word	0x4001f000
100019ac:	20002ca0 	.word	0x20002ca0
100019b0:	20002ca8 	.word	0x20002ca8
100019b4:	20000000 	.word	0x20000000
100019b8:	e000ed00 	.word	0xe000ed00
100019bc:	20002cb8 	.word	0x20002cb8
100019c0:	20002cc0 	.word	0x20002cc0

100019c4 <_sbrk>:
100019c4:	4a09      	ldr	r2, [pc, #36]	; (100019ec <_sbrk+0x28>)
100019c6:	6813      	ldr	r3, [r2, #0]
100019c8:	2b00      	cmp	r3, #0
100019ca:	d006      	beq.n	100019da <_sbrk+0x16>
100019cc:	4908      	ldr	r1, [pc, #32]	; (100019f0 <_sbrk+0x2c>)
100019ce:	1818      	adds	r0, r3, r0
100019d0:	4288      	cmp	r0, r1
100019d2:	d808      	bhi.n	100019e6 <_sbrk+0x22>
100019d4:	6010      	str	r0, [r2, #0]
100019d6:	0018      	movs	r0, r3
100019d8:	4770      	bx	lr
100019da:	4b06      	ldr	r3, [pc, #24]	; (100019f4 <_sbrk+0x30>)
100019dc:	4904      	ldr	r1, [pc, #16]	; (100019f0 <_sbrk+0x2c>)
100019de:	1818      	adds	r0, r3, r0
100019e0:	6013      	str	r3, [r2, #0]
100019e2:	4288      	cmp	r0, r1
100019e4:	d9f6      	bls.n	100019d4 <_sbrk+0x10>
100019e6:	2001      	movs	r0, #1
100019e8:	4240      	negs	r0, r0
100019ea:	e7f5      	b.n	100019d8 <_sbrk+0x14>
100019ec:	2000333c 	.word	0x2000333c
100019f0:	20040000 	.word	0x20040000
100019f4:	20003a50 	.word	0x20003a50

100019f8 <exit>:
100019f8:	be00      	bkpt	0x0000
100019fa:	e7fd      	b.n	100019f8 <exit>

100019fc <panic>:
100019fc:	b40f      	push	{r0, r1, r2, r3}
100019fe:	b500      	push	{lr}
10001a00:	4808      	ldr	r0, [pc, #32]	; (10001a24 <panic+0x28>)
10001a02:	b083      	sub	sp, #12
10001a04:	f000 ff42 	bl	1000288c <__wrap_puts>
10001a08:	9b04      	ldr	r3, [sp, #16]
10001a0a:	2b00      	cmp	r3, #0
10001a0c:	d007      	beq.n	10001a1e <panic+0x22>
10001a0e:	a905      	add	r1, sp, #20
10001a10:	0018      	movs	r0, r3
10001a12:	9101      	str	r1, [sp, #4]
10001a14:	f000 fb98 	bl	10002148 <weak_raw_vprintf>
10001a18:	4803      	ldr	r0, [pc, #12]	; (10001a28 <panic+0x2c>)
10001a1a:	f000 ff37 	bl	1000288c <__wrap_puts>
10001a1e:	be00      	bkpt	0x0000
10001a20:	e7fd      	b.n	10001a1e <panic+0x22>
10001a22:	46c0      	nop			; (mov r8, r8)
10001a24:	10006c28 	.word	0x10006c28
10001a28:	10006c38 	.word	0x10006c38

10001a2c <hard_assertion_failure>:
10001a2c:	b510      	push	{r4, lr}
10001a2e:	4801      	ldr	r0, [pc, #4]	; (10001a34 <hard_assertion_failure+0x8>)
10001a30:	f7ff ffe4 	bl	100019fc <panic>
10001a34:	10006c1c 	.word	0x10006c1c

10001a38 <clocks_init>:
10001a38:	b530      	push	{r4, r5, lr}
10001a3a:	200c      	movs	r0, #12
10001a3c:	b083      	sub	sp, #12
10001a3e:	f000 fb49 	bl	100020d4 <watchdog_start_tick>
10001a42:	f7fe fea7 	bl	10000794 <running_on_fpga>
10001a46:	2800      	cmp	r0, #0
10001a48:	d00e      	beq.n	10001a68 <clocks_init+0x30>
10001a4a:	4b96      	ldr	r3, [pc, #600]	; (10001ca4 <clocks_init+0x26c>)
10001a4c:	4a96      	ldr	r2, [pc, #600]	; (10001ca8 <clocks_init+0x270>)
10001a4e:	601a      	str	r2, [r3, #0]
10001a50:	605a      	str	r2, [r3, #4]
10001a52:	609a      	str	r2, [r3, #8]
10001a54:	60da      	str	r2, [r3, #12]
10001a56:	611a      	str	r2, [r3, #16]
10001a58:	615a      	str	r2, [r3, #20]
10001a5a:	619a      	str	r2, [r3, #24]
10001a5c:	61da      	str	r2, [r3, #28]
10001a5e:	621a      	str	r2, [r3, #32]
10001a60:	4a92      	ldr	r2, [pc, #584]	; (10001cac <clocks_init+0x274>)
10001a62:	625a      	str	r2, [r3, #36]	; 0x24
10001a64:	b003      	add	sp, #12
10001a66:	bd30      	pop	{r4, r5, pc}
10001a68:	4c91      	ldr	r4, [pc, #580]	; (10001cb0 <clocks_init+0x278>)
10001a6a:	67a0      	str	r0, [r4, #120]	; 0x78
10001a6c:	f000 fb3a 	bl	100020e4 <xosc_init>
10001a70:	2201      	movs	r2, #1
10001a72:	4b90      	ldr	r3, [pc, #576]	; (10001cb4 <clocks_init+0x27c>)
10001a74:	601a      	str	r2, [r3, #0]
10001a76:	6c63      	ldr	r3, [r4, #68]	; 0x44
10001a78:	2b01      	cmp	r3, #1
10001a7a:	d1fc      	bne.n	10001a76 <clocks_init+0x3e>
10001a7c:	2203      	movs	r2, #3
10001a7e:	4b8e      	ldr	r3, [pc, #568]	; (10001cb8 <clocks_init+0x280>)
10001a80:	601a      	str	r2, [r3, #0]
10001a82:	4a8b      	ldr	r2, [pc, #556]	; (10001cb0 <clocks_init+0x278>)
10001a84:	6b93      	ldr	r3, [r2, #56]	; 0x38
10001a86:	2b01      	cmp	r3, #1
10001a88:	d1fc      	bne.n	10001a84 <clocks_init+0x4c>
10001a8a:	2402      	movs	r4, #2
10001a8c:	3305      	adds	r3, #5
10001a8e:	4a8b      	ldr	r2, [pc, #556]	; (10001cbc <clocks_init+0x284>)
10001a90:	2101      	movs	r1, #1
10001a92:	488b      	ldr	r0, [pc, #556]	; (10001cc0 <clocks_init+0x288>)
10001a94:	9400      	str	r4, [sp, #0]
10001a96:	f000 fad1 	bl	1000203c <pll_init>
10001a9a:	2305      	movs	r3, #5
10001a9c:	4a89      	ldr	r2, [pc, #548]	; (10001cc4 <clocks_init+0x28c>)
10001a9e:	9400      	str	r4, [sp, #0]
10001aa0:	2101      	movs	r1, #1
10001aa2:	4889      	ldr	r0, [pc, #548]	; (10001cc8 <clocks_init+0x290>)
10001aa4:	f000 faca 	bl	1000203c <pll_init>
10001aa8:	4b88      	ldr	r3, [pc, #544]	; (10001ccc <clocks_init+0x294>)
10001aaa:	685a      	ldr	r2, [r3, #4]
10001aac:	2aff      	cmp	r2, #255	; 0xff
10001aae:	d802      	bhi.n	10001ab6 <clocks_init+0x7e>
10001ab0:	2280      	movs	r2, #128	; 0x80
10001ab2:	0052      	lsls	r2, r2, #1
10001ab4:	605a      	str	r2, [r3, #4]
10001ab6:	2280      	movs	r2, #128	; 0x80
10001ab8:	4c7a      	ldr	r4, [pc, #488]	; (10001ca4 <clocks_init+0x26c>)
10001aba:	4b7f      	ldr	r3, [pc, #508]	; (10001cb8 <clocks_init+0x280>)
10001abc:	6921      	ldr	r1, [r4, #16]
10001abe:	0112      	lsls	r2, r2, #4
10001ac0:	4d82      	ldr	r5, [pc, #520]	; (10001ccc <clocks_init+0x294>)
10001ac2:	601a      	str	r2, [r3, #0]
10001ac4:	2900      	cmp	r1, #0
10001ac6:	d000      	beq.n	10001aca <clocks_init+0x92>
10001ac8:	e0e5      	b.n	10001c96 <clocks_init+0x25e>
10001aca:	21e0      	movs	r1, #224	; 0xe0
10001acc:	4b7f      	ldr	r3, [pc, #508]	; (10001ccc <clocks_init+0x294>)
10001ace:	2002      	movs	r0, #2
10001ad0:	681a      	ldr	r2, [r3, #0]
10001ad2:	4011      	ands	r1, r2
10001ad4:	2280      	movs	r2, #128	; 0x80
10001ad6:	0152      	lsls	r2, r2, #5
10001ad8:	432a      	orrs	r2, r5
10001ada:	6011      	str	r1, [r2, #0]
10001adc:	6819      	ldr	r1, [r3, #0]
10001ade:	4048      	eors	r0, r1
10001ae0:	2103      	movs	r1, #3
10001ae2:	4001      	ands	r1, r0
10001ae4:	6011      	str	r1, [r2, #0]
10001ae6:	2104      	movs	r1, #4
10001ae8:	689a      	ldr	r2, [r3, #8]
10001aea:	4211      	tst	r1, r2
10001aec:	d0fc      	beq.n	10001ae8 <clocks_init+0xb0>
10001aee:	2280      	movs	r2, #128	; 0x80
10001af0:	2180      	movs	r1, #128	; 0x80
10001af2:	0192      	lsls	r2, r2, #6
10001af4:	432a      	orrs	r2, r5
10001af6:	0109      	lsls	r1, r1, #4
10001af8:	6011      	str	r1, [r2, #0]
10001afa:	2280      	movs	r2, #128	; 0x80
10001afc:	0052      	lsls	r2, r2, #1
10001afe:	605a      	str	r2, [r3, #4]
10001b00:	4b73      	ldr	r3, [pc, #460]	; (10001cd0 <clocks_init+0x298>)
10001b02:	6123      	str	r3, [r4, #16]
10001b04:	4b73      	ldr	r3, [pc, #460]	; (10001cd4 <clocks_init+0x29c>)
10001b06:	6859      	ldr	r1, [r3, #4]
10001b08:	29ff      	cmp	r1, #255	; 0xff
10001b0a:	d800      	bhi.n	10001b0e <clocks_init+0xd6>
10001b0c:	e0c1      	b.n	10001c92 <clocks_init+0x25a>
10001b0e:	2203      	movs	r2, #3
10001b10:	4b68      	ldr	r3, [pc, #416]	; (10001cb4 <clocks_init+0x27c>)
10001b12:	4870      	ldr	r0, [pc, #448]	; (10001cd4 <clocks_init+0x29c>)
10001b14:	601a      	str	r2, [r3, #0]
10001b16:	2101      	movs	r1, #1
10001b18:	0003      	movs	r3, r0
10001b1a:	689a      	ldr	r2, [r3, #8]
10001b1c:	4211      	tst	r1, r2
10001b1e:	d0fc      	beq.n	10001b1a <clocks_init+0xe2>
10001b20:	25e0      	movs	r5, #224	; 0xe0
10001b22:	681a      	ldr	r2, [r3, #0]
10001b24:	4015      	ands	r5, r2
10001b26:	2280      	movs	r2, #128	; 0x80
10001b28:	0152      	lsls	r2, r2, #5
10001b2a:	4302      	orrs	r2, r0
10001b2c:	6015      	str	r5, [r2, #0]
10001b2e:	681b      	ldr	r3, [r3, #0]
10001b30:	404b      	eors	r3, r1
10001b32:	2103      	movs	r1, #3
10001b34:	4019      	ands	r1, r3
10001b36:	6011      	str	r1, [r2, #0]
10001b38:	2102      	movs	r1, #2
10001b3a:	4a66      	ldr	r2, [pc, #408]	; (10001cd4 <clocks_init+0x29c>)
10001b3c:	6893      	ldr	r3, [r2, #8]
10001b3e:	4219      	tst	r1, r3
10001b40:	d0fc      	beq.n	10001b3c <clocks_init+0x104>
10001b42:	2380      	movs	r3, #128	; 0x80
10001b44:	2180      	movs	r1, #128	; 0x80
10001b46:	019b      	lsls	r3, r3, #6
10001b48:	4303      	orrs	r3, r0
10001b4a:	0109      	lsls	r1, r1, #4
10001b4c:	6019      	str	r1, [r3, #0]
10001b4e:	2180      	movs	r1, #128	; 0x80
10001b50:	4b61      	ldr	r3, [pc, #388]	; (10001cd8 <clocks_init+0x2a0>)
10001b52:	0049      	lsls	r1, r1, #1
10001b54:	6051      	str	r1, [r2, #4]
10001b56:	6163      	str	r3, [r4, #20]
10001b58:	4b60      	ldr	r3, [pc, #384]	; (10001cdc <clocks_init+0x2a4>)
10001b5a:	685a      	ldr	r2, [r3, #4]
10001b5c:	2aff      	cmp	r2, #255	; 0xff
10001b5e:	d800      	bhi.n	10001b62 <clocks_init+0x12a>
10001b60:	6059      	str	r1, [r3, #4]
10001b62:	2280      	movs	r2, #128	; 0x80
10001b64:	4b5e      	ldr	r3, [pc, #376]	; (10001ce0 <clocks_init+0x2a8>)
10001b66:	69e1      	ldr	r1, [r4, #28]
10001b68:	0112      	lsls	r2, r2, #4
10001b6a:	4d5c      	ldr	r5, [pc, #368]	; (10001cdc <clocks_init+0x2a4>)
10001b6c:	601a      	str	r2, [r3, #0]
10001b6e:	2900      	cmp	r1, #0
10001b70:	d005      	beq.n	10001b7e <clocks_init+0x146>
10001b72:	6960      	ldr	r0, [r4, #20]
10001b74:	f000 fb3a 	bl	100021ec <__wrap___aeabi_uidiv>
10001b78:	3001      	adds	r0, #1
10001b7a:	3801      	subs	r0, #1
10001b7c:	d1fd      	bne.n	10001b7a <clocks_init+0x142>
10001b7e:	22e0      	movs	r2, #224	; 0xe0
10001b80:	4956      	ldr	r1, [pc, #344]	; (10001cdc <clocks_init+0x2a4>)
10001b82:	680b      	ldr	r3, [r1, #0]
10001b84:	401a      	ands	r2, r3
10001b86:	2380      	movs	r3, #128	; 0x80
10001b88:	015b      	lsls	r3, r3, #5
10001b8a:	432b      	orrs	r3, r5
10001b8c:	601a      	str	r2, [r3, #0]
10001b8e:	2380      	movs	r3, #128	; 0x80
10001b90:	2280      	movs	r2, #128	; 0x80
10001b92:	019b      	lsls	r3, r3, #6
10001b94:	432b      	orrs	r3, r5
10001b96:	0112      	lsls	r2, r2, #4
10001b98:	601a      	str	r2, [r3, #0]
10001b9a:	2280      	movs	r2, #128	; 0x80
10001b9c:	4b42      	ldr	r3, [pc, #264]	; (10001ca8 <clocks_init+0x270>)
10001b9e:	0052      	lsls	r2, r2, #1
10001ba0:	604a      	str	r2, [r1, #4]
10001ba2:	61e3      	str	r3, [r4, #28]
10001ba4:	4b4f      	ldr	r3, [pc, #316]	; (10001ce4 <clocks_init+0x2ac>)
10001ba6:	6859      	ldr	r1, [r3, #4]
10001ba8:	29ff      	cmp	r1, #255	; 0xff
10001baa:	d800      	bhi.n	10001bae <clocks_init+0x176>
10001bac:	605a      	str	r2, [r3, #4]
10001bae:	2280      	movs	r2, #128	; 0x80
10001bb0:	4b4d      	ldr	r3, [pc, #308]	; (10001ce8 <clocks_init+0x2b0>)
10001bb2:	6a21      	ldr	r1, [r4, #32]
10001bb4:	0112      	lsls	r2, r2, #4
10001bb6:	4d4b      	ldr	r5, [pc, #300]	; (10001ce4 <clocks_init+0x2ac>)
10001bb8:	601a      	str	r2, [r3, #0]
10001bba:	2900      	cmp	r1, #0
10001bbc:	d005      	beq.n	10001bca <clocks_init+0x192>
10001bbe:	6960      	ldr	r0, [r4, #20]
10001bc0:	f000 fb14 	bl	100021ec <__wrap___aeabi_uidiv>
10001bc4:	3001      	adds	r0, #1
10001bc6:	3801      	subs	r0, #1
10001bc8:	d1fd      	bne.n	10001bc6 <clocks_init+0x18e>
10001bca:	22e0      	movs	r2, #224	; 0xe0
10001bcc:	4945      	ldr	r1, [pc, #276]	; (10001ce4 <clocks_init+0x2ac>)
10001bce:	680b      	ldr	r3, [r1, #0]
10001bd0:	401a      	ands	r2, r3
10001bd2:	2380      	movs	r3, #128	; 0x80
10001bd4:	015b      	lsls	r3, r3, #5
10001bd6:	432b      	orrs	r3, r5
10001bd8:	601a      	str	r2, [r3, #0]
10001bda:	2380      	movs	r3, #128	; 0x80
10001bdc:	2280      	movs	r2, #128	; 0x80
10001bde:	019b      	lsls	r3, r3, #6
10001be0:	432b      	orrs	r3, r5
10001be2:	0112      	lsls	r2, r2, #4
10001be4:	601a      	str	r2, [r3, #0]
10001be6:	2380      	movs	r3, #128	; 0x80
10001be8:	005b      	lsls	r3, r3, #1
10001bea:	604b      	str	r3, [r1, #4]
10001bec:	4b2e      	ldr	r3, [pc, #184]	; (10001ca8 <clocks_init+0x270>)
10001bee:	4a3f      	ldr	r2, [pc, #252]	; (10001cec <clocks_init+0x2b4>)
10001bf0:	6223      	str	r3, [r4, #32]
10001bf2:	4b3f      	ldr	r3, [pc, #252]	; (10001cf0 <clocks_init+0x2b8>)
10001bf4:	6859      	ldr	r1, [r3, #4]
10001bf6:	4291      	cmp	r1, r2
10001bf8:	d801      	bhi.n	10001bfe <clocks_init+0x1c6>
10001bfa:	3201      	adds	r2, #1
10001bfc:	605a      	str	r2, [r3, #4]
10001bfe:	2280      	movs	r2, #128	; 0x80
10001c00:	4b3c      	ldr	r3, [pc, #240]	; (10001cf4 <clocks_init+0x2bc>)
10001c02:	6a61      	ldr	r1, [r4, #36]	; 0x24
10001c04:	0112      	lsls	r2, r2, #4
10001c06:	4d3a      	ldr	r5, [pc, #232]	; (10001cf0 <clocks_init+0x2b8>)
10001c08:	601a      	str	r2, [r3, #0]
10001c0a:	2900      	cmp	r1, #0
10001c0c:	d005      	beq.n	10001c1a <clocks_init+0x1e2>
10001c0e:	6960      	ldr	r0, [r4, #20]
10001c10:	f000 faec 	bl	100021ec <__wrap___aeabi_uidiv>
10001c14:	3001      	adds	r0, #1
10001c16:	3801      	subs	r0, #1
10001c18:	d1fd      	bne.n	10001c16 <clocks_init+0x1de>
10001c1a:	22e0      	movs	r2, #224	; 0xe0
10001c1c:	4934      	ldr	r1, [pc, #208]	; (10001cf0 <clocks_init+0x2b8>)
10001c1e:	680b      	ldr	r3, [r1, #0]
10001c20:	401a      	ands	r2, r3
10001c22:	2380      	movs	r3, #128	; 0x80
10001c24:	015b      	lsls	r3, r3, #5
10001c26:	432b      	orrs	r3, r5
10001c28:	601a      	str	r2, [r3, #0]
10001c2a:	2380      	movs	r3, #128	; 0x80
10001c2c:	2280      	movs	r2, #128	; 0x80
10001c2e:	019b      	lsls	r3, r3, #6
10001c30:	432b      	orrs	r3, r5
10001c32:	0112      	lsls	r2, r2, #4
10001c34:	601a      	str	r2, [r3, #0]
10001c36:	2380      	movs	r3, #128	; 0x80
10001c38:	02db      	lsls	r3, r3, #11
10001c3a:	604b      	str	r3, [r1, #4]
10001c3c:	4b1b      	ldr	r3, [pc, #108]	; (10001cac <clocks_init+0x274>)
10001c3e:	6263      	str	r3, [r4, #36]	; 0x24
10001c40:	4b2d      	ldr	r3, [pc, #180]	; (10001cf8 <clocks_init+0x2c0>)
10001c42:	685a      	ldr	r2, [r3, #4]
10001c44:	2aff      	cmp	r2, #255	; 0xff
10001c46:	d802      	bhi.n	10001c4e <clocks_init+0x216>
10001c48:	2280      	movs	r2, #128	; 0x80
10001c4a:	0052      	lsls	r2, r2, #1
10001c4c:	605a      	str	r2, [r3, #4]
10001c4e:	2280      	movs	r2, #128	; 0x80
10001c50:	4b2a      	ldr	r3, [pc, #168]	; (10001cfc <clocks_init+0x2c4>)
10001c52:	69a1      	ldr	r1, [r4, #24]
10001c54:	0112      	lsls	r2, r2, #4
10001c56:	4d28      	ldr	r5, [pc, #160]	; (10001cf8 <clocks_init+0x2c0>)
10001c58:	601a      	str	r2, [r3, #0]
10001c5a:	2900      	cmp	r1, #0
10001c5c:	d005      	beq.n	10001c6a <clocks_init+0x232>
10001c5e:	6960      	ldr	r0, [r4, #20]
10001c60:	f000 fac4 	bl	100021ec <__wrap___aeabi_uidiv>
10001c64:	3001      	adds	r0, #1
10001c66:	3801      	subs	r0, #1
10001c68:	d1fd      	bne.n	10001c66 <clocks_init+0x22e>
10001c6a:	22e0      	movs	r2, #224	; 0xe0
10001c6c:	4922      	ldr	r1, [pc, #136]	; (10001cf8 <clocks_init+0x2c0>)
10001c6e:	680b      	ldr	r3, [r1, #0]
10001c70:	401a      	ands	r2, r3
10001c72:	2380      	movs	r3, #128	; 0x80
10001c74:	015b      	lsls	r3, r3, #5
10001c76:	432b      	orrs	r3, r5
10001c78:	601a      	str	r2, [r3, #0]
10001c7a:	2380      	movs	r3, #128	; 0x80
10001c7c:	2280      	movs	r2, #128	; 0x80
10001c7e:	019b      	lsls	r3, r3, #6
10001c80:	432b      	orrs	r3, r5
10001c82:	0112      	lsls	r2, r2, #4
10001c84:	601a      	str	r2, [r3, #0]
10001c86:	2380      	movs	r3, #128	; 0x80
10001c88:	005b      	lsls	r3, r3, #1
10001c8a:	604b      	str	r3, [r1, #4]
10001c8c:	4b12      	ldr	r3, [pc, #72]	; (10001cd8 <clocks_init+0x2a0>)
10001c8e:	61a3      	str	r3, [r4, #24]
10001c90:	e6e8      	b.n	10001a64 <clocks_init+0x2c>
10001c92:	605a      	str	r2, [r3, #4]
10001c94:	e73b      	b.n	10001b0e <clocks_init+0xd6>
10001c96:	6960      	ldr	r0, [r4, #20]
10001c98:	f000 faa8 	bl	100021ec <__wrap___aeabi_uidiv>
10001c9c:	3001      	adds	r0, #1
10001c9e:	3801      	subs	r0, #1
10001ca0:	d1fd      	bne.n	10001c9e <clocks_init+0x266>
10001ca2:	e712      	b.n	10001aca <clocks_init+0x92>
10001ca4:	200032c8 	.word	0x200032c8
10001ca8:	02dc6c00 	.word	0x02dc6c00
10001cac:	0000b71b 	.word	0x0000b71b
10001cb0:	40008000 	.word	0x40008000
10001cb4:	4000b03c 	.word	0x4000b03c
10001cb8:	4000b030 	.word	0x4000b030
10001cbc:	59682f00 	.word	0x59682f00
10001cc0:	40028000 	.word	0x40028000
10001cc4:	1c9c3800 	.word	0x1c9c3800
10001cc8:	4002c000 	.word	0x4002c000
10001ccc:	40008030 	.word	0x40008030
10001cd0:	00b71b00 	.word	0x00b71b00
10001cd4:	4000803c 	.word	0x4000803c
10001cd8:	07735940 	.word	0x07735940
10001cdc:	40008054 	.word	0x40008054
10001ce0:	4000b054 	.word	0x4000b054
10001ce4:	40008060 	.word	0x40008060
10001ce8:	4000b060 	.word	0x4000b060
10001cec:	0003ffff 	.word	0x0003ffff
10001cf0:	4000806c 	.word	0x4000806c
10001cf4:	4000b06c 	.word	0x4000b06c
10001cf8:	40008048 	.word	0x40008048
10001cfc:	4000b048 	.word	0x4000b048

10001d00 <clock_get_hz>:
10001d00:	4b01      	ldr	r3, [pc, #4]	; (10001d08 <clock_get_hz+0x8>)
10001d02:	0080      	lsls	r0, r0, #2
10001d04:	58c0      	ldr	r0, [r0, r3]
10001d06:	4770      	bx	lr
10001d08:	200032c8 	.word	0x200032c8

10001d0c <irq_set_enabled>:
10001d0c:	2301      	movs	r3, #1
10001d0e:	4083      	lsls	r3, r0
10001d10:	2900      	cmp	r1, #0
10001d12:	d102      	bne.n	10001d1a <irq_set_enabled+0xe>
10001d14:	4a03      	ldr	r2, [pc, #12]	; (10001d24 <irq_set_enabled+0x18>)
10001d16:	6013      	str	r3, [r2, #0]
10001d18:	4770      	bx	lr
10001d1a:	4a03      	ldr	r2, [pc, #12]	; (10001d28 <irq_set_enabled+0x1c>)
10001d1c:	6013      	str	r3, [r2, #0]
10001d1e:	4a03      	ldr	r2, [pc, #12]	; (10001d2c <irq_set_enabled+0x20>)
10001d20:	6013      	str	r3, [r2, #0]
10001d22:	e7f9      	b.n	10001d18 <irq_set_enabled+0xc>
10001d24:	e000e180 	.word	0xe000e180
10001d28:	e000e280 	.word	0xe000e280
10001d2c:	e000e100 	.word	0xe000e100

10001d30 <irq_get_vtable_handler>:
10001d30:	4b02      	ldr	r3, [pc, #8]	; (10001d3c <irq_get_vtable_handler+0xc>)
10001d32:	3010      	adds	r0, #16
10001d34:	689b      	ldr	r3, [r3, #8]
10001d36:	0080      	lsls	r0, r0, #2
10001d38:	58c0      	ldr	r0, [r0, r3]
10001d3a:	4770      	bx	lr
10001d3c:	e000ed00 	.word	0xe000ed00

10001d40 <irq_set_exclusive_handler>:
10001d40:	b570      	push	{r4, r5, r6, lr}
10001d42:	000d      	movs	r5, r1
10001d44:	f3ef 8610 	mrs	r6, PRIMASK
10001d48:	b672      	cpsid	i
10001d4a:	4a0f      	ldr	r2, [pc, #60]	; (10001d88 <irq_set_exclusive_handler+0x48>)
10001d4c:	6813      	ldr	r3, [r2, #0]
10001d4e:	2b00      	cmp	r3, #0
10001d50:	d0fc      	beq.n	10001d4c <irq_set_exclusive_handler+0xc>
10001d52:	f3bf 8f5f 	dmb	sy
10001d56:	4b0d      	ldr	r3, [pc, #52]	; (10001d8c <irq_set_exclusive_handler+0x4c>)
10001d58:	3010      	adds	r0, #16
10001d5a:	689b      	ldr	r3, [r3, #8]
10001d5c:	0084      	lsls	r4, r0, #2
10001d5e:	591b      	ldr	r3, [r3, r4]
10001d60:	4a0b      	ldr	r2, [pc, #44]	; (10001d90 <irq_set_exclusive_handler+0x50>)
10001d62:	4293      	cmp	r3, r2
10001d64:	d003      	beq.n	10001d6e <irq_set_exclusive_handler+0x2e>
10001d66:	429d      	cmp	r5, r3
10001d68:	d001      	beq.n	10001d6e <irq_set_exclusive_handler+0x2e>
10001d6a:	f7ff fe5f 	bl	10001a2c <hard_assertion_failure>
10001d6e:	4b07      	ldr	r3, [pc, #28]	; (10001d8c <irq_set_exclusive_handler+0x4c>)
10001d70:	689b      	ldr	r3, [r3, #8]
10001d72:	511d      	str	r5, [r3, r4]
10001d74:	f3bf 8f5f 	dmb	sy
10001d78:	f3bf 8f5f 	dmb	sy
10001d7c:	2200      	movs	r2, #0
10001d7e:	4b02      	ldr	r3, [pc, #8]	; (10001d88 <irq_set_exclusive_handler+0x48>)
10001d80:	601a      	str	r2, [r3, #0]
10001d82:	f386 8810 	msr	PRIMASK, r6
10001d86:	bd70      	pop	{r4, r5, r6, pc}
10001d88:	d0000124 	.word	0xd0000124
10001d8c:	e000ed00 	.word	0xe000ed00
10001d90:	100001cd 	.word	0x100001cd

10001d94 <irq_remove_handler>:
10001d94:	b5f0      	push	{r4, r5, r6, r7, lr}
10001d96:	4645      	mov	r5, r8
10001d98:	46de      	mov	lr, fp
10001d9a:	4657      	mov	r7, sl
10001d9c:	464e      	mov	r6, r9
10001d9e:	b5e0      	push	{r5, r6, r7, lr}
10001da0:	000d      	movs	r5, r1
10001da2:	b083      	sub	sp, #12
10001da4:	f3ef 8b10 	mrs	fp, PRIMASK
10001da8:	b672      	cpsid	i
10001daa:	4a5c      	ldr	r2, [pc, #368]	; (10001f1c <irq_remove_handler+0x188>)
10001dac:	6813      	ldr	r3, [r2, #0]
10001dae:	2b00      	cmp	r3, #0
10001db0:	d0fc      	beq.n	10001dac <irq_remove_handler+0x18>
10001db2:	f3bf 8f5f 	dmb	sy
10001db6:	2210      	movs	r2, #16
10001db8:	4690      	mov	r8, r2
10001dba:	4480      	add	r8, r0
10001dbc:	4642      	mov	r2, r8
10001dbe:	4b58      	ldr	r3, [pc, #352]	; (10001f20 <irq_remove_handler+0x18c>)
10001dc0:	0097      	lsls	r7, r2, #2
10001dc2:	689b      	ldr	r3, [r3, #8]
10001dc4:	59de      	ldr	r6, [r3, r7]
10001dc6:	4b57      	ldr	r3, [pc, #348]	; (10001f24 <irq_remove_handler+0x190>)
10001dc8:	4699      	mov	r9, r3
10001dca:	429e      	cmp	r6, r3
10001dcc:	d006      	beq.n	10001ddc <irq_remove_handler+0x48>
10001dce:	42ae      	cmp	r6, r5
10001dd0:	d100      	bne.n	10001dd4 <irq_remove_handler+0x40>
10001dd2:	e07d      	b.n	10001ed0 <irq_remove_handler+0x13c>
10001dd4:	4c54      	ldr	r4, [pc, #336]	; (10001f28 <irq_remove_handler+0x194>)
10001dd6:	1b33      	subs	r3, r6, r4
10001dd8:	2b2f      	cmp	r3, #47	; 0x2f
10001dda:	d912      	bls.n	10001e02 <irq_remove_handler+0x6e>
10001ddc:	4b50      	ldr	r3, [pc, #320]	; (10001f20 <irq_remove_handler+0x18c>)
10001dde:	689b      	ldr	r3, [r3, #8]
10001de0:	51de      	str	r6, [r3, r7]
10001de2:	f3bf 8f5f 	dmb	sy
10001de6:	f3bf 8f5f 	dmb	sy
10001dea:	2200      	movs	r2, #0
10001dec:	4b4b      	ldr	r3, [pc, #300]	; (10001f1c <irq_remove_handler+0x188>)
10001dee:	601a      	str	r2, [r3, #0]
10001df0:	f38b 8810 	msr	PRIMASK, fp
10001df4:	b003      	add	sp, #12
10001df6:	bc3c      	pop	{r2, r3, r4, r5}
10001df8:	4690      	mov	r8, r2
10001dfa:	4699      	mov	r9, r3
10001dfc:	46a2      	mov	sl, r4
10001dfe:	46ab      	mov	fp, r5
10001e00:	bdf0      	pop	{r4, r5, r6, r7, pc}
10001e02:	2301      	movs	r3, #1
10001e04:	4083      	lsls	r3, r0
10001e06:	469a      	mov	sl, r3
10001e08:	4652      	mov	r2, sl
10001e0a:	4b48      	ldr	r3, [pc, #288]	; (10001f2c <irq_remove_handler+0x198>)
10001e0c:	681b      	ldr	r3, [r3, #0]
10001e0e:	401a      	ands	r2, r3
10001e10:	9200      	str	r2, [sp, #0]
10001e12:	4652      	mov	r2, sl
10001e14:	4b46      	ldr	r3, [pc, #280]	; (10001f30 <irq_remove_handler+0x19c>)
10001e16:	601a      	str	r2, [r3, #0]
10001e18:	f3bf 8f5f 	dmb	sy
10001e1c:	f7fe fa23 	bl	10000266 <__get_current_exception>
10001e20:	9001      	str	r0, [sp, #4]
10001e22:	2800      	cmp	r0, #0
10001e24:	d149      	bne.n	10001eba <irq_remove_handler+0x126>
10001e26:	2301      	movs	r3, #1
10001e28:	0032      	movs	r2, r6
10001e2a:	439a      	bics	r2, r3
10001e2c:	0013      	movs	r3, r2
10001e2e:	1b1b      	subs	r3, r3, r4
10001e30:	415b      	adcs	r3, r3
10001e32:	4946      	ldr	r1, [pc, #280]	; (10001f4c <irq_remove_handler+0x1b8>)
10001e34:	4359      	muls	r1, r3
10001e36:	0d09      	lsrs	r1, r1, #20
10001e38:	6893      	ldr	r3, [r2, #8]
10001e3a:	429d      	cmp	r5, r3
10001e3c:	d04d      	beq.n	10001eda <irq_remove_handler+0x146>
10001e3e:	2006      	movs	r0, #6
10001e40:	5610      	ldrsb	r0, [r2, r0]
10001e42:	2800      	cmp	r0, #0
10001e44:	da05      	bge.n	10001e52 <irq_remove_handler+0xbe>
10001e46:	e031      	b.n	10001eac <irq_remove_handler+0x118>
10001e48:	2006      	movs	r0, #6
10001e4a:	5618      	ldrsb	r0, [r3, r0]
10001e4c:	001a      	movs	r2, r3
10001e4e:	2800      	cmp	r0, #0
10001e50:	db2c      	blt.n	10001eac <irq_remove_handler+0x118>
10001e52:	0043      	lsls	r3, r0, #1
10001e54:	181b      	adds	r3, r3, r0
10001e56:	009b      	lsls	r3, r3, #2
10001e58:	18e3      	adds	r3, r4, r3
10001e5a:	6898      	ldr	r0, [r3, #8]
10001e5c:	4285      	cmp	r5, r0
10001e5e:	d1f3      	bne.n	10001e48 <irq_remove_handler+0xb4>
10001e60:	2006      	movs	r0, #6
10001e62:	5618      	ldrsb	r0, [r3, r0]
10001e64:	2800      	cmp	r0, #0
10001e66:	db3b      	blt.n	10001ee0 <irq_remove_handler+0x14c>
10001e68:	0042      	lsls	r2, r0, #1
10001e6a:	1811      	adds	r1, r2, r0
10001e6c:	0089      	lsls	r1, r1, #2
10001e6e:	1865      	adds	r5, r4, r1
10001e70:	4688      	mov	r8, r1
10001e72:	68a9      	ldr	r1, [r5, #8]
10001e74:	6099      	str	r1, [r3, #8]
10001e76:	79e9      	ldrb	r1, [r5, #7]
10001e78:	71d9      	strb	r1, [r3, #7]
10001e7a:	2106      	movs	r1, #6
10001e7c:	5669      	ldrsb	r1, [r5, r1]
10001e7e:	7199      	strb	r1, [r3, #6]
10001e80:	79a9      	ldrb	r1, [r5, #6]
10001e82:	297f      	cmp	r1, #127	; 0x7f
10001e84:	d826      	bhi.n	10001ed4 <irq_remove_handler+0x140>
10001e86:	88ad      	ldrh	r5, [r5, #4]
10001e88:	1ae1      	subs	r1, r4, r3
10001e8a:	056d      	lsls	r5, r5, #21
10001e8c:	152d      	asrs	r5, r5, #20
10001e8e:	4445      	add	r5, r8
10001e90:	1949      	adds	r1, r1, r5
10001e92:	25e0      	movs	r5, #224	; 0xe0
10001e94:	0509      	lsls	r1, r1, #20
10001e96:	0d49      	lsrs	r1, r1, #21
10001e98:	022d      	lsls	r5, r5, #8
10001e9a:	4329      	orrs	r1, r5
10001e9c:	8099      	strh	r1, [r3, #4]
10001e9e:	1812      	adds	r2, r2, r0
10001ea0:	4b24      	ldr	r3, [pc, #144]	; (10001f34 <irq_remove_handler+0x1a0>)
10001ea2:	0092      	lsls	r2, r2, #2
10001ea4:	18a4      	adds	r4, r4, r2
10001ea6:	781a      	ldrb	r2, [r3, #0]
10001ea8:	7018      	strb	r0, [r3, #0]
10001eaa:	71a2      	strb	r2, [r4, #6]
10001eac:	9b00      	ldr	r3, [sp, #0]
10001eae:	2b00      	cmp	r3, #0
10001eb0:	d108      	bne.n	10001ec4 <irq_remove_handler+0x130>
10001eb2:	4652      	mov	r2, sl
10001eb4:	4b1e      	ldr	r3, [pc, #120]	; (10001f30 <irq_remove_handler+0x19c>)
10001eb6:	601a      	str	r2, [r3, #0]
10001eb8:	e790      	b.n	10001ddc <irq_remove_handler+0x48>
10001eba:	4580      	cmp	r8, r0
10001ebc:	d0b3      	beq.n	10001e26 <irq_remove_handler+0x92>
10001ebe:	f7ff fdb5 	bl	10001a2c <hard_assertion_failure>
10001ec2:	e7b0      	b.n	10001e26 <irq_remove_handler+0x92>
10001ec4:	4652      	mov	r2, sl
10001ec6:	4b1c      	ldr	r3, [pc, #112]	; (10001f38 <irq_remove_handler+0x1a4>)
10001ec8:	601a      	str	r2, [r3, #0]
10001eca:	4b18      	ldr	r3, [pc, #96]	; (10001f2c <irq_remove_handler+0x198>)
10001ecc:	601a      	str	r2, [r3, #0]
10001ece:	e785      	b.n	10001ddc <irq_remove_handler+0x48>
10001ed0:	001e      	movs	r6, r3
10001ed2:	e783      	b.n	10001ddc <irq_remove_handler+0x48>
10001ed4:	21bd      	movs	r1, #189	; 0xbd
10001ed6:	0209      	lsls	r1, r1, #8
10001ed8:	e7e0      	b.n	10001e9c <irq_remove_handler+0x108>
10001eda:	0013      	movs	r3, r2
10001edc:	2200      	movs	r2, #0
10001ede:	e7bf      	b.n	10001e60 <irq_remove_handler+0xcc>
10001ee0:	9801      	ldr	r0, [sp, #4]
10001ee2:	2800      	cmp	r0, #0
10001ee4:	d10a      	bne.n	10001efc <irq_remove_handler+0x168>
10001ee6:	2a00      	cmp	r2, #0
10001ee8:	d015      	beq.n	10001f16 <irq_remove_handler+0x182>
10001eea:	30ff      	adds	r0, #255	; 0xff
10001eec:	7190      	strb	r0, [r2, #6]
10001eee:	4813      	ldr	r0, [pc, #76]	; (10001f3c <irq_remove_handler+0x1a8>)
10001ef0:	8090      	strh	r0, [r2, #4]
10001ef2:	4a10      	ldr	r2, [pc, #64]	; (10001f34 <irq_remove_handler+0x1a0>)
10001ef4:	7810      	ldrb	r0, [r2, #0]
10001ef6:	7011      	strb	r1, [r2, #0]
10001ef8:	7198      	strb	r0, [r3, #6]
10001efa:	e7d7      	b.n	10001eac <irq_remove_handler+0x118>
10001efc:	4a10      	ldr	r2, [pc, #64]	; (10001f40 <irq_remove_handler+0x1ac>)
10001efe:	4911      	ldr	r1, [pc, #68]	; (10001f44 <irq_remove_handler+0x1b0>)
10001f00:	1ad2      	subs	r2, r2, r3
10001f02:	3a08      	subs	r2, #8
10001f04:	0250      	lsls	r0, r2, #9
10001f06:	0d40      	lsrs	r0, r0, #21
10001f08:	4301      	orrs	r1, r0
10001f0a:	8099      	strh	r1, [r3, #4]
10001f0c:	490e      	ldr	r1, [pc, #56]	; (10001f48 <irq_remove_handler+0x1b4>)
10001f0e:	0852      	lsrs	r2, r2, #1
10001f10:	430a      	orrs	r2, r1
10001f12:	80da      	strh	r2, [r3, #6]
10001f14:	e7ca      	b.n	10001eac <irq_remove_handler+0x118>
10001f16:	464e      	mov	r6, r9
10001f18:	e7eb      	b.n	10001ef2 <irq_remove_handler+0x15e>
10001f1a:	46c0      	nop			; (mov r8, r8)
10001f1c:	d0000124 	.word	0xd0000124
10001f20:	e000ed00 	.word	0xe000ed00
10001f24:	100001cd 	.word	0x100001cd
10001f28:	200023b0 	.word	0x200023b0
10001f2c:	e000e100 	.word	0xe000e100
10001f30:	e000e180 	.word	0xe000e180
10001f34:	20003780 	.word	0x20003780
10001f38:	e000e280 	.word	0xe000e280
10001f3c:	ffffbd00 	.word	0xffffbd00
10001f40:	200023ea 	.word	0x200023ea
10001f44:	fffff000 	.word	0xfffff000
10001f48:	fffff800 	.word	0xfffff800
10001f4c:	0000aaaa 	.word	0x0000aaaa

10001f50 <irq_add_tail_to_free_list>:
10001f50:	b5f8      	push	{r3, r4, r5, r6, r7, lr}
10001f52:	2501      	movs	r5, #1
10001f54:	0004      	movs	r4, r0
10001f56:	4305      	orrs	r5, r0
10001f58:	f7fe f985 	bl	10000266 <__get_current_exception>
10001f5c:	f3ef 8610 	mrs	r6, PRIMASK
10001f60:	b672      	cpsid	i
10001f62:	4a21      	ldr	r2, [pc, #132]	; (10001fe8 <irq_add_tail_to_free_list+0x98>)
10001f64:	6813      	ldr	r3, [r2, #0]
10001f66:	2b00      	cmp	r3, #0
10001f68:	d0fc      	beq.n	10001f64 <irq_add_tail_to_free_list+0x14>
10001f6a:	f3bf 8f5f 	dmb	sy
10001f6e:	4a1f      	ldr	r2, [pc, #124]	; (10001fec <irq_add_tail_to_free_list+0x9c>)
10001f70:	0021      	movs	r1, r4
10001f72:	1a89      	subs	r1, r1, r2
10001f74:	4149      	adcs	r1, r1
10001f76:	4b22      	ldr	r3, [pc, #136]	; (10002000 <irq_add_tail_to_free_list+0xb0>)
10001f78:	434b      	muls	r3, r1
10001f7a:	0d1b      	lsrs	r3, r3, #20
10001f7c:	491c      	ldr	r1, [pc, #112]	; (10001ff0 <irq_add_tail_to_free_list+0xa0>)
10001f7e:	0080      	lsls	r0, r0, #2
10001f80:	688f      	ldr	r7, [r1, #8]
10001f82:	b25b      	sxtb	r3, r3
10001f84:	583f      	ldr	r7, [r7, r0]
10001f86:	42bd      	cmp	r5, r7
10001f88:	d026      	beq.n	10001fd8 <irq_add_tail_to_free_list+0x88>
10001f8a:	2106      	movs	r1, #6
10001f8c:	5651      	ldrsb	r1, [r2, r1]
10001f8e:	4299      	cmp	r1, r3
10001f90:	d026      	beq.n	10001fe0 <irq_add_tail_to_free_list+0x90>
10001f92:	2112      	movs	r1, #18
10001f94:	5651      	ldrsb	r1, [r2, r1]
10001f96:	4299      	cmp	r1, r3
10001f98:	d024      	beq.n	10001fe4 <irq_add_tail_to_free_list+0x94>
10001f9a:	211e      	movs	r1, #30
10001f9c:	5651      	ldrsb	r1, [r2, r1]
10001f9e:	4299      	cmp	r1, r3
10001fa0:	d010      	beq.n	10001fc4 <irq_add_tail_to_free_list+0x74>
10001fa2:	212a      	movs	r1, #42	; 0x2a
10001fa4:	5651      	ldrsb	r1, [r2, r1]
10001fa6:	2003      	movs	r0, #3
10001fa8:	4299      	cmp	r1, r3
10001faa:	d00c      	beq.n	10001fc6 <irq_add_tail_to_free_list+0x76>
10001fac:	4a11      	ldr	r2, [pc, #68]	; (10001ff4 <irq_add_tail_to_free_list+0xa4>)
10001fae:	7811      	ldrb	r1, [r2, #0]
10001fb0:	7013      	strb	r3, [r2, #0]
10001fb2:	71a1      	strb	r1, [r4, #6]
10001fb4:	f3bf 8f5f 	dmb	sy
10001fb8:	2200      	movs	r2, #0
10001fba:	4b0b      	ldr	r3, [pc, #44]	; (10001fe8 <irq_add_tail_to_free_list+0x98>)
10001fbc:	601a      	str	r2, [r3, #0]
10001fbe:	f386 8810 	msr	PRIMASK, r6
10001fc2:	bdf8      	pop	{r3, r4, r5, r6, r7, pc}
10001fc4:	2002      	movs	r0, #2
10001fc6:	0041      	lsls	r1, r0, #1
10001fc8:	1809      	adds	r1, r1, r0
10001fca:	0089      	lsls	r1, r1, #2
10001fcc:	1852      	adds	r2, r2, r1
10001fce:	21ff      	movs	r1, #255	; 0xff
10001fd0:	7191      	strb	r1, [r2, #6]
10001fd2:	4909      	ldr	r1, [pc, #36]	; (10001ff8 <irq_add_tail_to_free_list+0xa8>)
10001fd4:	8091      	strh	r1, [r2, #4]
10001fd6:	e7e9      	b.n	10001fac <irq_add_tail_to_free_list+0x5c>
10001fd8:	688a      	ldr	r2, [r1, #8]
10001fda:	4908      	ldr	r1, [pc, #32]	; (10001ffc <irq_add_tail_to_free_list+0xac>)
10001fdc:	5011      	str	r1, [r2, r0]
10001fde:	e7e5      	b.n	10001fac <irq_add_tail_to_free_list+0x5c>
10001fe0:	2000      	movs	r0, #0
10001fe2:	e7f0      	b.n	10001fc6 <irq_add_tail_to_free_list+0x76>
10001fe4:	2001      	movs	r0, #1
10001fe6:	e7ee      	b.n	10001fc6 <irq_add_tail_to_free_list+0x76>
10001fe8:	d0000124 	.word	0xd0000124
10001fec:	200023b0 	.word	0x200023b0
10001ff0:	e000ed00 	.word	0xe000ed00
10001ff4:	20003780 	.word	0x20003780
10001ff8:	ffffbd00 	.word	0xffffbd00
10001ffc:	100001cd 	.word	0x100001cd
10002000:	0000aaaa 	.word	0x0000aaaa

10002004 <irq_init_priorities>:
10002004:	b5f0      	push	{r4, r5, r6, r7, lr}
10002006:	2200      	movs	r2, #0
10002008:	2403      	movs	r4, #3
1000200a:	27ff      	movs	r7, #255	; 0xff
1000200c:	2680      	movs	r6, #128	; 0x80
1000200e:	0020      	movs	r0, r4
10002010:	003d      	movs	r5, r7
10002012:	4b09      	ldr	r3, [pc, #36]	; (10002038 <irq_init_priorities+0x34>)
10002014:	0011      	movs	r1, r2
10002016:	469c      	mov	ip, r3
10002018:	4010      	ands	r0, r2
1000201a:	00c0      	lsls	r0, r0, #3
1000201c:	4085      	lsls	r5, r0
1000201e:	43a1      	bics	r1, r4
10002020:	4461      	add	r1, ip
10002022:	680b      	ldr	r3, [r1, #0]
10002024:	3201      	adds	r2, #1
10002026:	43ab      	bics	r3, r5
10002028:	0035      	movs	r5, r6
1000202a:	4085      	lsls	r5, r0
1000202c:	432b      	orrs	r3, r5
1000202e:	600b      	str	r3, [r1, #0]
10002030:	2a20      	cmp	r2, #32
10002032:	d1ec      	bne.n	1000200e <irq_init_priorities+0xa>
10002034:	bdf0      	pop	{r4, r5, r6, r7, pc}
10002036:	46c0      	nop			; (mov r8, r8)
10002038:	e000e400 	.word	0xe000e400

1000203c <pll_init>:
1000203c:	b5f8      	push	{r3, r4, r5, r6, r7, lr}
1000203e:	0004      	movs	r4, r0
10002040:	200c      	movs	r0, #12
10002042:	0017      	movs	r7, r2
10002044:	001d      	movs	r5, r3
10002046:	000e      	movs	r6, r1
10002048:	f000 f8d0 	bl	100021ec <__wrap___aeabi_uidiv>
1000204c:	491c      	ldr	r1, [pc, #112]	; (100020c0 <pll_init+0x84>)
1000204e:	4341      	muls	r1, r0
10002050:	0038      	movs	r0, r7
10002052:	f000 f8cb 	bl	100021ec <__wrap___aeabi_uidiv>
10002056:	9a06      	ldr	r2, [sp, #24]
10002058:	042b      	lsls	r3, r5, #16
1000205a:	0312      	lsls	r2, r2, #12
1000205c:	4313      	orrs	r3, r2
1000205e:	6822      	ldr	r2, [r4, #0]
10002060:	2a00      	cmp	r2, #0
10002062:	db1c      	blt.n	1000209e <pll_init+0x62>
10002064:	4a17      	ldr	r2, [pc, #92]	; (100020c4 <pll_init+0x88>)
10002066:	2180      	movs	r1, #128	; 0x80
10002068:	4294      	cmp	r4, r2
1000206a:	d026      	beq.n	100020ba <pll_init+0x7e>
1000206c:	0149      	lsls	r1, r1, #5
1000206e:	4a16      	ldr	r2, [pc, #88]	; (100020c8 <pll_init+0x8c>)
10002070:	4d16      	ldr	r5, [pc, #88]	; (100020cc <pll_init+0x90>)
10002072:	6011      	str	r1, [r2, #0]
10002074:	4a16      	ldr	r2, [pc, #88]	; (100020d0 <pll_init+0x94>)
10002076:	6011      	str	r1, [r2, #0]
10002078:	000f      	movs	r7, r1
1000207a:	68aa      	ldr	r2, [r5, #8]
1000207c:	4397      	bics	r7, r2
1000207e:	d1fb      	bne.n	10002078 <pll_init+0x3c>
10002080:	21c0      	movs	r1, #192	; 0xc0
10002082:	1d22      	adds	r2, r4, #4
10002084:	0189      	lsls	r1, r1, #6
10002086:	4311      	orrs	r1, r2
10002088:	2221      	movs	r2, #33	; 0x21
1000208a:	6026      	str	r6, [r4, #0]
1000208c:	60a0      	str	r0, [r4, #8]
1000208e:	600a      	str	r2, [r1, #0]
10002090:	6822      	ldr	r2, [r4, #0]
10002092:	2a00      	cmp	r2, #0
10002094:	dafc      	bge.n	10002090 <pll_init+0x54>
10002096:	60e3      	str	r3, [r4, #12]
10002098:	2308      	movs	r3, #8
1000209a:	600b      	str	r3, [r1, #0]
1000209c:	bdf8      	pop	{r3, r4, r5, r6, r7, pc}
1000209e:	223f      	movs	r2, #63	; 0x3f
100020a0:	6821      	ldr	r1, [r4, #0]
100020a2:	400a      	ands	r2, r1
100020a4:	4296      	cmp	r6, r2
100020a6:	d1dd      	bne.n	10002064 <pll_init+0x28>
100020a8:	68a2      	ldr	r2, [r4, #8]
100020aa:	0512      	lsls	r2, r2, #20
100020ac:	0d12      	lsrs	r2, r2, #20
100020ae:	4290      	cmp	r0, r2
100020b0:	d1d8      	bne.n	10002064 <pll_init+0x28>
100020b2:	68e2      	ldr	r2, [r4, #12]
100020b4:	2b00      	cmp	r3, #0
100020b6:	d1d5      	bne.n	10002064 <pll_init+0x28>
100020b8:	e7f0      	b.n	1000209c <pll_init+0x60>
100020ba:	0189      	lsls	r1, r1, #6
100020bc:	e7d7      	b.n	1000206e <pll_init+0x32>
100020be:	46c0      	nop			; (mov r8, r8)
100020c0:	000f4240 	.word	0x000f4240
100020c4:	4002c000 	.word	0x4002c000
100020c8:	4000e000 	.word	0x4000e000
100020cc:	4000c000 	.word	0x4000c000
100020d0:	4000f000 	.word	0x4000f000

100020d4 <watchdog_start_tick>:
100020d4:	2380      	movs	r3, #128	; 0x80
100020d6:	009b      	lsls	r3, r3, #2
100020d8:	4318      	orrs	r0, r3
100020da:	4b01      	ldr	r3, [pc, #4]	; (100020e0 <watchdog_start_tick+0xc>)
100020dc:	62d8      	str	r0, [r3, #44]	; 0x2c
100020de:	4770      	bx	lr
100020e0:	40058000 	.word	0x40058000

100020e4 <xosc_init>:
100020e4:	23aa      	movs	r3, #170	; 0xaa
100020e6:	4a06      	ldr	r2, [pc, #24]	; (10002100 <xosc_init+0x1c>)
100020e8:	011b      	lsls	r3, r3, #4
100020ea:	6013      	str	r3, [r2, #0]
100020ec:	232f      	movs	r3, #47	; 0x2f
100020ee:	4905      	ldr	r1, [pc, #20]	; (10002104 <xosc_init+0x20>)
100020f0:	60d3      	str	r3, [r2, #12]
100020f2:	4b05      	ldr	r3, [pc, #20]	; (10002108 <xosc_init+0x24>)
100020f4:	6019      	str	r1, [r3, #0]
100020f6:	6853      	ldr	r3, [r2, #4]
100020f8:	2b00      	cmp	r3, #0
100020fa:	dafc      	bge.n	100020f6 <xosc_init+0x12>
100020fc:	4770      	bx	lr
100020fe:	46c0      	nop			; (mov r8, r8)
10002100:	40024000 	.word	0x40024000
10002104:	00fab000 	.word	0x00fab000
10002108:	40026000 	.word	0x40026000

1000210c <_out_char>:
1000210c:	b510      	push	{r4, lr}
1000210e:	2800      	cmp	r0, #0
10002110:	d100      	bne.n	10002114 <_out_char+0x8>
10002112:	bd10      	pop	{r4, pc}
10002114:	4b0b      	ldr	r3, [pc, #44]	; (10002144 <_out_char+0x38>)
10002116:	681c      	ldr	r4, [r3, #0]
10002118:	68a2      	ldr	r2, [r4, #8]
1000211a:	6893      	ldr	r3, [r2, #8]
1000211c:	3b01      	subs	r3, #1
1000211e:	6093      	str	r3, [r2, #8]
10002120:	2b00      	cmp	r3, #0
10002122:	db04      	blt.n	1000212e <_out_char+0x22>
10002124:	6813      	ldr	r3, [r2, #0]
10002126:	1c59      	adds	r1, r3, #1
10002128:	6011      	str	r1, [r2, #0]
1000212a:	7018      	strb	r0, [r3, #0]
1000212c:	e7f1      	b.n	10002112 <_out_char+0x6>
1000212e:	6991      	ldr	r1, [r2, #24]
10002130:	428b      	cmp	r3, r1
10002132:	db01      	blt.n	10002138 <_out_char+0x2c>
10002134:	280a      	cmp	r0, #10
10002136:	d1f5      	bne.n	10002124 <_out_char+0x18>
10002138:	0001      	movs	r1, r0
1000213a:	0020      	movs	r0, r4
1000213c:	f003 fed2 	bl	10005ee4 <__swbuf_r>
10002140:	e7e7      	b.n	10002112 <_out_char+0x6>
10002142:	46c0      	nop			; (mov r8, r8)
10002144:	20002460 	.word	0x20002460

10002148 <weak_raw_vprintf>:
10002148:	b510      	push	{r4, lr}
1000214a:	4a09      	ldr	r2, [pc, #36]	; (10002170 <weak_raw_vprintf+0x28>)
1000214c:	b084      	sub	sp, #16
1000214e:	6814      	ldr	r4, [r2, #0]
10002150:	2c00      	cmp	r4, #0
10002152:	d009      	beq.n	10002168 <weak_raw_vprintf+0x20>
10002154:	2201      	movs	r2, #1
10002156:	9100      	str	r1, [sp, #0]
10002158:	0003      	movs	r3, r0
1000215a:	4252      	negs	r2, r2
1000215c:	a903      	add	r1, sp, #12
1000215e:	4805      	ldr	r0, [pc, #20]	; (10002174 <weak_raw_vprintf+0x2c>)
10002160:	47a0      	blx	r4
10002162:	2001      	movs	r0, #1
10002164:	b004      	add	sp, #16
10002166:	bd10      	pop	{r4, pc}
10002168:	f000 fb90 	bl	1000288c <__wrap_puts>
1000216c:	2000      	movs	r0, #0
1000216e:	e7f9      	b.n	10002164 <weak_raw_vprintf+0x1c>
10002170:	20003740 	.word	0x20003740
10002174:	1000210d 	.word	0x1000210d

10002178 <__aeabi_bits_init>:
10002178:	4801      	ldr	r0, [pc, #4]	; (10002180 <__aeabi_bits_init+0x8>)
1000217a:	2104      	movs	r1, #4
1000217c:	4b01      	ldr	r3, [pc, #4]	; (10002184 <__aeabi_bits_init+0xc>)
1000217e:	4718      	bx	r3
10002180:	20002400 	.word	0x20002400
10002184:	100021a9 	.word	0x100021a9

10002188 <rom_func_lookup>:
10002188:	2314      	movs	r3, #20
1000218a:	b510      	push	{r4, lr}
1000218c:	0001      	movs	r1, r0
1000218e:	8818      	ldrh	r0, [r3, #0]
10002190:	3304      	adds	r3, #4
10002192:	881b      	ldrh	r3, [r3, #0]
10002194:	4798      	blx	r3
10002196:	bd10      	pop	{r4, pc}

10002198 <rom_data_lookup>:
10002198:	2316      	movs	r3, #22
1000219a:	b510      	push	{r4, lr}
1000219c:	0001      	movs	r1, r0
1000219e:	8818      	ldrh	r0, [r3, #0]
100021a0:	3302      	adds	r3, #2
100021a2:	881b      	ldrh	r3, [r3, #0]
100021a4:	4798      	blx	r3
100021a6:	bd10      	pop	{r4, pc}

100021a8 <rom_funcs_lookup>:
100021a8:	b5f8      	push	{r3, r4, r5, r6, r7, lr}
100021aa:	4647      	mov	r7, r8
100021ac:	46ce      	mov	lr, r9
100021ae:	b580      	push	{r7, lr}
100021b0:	1e0f      	subs	r7, r1, #0
100021b2:	d019      	beq.n	100021e8 <rom_funcs_lookup+0x40>
100021b4:	2314      	movs	r3, #20
100021b6:	4699      	mov	r9, r3
100021b8:	3304      	adds	r3, #4
100021ba:	0004      	movs	r4, r0
100021bc:	2500      	movs	r5, #0
100021be:	2601      	movs	r6, #1
100021c0:	4698      	mov	r8, r3
100021c2:	464b      	mov	r3, r9
100021c4:	8818      	ldrh	r0, [r3, #0]
100021c6:	4643      	mov	r3, r8
100021c8:	6821      	ldr	r1, [r4, #0]
100021ca:	881b      	ldrh	r3, [r3, #0]
100021cc:	4798      	blx	r3
100021ce:	c401      	stmia	r4!, {r0}
100021d0:	1e43      	subs	r3, r0, #1
100021d2:	4198      	sbcs	r0, r3
100021d4:	3501      	adds	r5, #1
100021d6:	4240      	negs	r0, r0
100021d8:	4006      	ands	r6, r0
100021da:	42af      	cmp	r7, r5
100021dc:	d1f1      	bne.n	100021c2 <rom_funcs_lookup+0x1a>
100021de:	0030      	movs	r0, r6
100021e0:	bc0c      	pop	{r2, r3}
100021e2:	4690      	mov	r8, r2
100021e4:	4699      	mov	r9, r3
100021e6:	bdf8      	pop	{r3, r4, r5, r6, r7, pc}
100021e8:	2601      	movs	r6, #1
100021ea:	e7f8      	b.n	100021de <rom_funcs_lookup+0x36>

100021ec <__wrap___aeabi_uidiv>:
100021ec:	4a11      	ldr	r2, [pc, #68]	; (10002234 <divmod_u32u32_savestate+0x18>)
100021ee:	6f93      	ldr	r3, [r2, #120]	; 0x78
100021f0:	089b      	lsrs	r3, r3, #2
100021f2:	d213      	bcs.n	1000221c <divmod_u32u32_savestate>

100021f4 <divmod_u32u32_unsafe>:
100021f4:	6610      	str	r0, [r2, #96]	; 0x60
100021f6:	6651      	str	r1, [r2, #100]	; 0x64
100021f8:	2900      	cmp	r1, #0
100021fa:	d005      	beq.n	10002208 <divmod_u32u32_unsafe+0x14>
100021fc:	e7ff      	b.n	100021fe <divmod_u32u32_unsafe+0xa>
100021fe:	e7ff      	b.n	10002200 <divmod_u32u32_unsafe+0xc>
10002200:	e7ff      	b.n	10002202 <divmod_u32u32_unsafe+0xe>
10002202:	6f51      	ldr	r1, [r2, #116]	; 0x74
10002204:	6f10      	ldr	r0, [r2, #112]	; 0x70
10002206:	4770      	bx	lr
10002208:	b504      	push	{r2, lr}
1000220a:	2800      	cmp	r0, #0
1000220c:	d001      	beq.n	10002212 <divmod_u32u32_unsafe+0x1e>
1000220e:	2000      	movs	r0, #0
10002210:	43c0      	mvns	r0, r0
10002212:	f004 fc55 	bl	10006ac0 <____aeabi_idiv0_veneer>
10002216:	2100      	movs	r1, #0
10002218:	bd04      	pop	{r2, pc}
1000221a:	46c0      	nop			; (mov r8, r8)

1000221c <divmod_u32u32_savestate>:
1000221c:	b5f0      	push	{r4, r5, r6, r7, lr}
1000221e:	6e14      	ldr	r4, [r2, #96]	; 0x60
10002220:	6e55      	ldr	r5, [r2, #100]	; 0x64
10002222:	6f57      	ldr	r7, [r2, #116]	; 0x74
10002224:	6f16      	ldr	r6, [r2, #112]	; 0x70
10002226:	f7ff ffe5 	bl	100021f4 <divmod_u32u32_unsafe>
1000222a:	6614      	str	r4, [r2, #96]	; 0x60
1000222c:	6655      	str	r5, [r2, #100]	; 0x64
1000222e:	6757      	str	r7, [r2, #116]	; 0x74
10002230:	6716      	str	r6, [r2, #112]	; 0x70
10002232:	bdf0      	pop	{r4, r5, r6, r7, pc}
10002234:	d0000000 	.word	0xd0000000

10002238 <__wrap___aeabi_ldivmod>:
10002238:	4694      	mov	ip, r2
1000223a:	4a4e      	ldr	r2, [pc, #312]	; (10002374 <udiv0+0x1a>)
1000223c:	6f92      	ldr	r2, [r2, #120]	; 0x78
1000223e:	0892      	lsrs	r2, r2, #2
10002240:	4662      	mov	r2, ip
10002242:	d201      	bcs.n	10002248 <divmod_s64s64_savestate>
10002244:	e030      	b.n	100022a8 <divmod_s64s64_unsafe>
10002246:	46c0      	nop			; (mov r8, r8)

10002248 <divmod_s64s64_savestate>:
10002248:	b5f0      	push	{r4, r5, r6, r7, lr}
1000224a:	4e4a      	ldr	r6, [pc, #296]	; (10002374 <udiv0+0x1a>)
1000224c:	6fb5      	ldr	r5, [r6, #120]	; 0x78
1000224e:	086d      	lsrs	r5, r5, #1
10002250:	d3fc      	bcc.n	1000224c <divmod_s64s64_savestate+0x4>
10002252:	6e34      	ldr	r4, [r6, #96]	; 0x60
10002254:	6e75      	ldr	r5, [r6, #100]	; 0x64
10002256:	6f77      	ldr	r7, [r6, #116]	; 0x74
10002258:	6f36      	ldr	r6, [r6, #112]	; 0x70
1000225a:	f000 f825 	bl	100022a8 <divmod_s64s64_unsafe>
1000225e:	4694      	mov	ip, r2
10002260:	4a44      	ldr	r2, [pc, #272]	; (10002374 <udiv0+0x1a>)
10002262:	6614      	str	r4, [r2, #96]	; 0x60
10002264:	6655      	str	r5, [r2, #100]	; 0x64
10002266:	6757      	str	r7, [r2, #116]	; 0x74
10002268:	6716      	str	r6, [r2, #112]	; 0x70
1000226a:	4662      	mov	r2, ip
1000226c:	bdf0      	pop	{r4, r5, r6, r7, pc}
1000226e:	46c0      	nop			; (mov r8, r8)

10002270 <__wrap___aeabi_uldivmod>:
10002270:	4694      	mov	ip, r2
10002272:	4a40      	ldr	r2, [pc, #256]	; (10002374 <udiv0+0x1a>)
10002274:	6f92      	ldr	r2, [r2, #120]	; 0x78
10002276:	0892      	lsrs	r2, r2, #2
10002278:	4662      	mov	r2, ip
1000227a:	d201      	bcs.n	10002280 <divmod_u64u64_savestate>
1000227c:	e058      	b.n	10002330 <divmod_u64u64_unsafe>
1000227e:	46c0      	nop			; (mov r8, r8)

10002280 <divmod_u64u64_savestate>:
10002280:	b5f0      	push	{r4, r5, r6, r7, lr}
10002282:	4e3c      	ldr	r6, [pc, #240]	; (10002374 <udiv0+0x1a>)
10002284:	6fb5      	ldr	r5, [r6, #120]	; 0x78
10002286:	086d      	lsrs	r5, r5, #1
10002288:	d3fc      	bcc.n	10002284 <divmod_u64u64_savestate+0x4>
1000228a:	6e34      	ldr	r4, [r6, #96]	; 0x60
1000228c:	6e75      	ldr	r5, [r6, #100]	; 0x64
1000228e:	6f77      	ldr	r7, [r6, #116]	; 0x74
10002290:	6f36      	ldr	r6, [r6, #112]	; 0x70
10002292:	f000 f84d 	bl	10002330 <divmod_u64u64_unsafe>
10002296:	4694      	mov	ip, r2
10002298:	4a36      	ldr	r2, [pc, #216]	; (10002374 <udiv0+0x1a>)
1000229a:	6614      	str	r4, [r2, #96]	; 0x60
1000229c:	6655      	str	r5, [r2, #100]	; 0x64
1000229e:	6757      	str	r7, [r2, #116]	; 0x74
100022a0:	6716      	str	r6, [r2, #112]	; 0x70
100022a2:	4662      	mov	r2, ip
100022a4:	bdf0      	pop	{r4, r5, r6, r7, pc}
100022a6:	46c0      	nop			; (mov r8, r8)

100022a8 <divmod_s64s64_unsafe>:
100022a8:	2b00      	cmp	r3, #0
100022aa:	db24      	blt.n	100022f6 <l41_1+0x26>
100022ac:	d011      	beq.n	100022d2 <l41_1+0x2>
100022ae:	2900      	cmp	r1, #0
100022b0:	da3e      	bge.n	10002330 <divmod_u64u64_unsafe>
100022b2:	b500      	push	{lr}
100022b4:	43c9      	mvns	r1, r1
100022b6:	4240      	negs	r0, r0
100022b8:	d100      	bne.n	100022bc <l39_1>
100022ba:	3101      	adds	r1, #1

100022bc <l39_1>:
100022bc:	f000 f838 	bl	10002330 <divmod_u64u64_unsafe>
100022c0:	43c9      	mvns	r1, r1
100022c2:	4240      	negs	r0, r0
100022c4:	d100      	bne.n	100022c8 <l40_1>
100022c6:	3101      	adds	r1, #1

100022c8 <l40_1>:
100022c8:	43db      	mvns	r3, r3
100022ca:	4252      	negs	r2, r2
100022cc:	d100      	bne.n	100022d0 <l41_1>
100022ce:	3301      	adds	r3, #1

100022d0 <l41_1>:
100022d0:	bd00      	pop	{pc}
100022d2:	2a00      	cmp	r2, #0
100022d4:	d1eb      	bne.n	100022ae <divmod_s64s64_unsafe+0x6>
100022d6:	2800      	cmp	r0, #0
100022d8:	d101      	bne.n	100022de <l41_1+0xe>
100022da:	2900      	cmp	r1, #0
100022dc:	d005      	beq.n	100022ea <l41_1+0x1a>
100022de:	2000      	movs	r0, #0
100022e0:	0fc9      	lsrs	r1, r1, #31
100022e2:	07c9      	lsls	r1, r1, #31
100022e4:	d101      	bne.n	100022ea <l41_1+0x1a>
100022e6:	43c0      	mvns	r0, r0
100022e8:	0841      	lsrs	r1, r0, #1
100022ea:	b500      	push	{lr}
100022ec:	f004 fbe0 	bl	10006ab0 <____aeabi_ldiv0_veneer>
100022f0:	2200      	movs	r2, #0
100022f2:	2300      	movs	r3, #0
100022f4:	bd00      	pop	{pc}
100022f6:	b500      	push	{lr}
100022f8:	2900      	cmp	r1, #0
100022fa:	db0a      	blt.n	10002312 <l43_1+0x2>
100022fc:	43db      	mvns	r3, r3
100022fe:	4252      	negs	r2, r2
10002300:	d100      	bne.n	10002304 <l42_1>
10002302:	3301      	adds	r3, #1

10002304 <l42_1>:
10002304:	f000 f814 	bl	10002330 <divmod_u64u64_unsafe>
10002308:	43c9      	mvns	r1, r1
1000230a:	4240      	negs	r0, r0
1000230c:	d100      	bne.n	10002310 <l43_1>
1000230e:	3101      	adds	r1, #1

10002310 <l43_1>:
10002310:	bd00      	pop	{pc}
10002312:	43c9      	mvns	r1, r1
10002314:	4240      	negs	r0, r0
10002316:	d100      	bne.n	1000231a <l44_1>
10002318:	3101      	adds	r1, #1

1000231a <l44_1>:
1000231a:	43db      	mvns	r3, r3
1000231c:	4252      	negs	r2, r2
1000231e:	d100      	bne.n	10002322 <l45_1>
10002320:	3301      	adds	r3, #1

10002322 <l45_1>:
10002322:	f000 f805 	bl	10002330 <divmod_u64u64_unsafe>
10002326:	43db      	mvns	r3, r3
10002328:	4252      	negs	r2, r2
1000232a:	d100      	bne.n	1000232e <l46_1>
1000232c:	3301      	adds	r3, #1

1000232e <l46_1>:
1000232e:	bd00      	pop	{pc}

10002330 <divmod_u64u64_unsafe>:
10002330:	2900      	cmp	r1, #0
10002332:	d123      	bne.n	1000237c <y64>
10002334:	2b00      	cmp	r3, #0
10002336:	d118      	bne.n	1000236a <udiv0+0x10>
10002338:	2a00      	cmp	r2, #0
1000233a:	d00c      	beq.n	10002356 <divmod_u64u64_unsafe+0x26>
1000233c:	46bc      	mov	ip, r7
1000233e:	4f0d      	ldr	r7, [pc, #52]	; (10002374 <udiv0+0x1a>)
10002340:	6638      	str	r0, [r7, #96]	; 0x60
10002342:	667a      	str	r2, [r7, #100]	; 0x64
10002344:	2100      	movs	r1, #0
10002346:	2300      	movs	r3, #0
10002348:	e7ff      	b.n	1000234a <divmod_u64u64_unsafe+0x1a>
1000234a:	e7ff      	b.n	1000234c <divmod_u64u64_unsafe+0x1c>
1000234c:	e7ff      	b.n	1000234e <divmod_u64u64_unsafe+0x1e>
1000234e:	6f7a      	ldr	r2, [r7, #116]	; 0x74
10002350:	6f38      	ldr	r0, [r7, #112]	; 0x70
10002352:	4667      	mov	r7, ip
10002354:	4770      	bx	lr
10002356:	2800      	cmp	r0, #0
10002358:	d001      	beq.n	1000235e <udiv0+0x4>

1000235a <udiv0>:
1000235a:	4807      	ldr	r0, [pc, #28]	; (10002378 <udiv0+0x1e>)
1000235c:	0001      	movs	r1, r0
1000235e:	b500      	push	{lr}
10002360:	f004 fba6 	bl	10006ab0 <____aeabi_ldiv0_veneer>
10002364:	2200      	movs	r2, #0
10002366:	2300      	movs	r3, #0
10002368:	bd00      	pop	{pc}
1000236a:	0002      	movs	r2, r0
1000236c:	000b      	movs	r3, r1
1000236e:	2000      	movs	r0, #0
10002370:	2100      	movs	r1, #0
10002372:	4770      	bx	lr
10002374:	d0000000 	.word	0xd0000000
10002378:	ffffffff 	.word	0xffffffff

1000237c <y64>:
1000237c:	2b00      	cmp	r3, #0
1000237e:	d000      	beq.n	10002382 <y64+0x6>
10002380:	e0bd      	b.n	100024fe <y64_x48>
10002382:	0c13      	lsrs	r3, r2, #16
10002384:	d126      	bne.n	100023d4 <y64_x32>
10002386:	2a00      	cmp	r2, #0
10002388:	d0e7      	beq.n	1000235a <udiv0>
1000238a:	b480      	push	{r7}
1000238c:	4f10      	ldr	r7, [pc, #64]	; (100023d0 <y64+0x54>)
1000238e:	6639      	str	r1, [r7, #96]	; 0x60
10002390:	667a      	str	r2, [r7, #100]	; 0x64
10002392:	e7ff      	b.n	10002394 <y64+0x18>
10002394:	e7ff      	b.n	10002396 <y64+0x1a>
10002396:	b430      	push	{r4, r5}
10002398:	0c04      	lsrs	r4, r0, #16
1000239a:	6f7b      	ldr	r3, [r7, #116]	; 0x74
1000239c:	6f39      	ldr	r1, [r7, #112]	; 0x70
1000239e:	041b      	lsls	r3, r3, #16
100023a0:	4323      	orrs	r3, r4
100023a2:	663b      	str	r3, [r7, #96]	; 0x60
100023a4:	e7ff      	b.n	100023a6 <y64+0x2a>
100023a6:	e7ff      	b.n	100023a8 <y64+0x2c>
100023a8:	e7ff      	b.n	100023aa <y64+0x2e>
100023aa:	46c0      	nop			; (mov r8, r8)
100023ac:	b284      	uxth	r4, r0
100023ae:	6f7b      	ldr	r3, [r7, #116]	; 0x74
100023b0:	6f3d      	ldr	r5, [r7, #112]	; 0x70
100023b2:	041b      	lsls	r3, r3, #16
100023b4:	4323      	orrs	r3, r4
100023b6:	663b      	str	r3, [r7, #96]	; 0x60
100023b8:	e7ff      	b.n	100023ba <y64+0x3e>
100023ba:	e7ff      	b.n	100023bc <y64+0x40>
100023bc:	46c0      	nop			; (mov r8, r8)
100023be:	2300      	movs	r3, #0
100023c0:	042c      	lsls	r4, r5, #16
100023c2:	0c2d      	lsrs	r5, r5, #16
100023c4:	6f7a      	ldr	r2, [r7, #116]	; 0x74
100023c6:	6f38      	ldr	r0, [r7, #112]	; 0x70
100023c8:	1900      	adds	r0, r0, r4
100023ca:	4169      	adcs	r1, r5
100023cc:	bcb0      	pop	{r4, r5, r7}
100023ce:	4770      	bx	lr
100023d0:	d0000000 	.word	0xd0000000

100023d4 <y64_x32>:
100023d4:	b5f0      	push	{r4, r5, r6, r7, lr}
100023d6:	4694      	mov	ip, r2
100023d8:	2500      	movs	r5, #0
100023da:	0e14      	lsrs	r4, r2, #24
100023dc:	d101      	bne.n	100023e2 <y64_x32+0xe>
100023de:	0212      	lsls	r2, r2, #8
100023e0:	3508      	adds	r5, #8
100023e2:	0f14      	lsrs	r4, r2, #28
100023e4:	d101      	bne.n	100023ea <y64_x32+0x16>
100023e6:	0112      	lsls	r2, r2, #4
100023e8:	3504      	adds	r5, #4
100023ea:	0f94      	lsrs	r4, r2, #30
100023ec:	d101      	bne.n	100023f2 <y64_x32+0x1e>
100023ee:	0092      	lsls	r2, r2, #2
100023f0:	3502      	adds	r5, #2
100023f2:	0fd4      	lsrs	r4, r2, #31
100023f4:	d101      	bne.n	100023fa <y64_x32+0x26>
100023f6:	0052      	lsls	r2, r2, #1
100023f8:	3501      	adds	r5, #1
100023fa:	0bd4      	lsrs	r4, r2, #15
100023fc:	3401      	adds	r4, #1
100023fe:	4f25      	ldr	r7, [pc, #148]	; (10002494 <y64_x32+0xc0>)
10002400:	667c      	str	r4, [r7, #100]	; 0x64
10002402:	4c25      	ldr	r4, [pc, #148]	; (10002498 <y64_x32+0xc4>)
10002404:	663c      	str	r4, [r7, #96]	; 0x60
10002406:	0c0e      	lsrs	r6, r1, #16
10002408:	b293      	uxth	r3, r2
1000240a:	e7ff      	b.n	1000240c <y64_x32+0x38>
1000240c:	e7ff      	b.n	1000240e <y64_x32+0x3a>
1000240e:	e7ff      	b.n	10002410 <y64_x32+0x3c>
10002410:	6f3c      	ldr	r4, [r7, #112]	; 0x70
10002412:	4366      	muls	r6, r4
10002414:	0c36      	lsrs	r6, r6, #16
10002416:	0377      	lsls	r7, r6, #13
10002418:	46be      	mov	lr, r7
1000241a:	4373      	muls	r3, r6
1000241c:	0bdf      	lsrs	r7, r3, #15
1000241e:	045b      	lsls	r3, r3, #17
10002420:	1ac0      	subs	r0, r0, r3
10002422:	41b9      	sbcs	r1, r7
10002424:	0c13      	lsrs	r3, r2, #16
10002426:	4373      	muls	r3, r6
10002428:	18db      	adds	r3, r3, r3
1000242a:	1ac9      	subs	r1, r1, r3
1000242c:	08ce      	lsrs	r6, r1, #3
1000242e:	4366      	muls	r6, r4
10002430:	0c36      	lsrs	r6, r6, #16
10002432:	44b6      	add	lr, r6
10002434:	b293      	uxth	r3, r2
10002436:	4373      	muls	r3, r6
10002438:	0f1f      	lsrs	r7, r3, #28
1000243a:	011b      	lsls	r3, r3, #4
1000243c:	1ac0      	subs	r0, r0, r3
1000243e:	41b9      	sbcs	r1, r7
10002440:	0c13      	lsrs	r3, r2, #16
10002442:	4373      	muls	r3, r6
10002444:	0b1f      	lsrs	r7, r3, #12
10002446:	051b      	lsls	r3, r3, #20
10002448:	1ac0      	subs	r0, r0, r3
1000244a:	41b9      	sbcs	r1, r7
1000244c:	0d86      	lsrs	r6, r0, #22
1000244e:	028f      	lsls	r7, r1, #10
10002450:	433e      	orrs	r6, r7
10002452:	4366      	muls	r6, r4
10002454:	0c36      	lsrs	r6, r6, #16
10002456:	2d09      	cmp	r5, #9
10002458:	db24      	blt.n	100024a4 <last0>
1000245a:	0a52      	lsrs	r2, r2, #9
1000245c:	4372      	muls	r2, r6
1000245e:	1a80      	subs	r0, r0, r2
10002460:	0377      	lsls	r7, r6, #13
10002462:	0a46      	lsrs	r6, r0, #9
10002464:	4366      	muls	r6, r4
10002466:	0c36      	lsrs	r6, r6, #16
10002468:	2316      	movs	r3, #22
1000246a:	1b5b      	subs	r3, r3, r5
1000246c:	40de      	lsrs	r6, r3
1000246e:	40df      	lsrs	r7, r3
10002470:	19bf      	adds	r7, r7, r6
10002472:	4664      	mov	r4, ip
10002474:	4366      	muls	r6, r4
10002476:	1b82      	subs	r2, r0, r6
10002478:	4670      	mov	r0, lr
1000247a:	3504      	adds	r5, #4
1000247c:	3306      	adds	r3, #6
1000247e:	0001      	movs	r1, r0
10002480:	40d9      	lsrs	r1, r3
10002482:	40a8      	lsls	r0, r5
10002484:	19c0      	adds	r0, r0, r7
10002486:	d300      	bcc.n	1000248a <y64_x32+0xb6>
10002488:	3101      	adds	r1, #1
1000248a:	42a2      	cmp	r2, r4
1000248c:	d206      	bcs.n	1000249c <y64_x32+0xc8>
1000248e:	2300      	movs	r3, #0
10002490:	bdf0      	pop	{r4, r5, r6, r7, pc}
10002492:	0000      	.short	0x0000
10002494:	d0000000 	.word	0xd0000000
10002498:	ffffffff 	.word	0xffffffff
1000249c:	1b12      	subs	r2, r2, r4
1000249e:	3001      	adds	r0, #1
100024a0:	d3f3      	bcc.n	1000248a <y64_x32+0xb6>
100024a2:	e7f1      	b.n	10002488 <y64_x32+0xb4>

100024a4 <last0>:
100024a4:	2709      	movs	r7, #9
100024a6:	1b7f      	subs	r7, r7, r5
100024a8:	40fe      	lsrs	r6, r7
100024aa:	4664      	mov	r4, ip
100024ac:	b2a2      	uxth	r2, r4
100024ae:	4372      	muls	r2, r6
100024b0:	1a80      	subs	r0, r0, r2
100024b2:	d200      	bcs.n	100024b6 <last0+0x12>
100024b4:	3901      	subs	r1, #1
100024b6:	0c22      	lsrs	r2, r4, #16
100024b8:	4372      	muls	r2, r6
100024ba:	0c13      	lsrs	r3, r2, #16
100024bc:	0412      	lsls	r2, r2, #16
100024be:	1a82      	subs	r2, r0, r2
100024c0:	4199      	sbcs	r1, r3
100024c2:	000b      	movs	r3, r1
100024c4:	4670      	mov	r0, lr
100024c6:	3504      	adds	r5, #4
100024c8:	3713      	adds	r7, #19
100024ca:	0001      	movs	r1, r0
100024cc:	40f9      	lsrs	r1, r7
100024ce:	40a8      	lsls	r0, r5
100024d0:	1980      	adds	r0, r0, r6
100024d2:	d300      	bcc.n	100024d6 <last0+0x32>
100024d4:	3101      	adds	r1, #1
100024d6:	2b00      	cmp	r3, #0
100024d8:	d102      	bne.n	100024e0 <last0+0x3c>
100024da:	42a2      	cmp	r2, r4
100024dc:	d20a      	bcs.n	100024f4 <last0+0x50>
100024de:	bdf0      	pop	{r4, r5, r6, r7, pc}
100024e0:	3001      	adds	r0, #1
100024e2:	d300      	bcc.n	100024e6 <last0+0x42>
100024e4:	3101      	adds	r1, #1
100024e6:	1b12      	subs	r2, r2, r4
100024e8:	d2fa      	bcs.n	100024e0 <last0+0x3c>
100024ea:	3b01      	subs	r3, #1
100024ec:	d1f8      	bne.n	100024e0 <last0+0x3c>
100024ee:	42a2      	cmp	r2, r4
100024f0:	d200      	bcs.n	100024f4 <last0+0x50>
100024f2:	bdf0      	pop	{r4, r5, r6, r7, pc}
100024f4:	3001      	adds	r0, #1
100024f6:	d300      	bcc.n	100024fa <last0+0x56>
100024f8:	3101      	adds	r1, #1
100024fa:	1b12      	subs	r2, r2, r4
100024fc:	e7f7      	b.n	100024ee <last0+0x4a>

100024fe <y64_x48>:
100024fe:	b5f0      	push	{r4, r5, r6, r7, lr}
10002500:	0c1c      	lsrs	r4, r3, #16
10002502:	d000      	beq.n	10002506 <y64_x48+0x8>
10002504:	e080      	b.n	10002608 <y64_x64>
10002506:	b40c      	push	{r2, r3}
10002508:	2500      	movs	r5, #0
1000250a:	0a1c      	lsrs	r4, r3, #8
1000250c:	d104      	bne.n	10002518 <y64_x48+0x1a>
1000250e:	021b      	lsls	r3, r3, #8
10002510:	0e16      	lsrs	r6, r2, #24
10002512:	4333      	orrs	r3, r6
10002514:	0212      	lsls	r2, r2, #8
10002516:	3508      	adds	r5, #8
10002518:	0b1c      	lsrs	r4, r3, #12
1000251a:	d104      	bne.n	10002526 <y64_x48+0x28>
1000251c:	011b      	lsls	r3, r3, #4
1000251e:	0f16      	lsrs	r6, r2, #28
10002520:	4333      	orrs	r3, r6
10002522:	0112      	lsls	r2, r2, #4
10002524:	3504      	adds	r5, #4
10002526:	0b9c      	lsrs	r4, r3, #14
10002528:	d104      	bne.n	10002534 <y64_x48+0x36>
1000252a:	009b      	lsls	r3, r3, #2
1000252c:	0f96      	lsrs	r6, r2, #30
1000252e:	4333      	orrs	r3, r6
10002530:	0092      	lsls	r2, r2, #2
10002532:	3502      	adds	r5, #2
10002534:	0bdc      	lsrs	r4, r3, #15
10002536:	d102      	bne.n	1000253e <y64_x48+0x40>
10002538:	1892      	adds	r2, r2, r2
1000253a:	415b      	adcs	r3, r3
1000253c:	3501      	adds	r5, #1
1000253e:	001c      	movs	r4, r3
10002540:	1897      	adds	r7, r2, r2
10002542:	4164      	adcs	r4, r4
10002544:	3401      	adds	r4, #1
10002546:	4f46      	ldr	r7, [pc, #280]	; (10002660 <y64_x64+0x58>)
10002548:	667c      	str	r4, [r7, #100]	; 0x64
1000254a:	4c46      	ldr	r4, [pc, #280]	; (10002664 <y64_x64+0x5c>)
1000254c:	663c      	str	r4, [r7, #96]	; 0x60
1000254e:	0c0e      	lsrs	r6, r1, #16
10002550:	e7ff      	b.n	10002552 <y64_x48+0x54>
10002552:	e7ff      	b.n	10002554 <y64_x48+0x56>
10002554:	e7ff      	b.n	10002556 <y64_x48+0x58>
10002556:	46c0      	nop			; (mov r8, r8)
10002558:	6f3c      	ldr	r4, [r7, #112]	; 0x70
1000255a:	4366      	muls	r6, r4
1000255c:	0c36      	lsrs	r6, r6, #16
1000255e:	0377      	lsls	r7, r6, #13
10002560:	46be      	mov	lr, r7
10002562:	b297      	uxth	r7, r2
10002564:	4377      	muls	r7, r6
10002566:	1bc0      	subs	r0, r0, r7
10002568:	d200      	bcs.n	1000256c <y64_x48+0x6e>
1000256a:	3901      	subs	r1, #1
1000256c:	1bc0      	subs	r0, r0, r7
1000256e:	d200      	bcs.n	10002572 <y64_x48+0x74>
10002570:	3901      	subs	r1, #1
10002572:	b29f      	uxth	r7, r3
10002574:	4377      	muls	r7, r6
10002576:	1bc9      	subs	r1, r1, r7
10002578:	1bc9      	subs	r1, r1, r7
1000257a:	0c17      	lsrs	r7, r2, #16
1000257c:	4377      	muls	r7, r6
1000257e:	047e      	lsls	r6, r7, #17
10002580:	0bff      	lsrs	r7, r7, #15
10002582:	1b80      	subs	r0, r0, r6
10002584:	41b9      	sbcs	r1, r7
10002586:	08ce      	lsrs	r6, r1, #3
10002588:	4366      	muls	r6, r4
1000258a:	0c36      	lsrs	r6, r6, #16
1000258c:	2d0c      	cmp	r5, #12
1000258e:	db33      	blt.n	100025f8 <last1>
10002590:	44b6      	add	lr, r6
10002592:	0b12      	lsrs	r2, r2, #12
10002594:	051f      	lsls	r7, r3, #20
10002596:	433a      	orrs	r2, r7
10002598:	0b1b      	lsrs	r3, r3, #12
1000259a:	b297      	uxth	r7, r2
1000259c:	4377      	muls	r7, r6
1000259e:	1bc0      	subs	r0, r0, r7
100025a0:	d200      	bcs.n	100025a4 <y64_x48+0xa6>
100025a2:	3901      	subs	r1, #1
100025a4:	b29f      	uxth	r7, r3
100025a6:	4377      	muls	r7, r6
100025a8:	1bc9      	subs	r1, r1, r7
100025aa:	0c17      	lsrs	r7, r2, #16
100025ac:	4377      	muls	r7, r6
100025ae:	043e      	lsls	r6, r7, #16
100025b0:	0c3f      	lsrs	r7, r7, #16
100025b2:	1b80      	subs	r0, r0, r6
100025b4:	41b9      	sbcs	r1, r7
100025b6:	0d86      	lsrs	r6, r0, #22
100025b8:	028f      	lsls	r7, r1, #10
100025ba:	433e      	orrs	r6, r7
100025bc:	4366      	muls	r6, r4
100025be:	2729      	movs	r7, #41	; 0x29
100025c0:	1b7f      	subs	r7, r7, r5
100025c2:	40fe      	lsrs	r6, r7
100025c4:	3d0c      	subs	r5, #12
100025c6:	4677      	mov	r7, lr
100025c8:	40af      	lsls	r7, r5
100025ca:	19bf      	adds	r7, r7, r6
100025cc:	bc30      	pop	{r4, r5}
100025ce:	b2a2      	uxth	r2, r4
100025d0:	b2ab      	uxth	r3, r5
100025d2:	4372      	muls	r2, r6
100025d4:	4373      	muls	r3, r6
100025d6:	1a80      	subs	r0, r0, r2
100025d8:	4199      	sbcs	r1, r3
100025da:	0c22      	lsrs	r2, r4, #16
100025dc:	4372      	muls	r2, r6
100025de:	0c13      	lsrs	r3, r2, #16
100025e0:	0412      	lsls	r2, r2, #16
100025e2:	1a80      	subs	r0, r0, r2
100025e4:	4199      	sbcs	r1, r3
100025e6:	0002      	movs	r2, r0
100025e8:	000b      	movs	r3, r1
100025ea:	3701      	adds	r7, #1
100025ec:	1b00      	subs	r0, r0, r4
100025ee:	41a9      	sbcs	r1, r5
100025f0:	d2f9      	bcs.n	100025e6 <y64_x48+0xe8>
100025f2:	1e78      	subs	r0, r7, #1
100025f4:	2100      	movs	r1, #0
100025f6:	bdf0      	pop	{r4, r5, r6, r7, pc}

100025f8 <last1>:
100025f8:	270c      	movs	r7, #12
100025fa:	1b7f      	subs	r7, r7, r5
100025fc:	40fe      	lsrs	r6, r7
100025fe:	4677      	mov	r7, lr
10002600:	0b7f      	lsrs	r7, r7, #13
10002602:	40af      	lsls	r7, r5
10002604:	19ff      	adds	r7, r7, r7
10002606:	e7e0      	b.n	100025ca <y64_x48+0xcc>

10002608 <y64_x64>:
10002608:	2400      	movs	r4, #0
1000260a:	1c5d      	adds	r5, r3, #1
1000260c:	d007      	beq.n	1000261e <y64_x64+0x16>
1000260e:	4f14      	ldr	r7, [pc, #80]	; (10002660 <y64_x64+0x58>)
10002610:	667d      	str	r5, [r7, #100]	; 0x64
10002612:	6639      	str	r1, [r7, #96]	; 0x60
10002614:	e7ff      	b.n	10002616 <y64_x64+0xe>
10002616:	e7ff      	b.n	10002618 <y64_x64+0x10>
10002618:	e7ff      	b.n	1000261a <y64_x64+0x12>
1000261a:	e7ff      	b.n	1000261c <y64_x64+0x14>
1000261c:	6f3c      	ldr	r4, [r7, #112]	; 0x70
1000261e:	b295      	uxth	r5, r2
10002620:	b29e      	uxth	r6, r3
10002622:	4365      	muls	r5, r4
10002624:	4366      	muls	r6, r4
10002626:	1b40      	subs	r0, r0, r5
10002628:	41b1      	sbcs	r1, r6
1000262a:	0c15      	lsrs	r5, r2, #16
1000262c:	0c1e      	lsrs	r6, r3, #16
1000262e:	4365      	muls	r5, r4
10002630:	4366      	muls	r6, r4
10002632:	0436      	lsls	r6, r6, #16
10002634:	0c2f      	lsrs	r7, r5, #16
10002636:	433e      	orrs	r6, r7
10002638:	042d      	lsls	r5, r5, #16
1000263a:	1b40      	subs	r0, r0, r5
1000263c:	41b1      	sbcs	r1, r6
1000263e:	4299      	cmp	r1, r3
10002640:	d204      	bcs.n	1000264c <y64_x64+0x44>
10002642:	0002      	movs	r2, r0
10002644:	000b      	movs	r3, r1
10002646:	0020      	movs	r0, r4
10002648:	2100      	movs	r1, #0
1000264a:	bdf0      	pop	{r4, r5, r6, r7, pc}
1000264c:	d101      	bne.n	10002652 <y64_x64+0x4a>
1000264e:	4290      	cmp	r0, r2
10002650:	d3f7      	bcc.n	10002642 <y64_x64+0x3a>
10002652:	1a80      	subs	r0, r0, r2
10002654:	4199      	sbcs	r1, r3
10002656:	3401      	adds	r4, #1
10002658:	4299      	cmp	r1, r3
1000265a:	d3f2      	bcc.n	10002642 <y64_x64+0x3a>
1000265c:	e7f6      	b.n	1000264c <y64_x64+0x44>
1000265e:	0000      	.short	0x0000
10002660:	d0000000 	.word	0xd0000000
10002664:	ffffffff 	.word	0xffffffff

10002668 <__aeabi_double_init>:
10002668:	2313      	movs	r3, #19
1000266a:	b570      	push	{r4, r5, r6, lr}
1000266c:	781c      	ldrb	r4, [r3, #0]
1000266e:	2c01      	cmp	r4, #1
10002670:	d010      	beq.n	10002694 <__aeabi_double_init+0x2c>
10002672:	dd0b      	ble.n	1000268c <__aeabi_double_init+0x24>
10002674:	480c      	ldr	r0, [pc, #48]	; (100026a8 <__aeabi_double_init+0x40>)
10002676:	f7ff fd8f 	bl	10002198 <rom_data_lookup>
1000267a:	4d0c      	ldr	r5, [pc, #48]	; (100026ac <__aeabi_double_init+0x44>)
1000267c:	0001      	movs	r1, r0
1000267e:	2280      	movs	r2, #128	; 0x80
10002680:	0028      	movs	r0, r5
10002682:	f000 f89f 	bl	100027c4 <__wrap___aeabi_memcpy>
10002686:	2c02      	cmp	r4, #2
10002688:	d001      	beq.n	1000268e <__aeabi_double_init+0x26>
1000268a:	bd70      	pop	{r4, r5, r6, pc}
1000268c:	4d07      	ldr	r5, [pc, #28]	; (100026ac <__aeabi_double_init+0x44>)
1000268e:	4a08      	ldr	r2, [pc, #32]	; (100026b0 <__aeabi_double_init+0x48>)
10002690:	64aa      	str	r2, [r5, #72]	; 0x48
10002692:	e7fa      	b.n	1000268a <__aeabi_double_init+0x22>
10002694:	4d05      	ldr	r5, [pc, #20]	; (100026ac <__aeabi_double_init+0x44>)
10002696:	4a06      	ldr	r2, [pc, #24]	; (100026b0 <__aeabi_double_init+0x48>)
10002698:	0029      	movs	r1, r5
1000269a:	002b      	movs	r3, r5
1000269c:	3180      	adds	r1, #128	; 0x80
1000269e:	c304      	stmia	r3!, {r2}
100026a0:	428b      	cmp	r3, r1
100026a2:	d1fc      	bne.n	1000269e <__aeabi_double_init+0x36>
100026a4:	64aa      	str	r2, [r5, #72]	; 0x48
100026a6:	e7f0      	b.n	1000268a <__aeabi_double_init+0x22>
100026a8:	00004453 	.word	0x00004453
100026ac:	20003788 	.word	0x20003788
100026b0:	100026b5 	.word	0x100026b5

100026b4 <double_table_shim_on_use_helper>:
100026b4:	b507      	push	{r0, r1, r2, lr}
100026b6:	4660      	mov	r0, ip
100026b8:	8801      	ldrh	r1, [r0, #0]
100026ba:	0a0a      	lsrs	r2, r1, #8
100026bc:	3002      	adds	r0, #2
100026be:	2adf      	cmp	r2, #223	; 0xdf
100026c0:	d1fa      	bne.n	100026b8 <double_table_shim_on_use_helper+0x4>
100026c2:	b2c9      	uxtb	r1, r1
100026c4:	0882      	lsrs	r2, r0, #2
100026c6:	d304      	bcc.n	100026d2 <double_table_shim_on_use_helper+0x1e>
100026c8:	8802      	ldrh	r2, [r0, #0]
100026ca:	8840      	ldrh	r0, [r0, #2]
100026cc:	0400      	lsls	r0, r0, #16
100026ce:	4310      	orrs	r0, r2
100026d0:	e000      	b.n	100026d4 <double_table_shim_on_use_helper+0x20>
100026d2:	6800      	ldr	r0, [r0, #0]
100026d4:	4a01      	ldr	r2, [pc, #4]	; (100026dc <double_table_shim_on_use_helper+0x28>)
100026d6:	5050      	str	r0, [r2, r1]
100026d8:	9003      	str	r0, [sp, #12]
100026da:	bd07      	pop	{r0, r1, r2, pc}
100026dc:	20003788 	.word	0x20003788

100026e0 <__wrap___aeabi_lmul>:
100026e0:	4351      	muls	r1, r2
100026e2:	4343      	muls	r3, r0
100026e4:	18c9      	adds	r1, r1, r3
100026e6:	468c      	mov	ip, r1
100026e8:	0c11      	lsrs	r1, r2, #16
100026ea:	b283      	uxth	r3, r0
100026ec:	434b      	muls	r3, r1
100026ee:	b410      	push	{r4}
100026f0:	0c04      	lsrs	r4, r0, #16
100026f2:	4361      	muls	r1, r4
100026f4:	b292      	uxth	r2, r2
100026f6:	b280      	uxth	r0, r0
100026f8:	4350      	muls	r0, r2
100026fa:	4362      	muls	r2, r4
100026fc:	041c      	lsls	r4, r3, #16
100026fe:	0c1b      	lsrs	r3, r3, #16
10002700:	1900      	adds	r0, r0, r4
10002702:	bc10      	pop	{r4}
10002704:	4159      	adcs	r1, r3
10002706:	0413      	lsls	r3, r2, #16
10002708:	0c12      	lsrs	r2, r2, #16
1000270a:	18c0      	adds	r0, r0, r3
1000270c:	4151      	adcs	r1, r2
1000270e:	4461      	add	r1, ip
10002710:	4770      	bx	lr
	...

10002714 <__aeabi_float_init>:
10002714:	2313      	movs	r3, #19
10002716:	b510      	push	{r4, lr}
10002718:	781c      	ldrb	r4, [r3, #0]
1000271a:	4813      	ldr	r0, [pc, #76]	; (10002768 <__aeabi_float_init+0x54>)
1000271c:	f7ff fd3c 	bl	10002198 <rom_data_lookup>
10002720:	2c01      	cmp	r4, #1
10002722:	d00b      	beq.n	1000273c <__aeabi_float_init+0x28>
10002724:	dd04      	ble.n	10002730 <__aeabi_float_init+0x1c>
10002726:	0001      	movs	r1, r0
10002728:	2280      	movs	r2, #128	; 0x80
1000272a:	4810      	ldr	r0, [pc, #64]	; (1000276c <__aeabi_float_init+0x58>)
1000272c:	f000 f84a 	bl	100027c4 <__wrap___aeabi_memcpy>
10002730:	480f      	ldr	r0, [pc, #60]	; (10002770 <__aeabi_float_init+0x5c>)
10002732:	f7ff fd29 	bl	10002188 <rom_func_lookup>
10002736:	4b0f      	ldr	r3, [pc, #60]	; (10002774 <__aeabi_float_init+0x60>)
10002738:	6018      	str	r0, [r3, #0]
1000273a:	bd10      	pop	{r4, pc}
1000273c:	4c0b      	ldr	r4, [pc, #44]	; (1000276c <__aeabi_float_init+0x58>)
1000273e:	0001      	movs	r1, r0
10002740:	2254      	movs	r2, #84	; 0x54
10002742:	0020      	movs	r0, r4
10002744:	f000 f83e 	bl	100027c4 <__wrap___aeabi_memcpy>
10002748:	4b0b      	ldr	r3, [pc, #44]	; (10002778 <__aeabi_float_init+0x64>)
1000274a:	6563      	str	r3, [r4, #84]	; 0x54
1000274c:	65a3      	str	r3, [r4, #88]	; 0x58
1000274e:	65e3      	str	r3, [r4, #92]	; 0x5c
10002750:	6623      	str	r3, [r4, #96]	; 0x60
10002752:	6663      	str	r3, [r4, #100]	; 0x64
10002754:	66a3      	str	r3, [r4, #104]	; 0x68
10002756:	66e3      	str	r3, [r4, #108]	; 0x6c
10002758:	6723      	str	r3, [r4, #112]	; 0x70
1000275a:	6763      	str	r3, [r4, #116]	; 0x74
1000275c:	67a3      	str	r3, [r4, #120]	; 0x78
1000275e:	67e3      	str	r3, [r4, #124]	; 0x7c
10002760:	6223      	str	r3, [r4, #32]
10002762:	61e3      	str	r3, [r4, #28]
10002764:	e7e4      	b.n	10002730 <__aeabi_float_init+0x1c>
10002766:	46c0      	nop			; (mov r8, r8)
10002768:	00004653 	.word	0x00004653
1000276c:	20003888 	.word	0x20003888
10002770:	0000334c 	.word	0x0000334c
10002774:	20003988 	.word	0x20003988
10002778:	1000277d 	.word	0x1000277d

1000277c <float_table_shim_on_use_helper>:
1000277c:	b507      	push	{r0, r1, r2, lr}
1000277e:	4660      	mov	r0, ip
10002780:	8801      	ldrh	r1, [r0, #0]
10002782:	0a0a      	lsrs	r2, r1, #8
10002784:	3002      	adds	r0, #2
10002786:	2adf      	cmp	r2, #223	; 0xdf
10002788:	d1fa      	bne.n	10002780 <float_table_shim_on_use_helper+0x4>
1000278a:	b2c9      	uxtb	r1, r1
1000278c:	0882      	lsrs	r2, r0, #2
1000278e:	d304      	bcc.n	1000279a <float_table_shim_on_use_helper+0x1e>
10002790:	8802      	ldrh	r2, [r0, #0]
10002792:	8840      	ldrh	r0, [r0, #2]
10002794:	0400      	lsls	r0, r0, #16
10002796:	4310      	orrs	r0, r2
10002798:	e000      	b.n	1000279c <float_table_shim_on_use_helper+0x20>
1000279a:	6800      	ldr	r0, [r0, #0]
1000279c:	4a01      	ldr	r2, [pc, #4]	; (100027a4 <float_table_shim_on_use_helper+0x28>)
1000279e:	5050      	str	r0, [r2, r1]
100027a0:	9003      	str	r0, [sp, #12]
100027a2:	bd07      	pop	{r0, r1, r2, pc}
100027a4:	20003888 	.word	0x20003888

100027a8 <__aeabi_mem_init>:
100027a8:	4801      	ldr	r0, [pc, #4]	; (100027b0 <__aeabi_mem_init+0x8>)
100027aa:	2104      	movs	r1, #4
100027ac:	4b01      	ldr	r3, [pc, #4]	; (100027b4 <__aeabi_mem_init+0xc>)
100027ae:	4718      	bx	r3
100027b0:	20002410 	.word	0x20002410
100027b4:	100021a9 	.word	0x100021a9

100027b8 <__wrap_memset>:
100027b8:	4b01      	ldr	r3, [pc, #4]	; (100027c0 <__wrap_memset+0x8>)
100027ba:	681b      	ldr	r3, [r3, #0]
100027bc:	4718      	bx	r3
100027be:	0000      	.short	0x0000
100027c0:	20002410 	.word	0x20002410

100027c4 <__wrap___aeabi_memcpy>:
100027c4:	4b01      	ldr	r3, [pc, #4]	; (100027cc <__wrap___aeabi_memcpy+0x8>)
100027c6:	685b      	ldr	r3, [r3, #4]
100027c8:	4718      	bx	r3
100027ca:	0000      	.short	0x0000
100027cc:	20002410 	.word	0x20002410

100027d0 <stdio_out_chars_crlf>:
100027d0:	b5f8      	push	{r3, r4, r5, r6, r7, lr}
100027d2:	4647      	mov	r7, r8
100027d4:	46ce      	mov	lr, r9
100027d6:	b580      	push	{r7, lr}
100027d8:	7c43      	ldrb	r3, [r0, #17]
100027da:	4680      	mov	r8, r0
100027dc:	000e      	movs	r6, r1
100027de:	0017      	movs	r7, r2
100027e0:	2b00      	cmp	r3, #0
100027e2:	d048      	beq.n	10002876 <stdio_out_chars_crlf+0xa6>
100027e4:	2a00      	cmp	r2, #0
100027e6:	dd2e      	ble.n	10002846 <stdio_out_chars_crlf+0x76>
100027e8:	4b27      	ldr	r3, [pc, #156]	; (10002888 <stdio_out_chars_crlf+0xb8>)
100027ea:	2501      	movs	r5, #1
100027ec:	2400      	movs	r4, #0
100027ee:	2000      	movs	r0, #0
100027f0:	4699      	mov	r9, r3
100027f2:	e004      	b.n	100027fe <stdio_out_chars_crlf+0x2e>
100027f4:	002b      	movs	r3, r5
100027f6:	3401      	adds	r4, #1
100027f8:	3501      	adds	r5, #1
100027fa:	429f      	cmp	r7, r3
100027fc:	dd19      	ble.n	10002832 <stdio_out_chars_crlf+0x62>
100027fe:	2c00      	cmp	r4, #0
10002800:	d03e      	beq.n	10002880 <stdio_out_chars_crlf+0xb0>
10002802:	1e63      	subs	r3, r4, #1
10002804:	5cf3      	ldrb	r3, [r6, r3]
10002806:	3b0d      	subs	r3, #13
10002808:	4259      	negs	r1, r3
1000280a:	4159      	adcs	r1, r3
1000280c:	b2cb      	uxtb	r3, r1
1000280e:	5d32      	ldrb	r2, [r6, r4]
10002810:	2a0a      	cmp	r2, #10
10002812:	d1ef      	bne.n	100027f4 <stdio_out_chars_crlf+0x24>
10002814:	2b00      	cmp	r3, #0
10002816:	d1ed      	bne.n	100027f4 <stdio_out_chars_crlf+0x24>
10002818:	4284      	cmp	r4, r0
1000281a:	dc26      	bgt.n	1000286a <stdio_out_chars_crlf+0x9a>
1000281c:	4643      	mov	r3, r8
1000281e:	4648      	mov	r0, r9
10002820:	681b      	ldr	r3, [r3, #0]
10002822:	2102      	movs	r1, #2
10002824:	4798      	blx	r3
10002826:	3401      	adds	r4, #1
10002828:	0028      	movs	r0, r5
1000282a:	002b      	movs	r3, r5
1000282c:	3501      	adds	r5, #1
1000282e:	429f      	cmp	r7, r3
10002830:	dce5      	bgt.n	100027fe <stdio_out_chars_crlf+0x2e>
10002832:	42b8      	cmp	r0, r7
10002834:	db0b      	blt.n	1000284e <stdio_out_chars_crlf+0x7e>
10002836:	19f6      	adds	r6, r6, r7
10002838:	3e01      	subs	r6, #1
1000283a:	7833      	ldrb	r3, [r6, #0]
1000283c:	3b0d      	subs	r3, #13
1000283e:	4259      	negs	r1, r3
10002840:	4159      	adcs	r1, r3
10002842:	4643      	mov	r3, r8
10002844:	7419      	strb	r1, [r3, #16]
10002846:	bc0c      	pop	{r2, r3}
10002848:	4690      	mov	r8, r2
1000284a:	4699      	mov	r9, r3
1000284c:	bdf8      	pop	{r3, r4, r5, r6, r7, pc}
1000284e:	4643      	mov	r3, r8
10002850:	1a39      	subs	r1, r7, r0
10002852:	1830      	adds	r0, r6, r0
10002854:	19f6      	adds	r6, r6, r7
10002856:	681b      	ldr	r3, [r3, #0]
10002858:	3e01      	subs	r6, #1
1000285a:	4798      	blx	r3
1000285c:	7833      	ldrb	r3, [r6, #0]
1000285e:	3b0d      	subs	r3, #13
10002860:	4259      	negs	r1, r3
10002862:	4159      	adcs	r1, r3
10002864:	4643      	mov	r3, r8
10002866:	7419      	strb	r1, [r3, #16]
10002868:	e7ed      	b.n	10002846 <stdio_out_chars_crlf+0x76>
1000286a:	4643      	mov	r3, r8
1000286c:	1a21      	subs	r1, r4, r0
1000286e:	681b      	ldr	r3, [r3, #0]
10002870:	1830      	adds	r0, r6, r0
10002872:	4798      	blx	r3
10002874:	e7d2      	b.n	1000281c <stdio_out_chars_crlf+0x4c>
10002876:	6803      	ldr	r3, [r0, #0]
10002878:	0011      	movs	r1, r2
1000287a:	0030      	movs	r0, r6
1000287c:	4798      	blx	r3
1000287e:	e7e2      	b.n	10002846 <stdio_out_chars_crlf+0x76>
10002880:	4643      	mov	r3, r8
10002882:	7c1b      	ldrb	r3, [r3, #16]
10002884:	e7c3      	b.n	1000280e <stdio_out_chars_crlf+0x3e>
10002886:	46c0      	nop			; (mov r8, r8)
10002888:	10006c9c 	.word	0x10006c9c

1000288c <__wrap_puts>:
1000288c:	b5f0      	push	{r4, r5, r6, r7, lr}
1000288e:	46de      	mov	lr, fp
10002890:	464e      	mov	r6, r9
10002892:	4657      	mov	r7, sl
10002894:	4645      	mov	r5, r8
10002896:	b5e0      	push	{r5, r6, r7, lr}
10002898:	b083      	sub	sp, #12
1000289a:	0007      	movs	r7, r0
1000289c:	f003 faf0 	bl	10005e80 <strlen>
100028a0:	23d0      	movs	r3, #208	; 0xd0
100028a2:	ae01      	add	r6, sp, #4
100028a4:	061b      	lsls	r3, r3, #24
100028a6:	4680      	mov	r8, r0
100028a8:	0031      	movs	r1, r6
100028aa:	4835      	ldr	r0, [pc, #212]	; (10002980 <__wrap_puts+0xf4>)
100028ac:	681c      	ldr	r4, [r3, #0]
100028ae:	f004 f90f 	bl	10006ad0 <__mutex_try_enter_veneer>
100028b2:	4681      	mov	r9, r0
100028b4:	2800      	cmp	r0, #0
100028b6:	d108      	bne.n	100028ca <__wrap_puts+0x3e>
100028b8:	9b01      	ldr	r3, [sp, #4]
100028ba:	b264      	sxtb	r4, r4
100028bc:	429c      	cmp	r4, r3
100028be:	d004      	beq.n	100028ca <__wrap_puts+0x3e>
100028c0:	482f      	ldr	r0, [pc, #188]	; (10002980 <__wrap_puts+0xf4>)
100028c2:	f004 f915 	bl	10006af0 <__mutex_enter_blocking_veneer>
100028c6:	2301      	movs	r3, #1
100028c8:	4699      	mov	r9, r3
100028ca:	4643      	mov	r3, r8
100028cc:	46c3      	mov	fp, r8
100028ce:	3301      	adds	r3, #1
100028d0:	d051      	beq.n	10002976 <__wrap_puts+0xea>
100028d2:	4b2c      	ldr	r3, [pc, #176]	; (10002984 <__wrap_puts+0xf8>)
100028d4:	681c      	ldr	r4, [r3, #0]
100028d6:	469a      	mov	sl, r3
100028d8:	2c00      	cmp	r4, #0
100028da:	d040      	beq.n	1000295e <__wrap_puts+0xd2>
100028dc:	4d2a      	ldr	r5, [pc, #168]	; (10002988 <__wrap_puts+0xfc>)
100028de:	e002      	b.n	100028e6 <__wrap_puts+0x5a>
100028e0:	68e4      	ldr	r4, [r4, #12]
100028e2:	2c00      	cmp	r4, #0
100028e4:	d020      	beq.n	10002928 <__wrap_puts+0x9c>
100028e6:	6823      	ldr	r3, [r4, #0]
100028e8:	2b00      	cmp	r3, #0
100028ea:	d0f9      	beq.n	100028e0 <__wrap_puts+0x54>
100028ec:	682b      	ldr	r3, [r5, #0]
100028ee:	2b00      	cmp	r3, #0
100028f0:	d001      	beq.n	100028f6 <__wrap_puts+0x6a>
100028f2:	42a3      	cmp	r3, r4
100028f4:	d1f4      	bne.n	100028e0 <__wrap_puts+0x54>
100028f6:	465a      	mov	r2, fp
100028f8:	0039      	movs	r1, r7
100028fa:	0020      	movs	r0, r4
100028fc:	f7ff ff68 	bl	100027d0 <stdio_out_chars_crlf>
10002900:	230a      	movs	r3, #10
10002902:	7033      	strb	r3, [r6, #0]
10002904:	7c63      	ldrb	r3, [r4, #17]
10002906:	2b00      	cmp	r3, #0
10002908:	d030      	beq.n	1000296c <__wrap_puts+0xe0>
1000290a:	7c23      	ldrb	r3, [r4, #16]
1000290c:	2b00      	cmp	r3, #0
1000290e:	d121      	bne.n	10002954 <__wrap_puts+0xc8>
10002910:	2102      	movs	r1, #2
10002912:	481e      	ldr	r0, [pc, #120]	; (1000298c <__wrap_puts+0x100>)
10002914:	6823      	ldr	r3, [r4, #0]
10002916:	4798      	blx	r3
10002918:	7833      	ldrb	r3, [r6, #0]
1000291a:	3b0d      	subs	r3, #13
1000291c:	4259      	negs	r1, r3
1000291e:	4159      	adcs	r1, r3
10002920:	7421      	strb	r1, [r4, #16]
10002922:	68e4      	ldr	r4, [r4, #12]
10002924:	2c00      	cmp	r4, #0
10002926:	d1de      	bne.n	100028e6 <__wrap_puts+0x5a>
10002928:	464b      	mov	r3, r9
1000292a:	2b00      	cmp	r3, #0
1000292c:	d11a      	bne.n	10002964 <__wrap_puts+0xd8>
1000292e:	4653      	mov	r3, sl
10002930:	681c      	ldr	r4, [r3, #0]
10002932:	2c00      	cmp	r4, #0
10002934:	d006      	beq.n	10002944 <__wrap_puts+0xb8>
10002936:	6863      	ldr	r3, [r4, #4]
10002938:	2b00      	cmp	r3, #0
1000293a:	d000      	beq.n	1000293e <__wrap_puts+0xb2>
1000293c:	4798      	blx	r3
1000293e:	68e4      	ldr	r4, [r4, #12]
10002940:	2c00      	cmp	r4, #0
10002942:	d1f8      	bne.n	10002936 <__wrap_puts+0xaa>
10002944:	4640      	mov	r0, r8
10002946:	b003      	add	sp, #12
10002948:	bc3c      	pop	{r2, r3, r4, r5}
1000294a:	4690      	mov	r8, r2
1000294c:	4699      	mov	r9, r3
1000294e:	46a2      	mov	sl, r4
10002950:	46ab      	mov	fp, r5
10002952:	bdf0      	pop	{r4, r5, r6, r7, pc}
10002954:	2101      	movs	r1, #1
10002956:	0030      	movs	r0, r6
10002958:	6823      	ldr	r3, [r4, #0]
1000295a:	4798      	blx	r3
1000295c:	e7dc      	b.n	10002918 <__wrap_puts+0x8c>
1000295e:	464b      	mov	r3, r9
10002960:	2b00      	cmp	r3, #0
10002962:	d0ef      	beq.n	10002944 <__wrap_puts+0xb8>
10002964:	4806      	ldr	r0, [pc, #24]	; (10002980 <__wrap_puts+0xf4>)
10002966:	f004 f89b 	bl	10006aa0 <__mutex_exit_veneer>
1000296a:	e7e0      	b.n	1000292e <__wrap_puts+0xa2>
1000296c:	2101      	movs	r1, #1
1000296e:	0030      	movs	r0, r6
10002970:	6823      	ldr	r3, [r4, #0]
10002972:	4798      	blx	r3
10002974:	e7b4      	b.n	100028e0 <__wrap_puts+0x54>
10002976:	0038      	movs	r0, r7
10002978:	f003 fa82 	bl	10005e80 <strlen>
1000297c:	4683      	mov	fp, r0
1000297e:	e7a8      	b.n	100028d2 <__wrap_puts+0x46>
10002980:	20002ca0 	.word	0x20002ca0
10002984:	20003330 	.word	0x20003330
10002988:	20003334 	.word	0x20003334
1000298c:	10006c9c 	.word	0x10006c9c

10002990 <_read>:
10002990:	b5f0      	push	{r4, r5, r6, r7, lr}
10002992:	4646      	mov	r6, r8
10002994:	46de      	mov	lr, fp
10002996:	4657      	mov	r7, sl
10002998:	b5c0      	push	{r6, r7, lr}
1000299a:	4690      	mov	r8, r2
1000299c:	b082      	sub	sp, #8
1000299e:	000e      	movs	r6, r1
100029a0:	2800      	cmp	r0, #0
100029a2:	d130      	bne.n	10002a06 <_read+0x76>
100029a4:	4b19      	ldr	r3, [pc, #100]	; (10002a0c <_read+0x7c>)
100029a6:	4d1a      	ldr	r5, [pc, #104]	; (10002a10 <_read+0x80>)
100029a8:	681a      	ldr	r2, [r3, #0]
100029aa:	685b      	ldr	r3, [r3, #4]
100029ac:	4f19      	ldr	r7, [pc, #100]	; (10002a14 <_read+0x84>)
100029ae:	469a      	mov	sl, r3
100029b0:	4b19      	ldr	r3, [pc, #100]	; (10002a18 <_read+0x88>)
100029b2:	9201      	str	r2, [sp, #4]
100029b4:	469b      	mov	fp, r3
100029b6:	465b      	mov	r3, fp
100029b8:	681c      	ldr	r4, [r3, #0]
100029ba:	2c00      	cmp	r4, #0
100029bc:	d105      	bne.n	100029ca <_read+0x3a>
100029be:	e015      	b.n	100029ec <_read+0x5c>
100029c0:	42a3      	cmp	r3, r4
100029c2:	d005      	beq.n	100029d0 <_read+0x40>
100029c4:	68e4      	ldr	r4, [r4, #12]
100029c6:	2c00      	cmp	r4, #0
100029c8:	d010      	beq.n	100029ec <_read+0x5c>
100029ca:	682b      	ldr	r3, [r5, #0]
100029cc:	2b00      	cmp	r3, #0
100029ce:	d1f7      	bne.n	100029c0 <_read+0x30>
100029d0:	68a3      	ldr	r3, [r4, #8]
100029d2:	2b00      	cmp	r3, #0
100029d4:	d0f6      	beq.n	100029c4 <_read+0x34>
100029d6:	4641      	mov	r1, r8
100029d8:	0030      	movs	r0, r6
100029da:	4798      	blx	r3
100029dc:	2800      	cmp	r0, #0
100029de:	ddf1      	ble.n	100029c4 <_read+0x34>
100029e0:	b002      	add	sp, #8
100029e2:	bc1c      	pop	{r2, r3, r4}
100029e4:	4690      	mov	r8, r2
100029e6:	469a      	mov	sl, r3
100029e8:	46a3      	mov	fp, r4
100029ea:	bdf0      	pop	{r4, r5, r6, r7, pc}
100029ec:	2001      	movs	r0, #1
100029ee:	2100      	movs	r1, #0
100029f0:	f7fe fb78 	bl	100010e4 <busy_wait_us>
100029f4:	6a7b      	ldr	r3, [r7, #36]	; 0x24
100029f6:	459a      	cmp	sl, r3
100029f8:	d8dd      	bhi.n	100029b6 <_read+0x26>
100029fa:	6aba      	ldr	r2, [r7, #40]	; 0x28
100029fc:	9901      	ldr	r1, [sp, #4]
100029fe:	428a      	cmp	r2, r1
10002a00:	d201      	bcs.n	10002a06 <_read+0x76>
10002a02:	459a      	cmp	sl, r3
10002a04:	d0d7      	beq.n	100029b6 <_read+0x26>
10002a06:	2001      	movs	r0, #1
10002a08:	4240      	negs	r0, r0
10002a0a:	e7e9      	b.n	100029e0 <_read+0x50>
10002a0c:	10006bf0 	.word	0x10006bf0
10002a10:	20003334 	.word	0x20003334
10002a14:	40054000 	.word	0x40054000
10002a18:	20003330 	.word	0x20003330

10002a1c <_write>:
10002a1c:	b5f0      	push	{r4, r5, r6, r7, lr}
10002a1e:	4646      	mov	r6, r8
10002a20:	46d6      	mov	lr, sl
10002a22:	464f      	mov	r7, r9
10002a24:	b5c0      	push	{r6, r7, lr}
10002a26:	4688      	mov	r8, r1
10002a28:	b082      	sub	sp, #8
10002a2a:	0016      	movs	r6, r2
10002a2c:	2801      	cmp	r0, #1
10002a2e:	d140      	bne.n	10002ab2 <_write+0x96>
10002a30:	23d0      	movs	r3, #208	; 0xd0
10002a32:	061b      	lsls	r3, r3, #24
10002a34:	681c      	ldr	r4, [r3, #0]
10002a36:	4b20      	ldr	r3, [pc, #128]	; (10002ab8 <_write+0x9c>)
10002a38:	a901      	add	r1, sp, #4
10002a3a:	0018      	movs	r0, r3
10002a3c:	469a      	mov	sl, r3
10002a3e:	f004 f847 	bl	10006ad0 <__mutex_try_enter_veneer>
10002a42:	1e07      	subs	r7, r0, #0
10002a44:	d107      	bne.n	10002a56 <_write+0x3a>
10002a46:	9b01      	ldr	r3, [sp, #4]
10002a48:	b264      	sxtb	r4, r4
10002a4a:	429c      	cmp	r4, r3
10002a4c:	d003      	beq.n	10002a56 <_write+0x3a>
10002a4e:	4650      	mov	r0, sl
10002a50:	f004 f84e 	bl	10006af0 <__mutex_enter_blocking_veneer>
10002a54:	3701      	adds	r7, #1
10002a56:	46b1      	mov	r9, r6
10002a58:	1c73      	adds	r3, r6, #1
10002a5a:	d025      	beq.n	10002aa8 <_write+0x8c>
10002a5c:	4b17      	ldr	r3, [pc, #92]	; (10002abc <_write+0xa0>)
10002a5e:	681c      	ldr	r4, [r3, #0]
10002a60:	2c00      	cmp	r4, #0
10002a62:	d014      	beq.n	10002a8e <_write+0x72>
10002a64:	4d16      	ldr	r5, [pc, #88]	; (10002ac0 <_write+0xa4>)
10002a66:	e002      	b.n	10002a6e <_write+0x52>
10002a68:	68e4      	ldr	r4, [r4, #12]
10002a6a:	2c00      	cmp	r4, #0
10002a6c:	d00f      	beq.n	10002a8e <_write+0x72>
10002a6e:	6823      	ldr	r3, [r4, #0]
10002a70:	2b00      	cmp	r3, #0
10002a72:	d0f9      	beq.n	10002a68 <_write+0x4c>
10002a74:	682b      	ldr	r3, [r5, #0]
10002a76:	2b00      	cmp	r3, #0
10002a78:	d001      	beq.n	10002a7e <_write+0x62>
10002a7a:	42a3      	cmp	r3, r4
10002a7c:	d1f4      	bne.n	10002a68 <_write+0x4c>
10002a7e:	0020      	movs	r0, r4
10002a80:	464a      	mov	r2, r9
10002a82:	4641      	mov	r1, r8
10002a84:	f7ff fea4 	bl	100027d0 <stdio_out_chars_crlf>
10002a88:	68e4      	ldr	r4, [r4, #12]
10002a8a:	2c00      	cmp	r4, #0
10002a8c:	d1ef      	bne.n	10002a6e <_write+0x52>
10002a8e:	2f00      	cmp	r7, #0
10002a90:	d106      	bne.n	10002aa0 <_write+0x84>
10002a92:	0030      	movs	r0, r6
10002a94:	b002      	add	sp, #8
10002a96:	bc1c      	pop	{r2, r3, r4}
10002a98:	4690      	mov	r8, r2
10002a9a:	4699      	mov	r9, r3
10002a9c:	46a2      	mov	sl, r4
10002a9e:	bdf0      	pop	{r4, r5, r6, r7, pc}
10002aa0:	4650      	mov	r0, sl
10002aa2:	f003 fffd 	bl	10006aa0 <__mutex_exit_veneer>
10002aa6:	e7f4      	b.n	10002a92 <_write+0x76>
10002aa8:	4640      	mov	r0, r8
10002aaa:	f003 f9e9 	bl	10005e80 <strlen>
10002aae:	4681      	mov	r9, r0
10002ab0:	e7d4      	b.n	10002a5c <_write+0x40>
10002ab2:	2601      	movs	r6, #1
10002ab4:	4276      	negs	r6, r6
10002ab6:	e7ec      	b.n	10002a92 <_write+0x76>
10002ab8:	20002ca0 	.word	0x20002ca0
10002abc:	20003330 	.word	0x20003330
10002ac0:	20003334 	.word	0x20003334

10002ac4 <stdio_set_driver_enabled>:
10002ac4:	4b0d      	ldr	r3, [pc, #52]	; (10002afc <stdio_set_driver_enabled+0x38>)
10002ac6:	681a      	ldr	r2, [r3, #0]
10002ac8:	2a00      	cmp	r2, #0
10002aca:	d012      	beq.n	10002af2 <stdio_set_driver_enabled+0x2e>
10002acc:	4282      	cmp	r2, r0
10002ace:	d103      	bne.n	10002ad8 <stdio_set_driver_enabled+0x14>
10002ad0:	e009      	b.n	10002ae6 <stdio_set_driver_enabled+0x22>
10002ad2:	4298      	cmp	r0, r3
10002ad4:	d007      	beq.n	10002ae6 <stdio_set_driver_enabled+0x22>
10002ad6:	001a      	movs	r2, r3
10002ad8:	68d3      	ldr	r3, [r2, #12]
10002ada:	2b00      	cmp	r3, #0
10002adc:	d1f9      	bne.n	10002ad2 <stdio_set_driver_enabled+0xe>
10002ade:	2900      	cmp	r1, #0
10002ae0:	d000      	beq.n	10002ae4 <stdio_set_driver_enabled+0x20>
10002ae2:	60d0      	str	r0, [r2, #12]
10002ae4:	4770      	bx	lr
10002ae6:	2900      	cmp	r1, #0
10002ae8:	d1fc      	bne.n	10002ae4 <stdio_set_driver_enabled+0x20>
10002aea:	68c3      	ldr	r3, [r0, #12]
10002aec:	60d3      	str	r3, [r2, #12]
10002aee:	60c1      	str	r1, [r0, #12]
10002af0:	e7f8      	b.n	10002ae4 <stdio_set_driver_enabled+0x20>
10002af2:	2900      	cmp	r1, #0
10002af4:	d0f6      	beq.n	10002ae4 <stdio_set_driver_enabled+0x20>
10002af6:	6018      	str	r0, [r3, #0]
10002af8:	e7f4      	b.n	10002ae4 <stdio_set_driver_enabled+0x20>
10002afa:	46c0      	nop			; (mov r8, r8)
10002afc:	20003330 	.word	0x20003330

10002b00 <stdio_uart_out_chars>:
10002b00:	b5f0      	push	{r4, r5, r6, r7, lr}
10002b02:	2900      	cmp	r1, #0
10002b04:	dd15      	ble.n	10002b32 <stdio_uart_out_chars+0x32>
10002b06:	4b0e      	ldr	r3, [pc, #56]	; (10002b40 <stdio_uart_out_chars+0x40>)
10002b08:	270d      	movs	r7, #13
10002b0a:	681a      	ldr	r2, [r3, #0]
10002b0c:	4b0d      	ldr	r3, [pc, #52]	; (10002b44 <stdio_uart_out_chars+0x44>)
10002b0e:	1841      	adds	r1, r0, r1
10002b10:	18d3      	adds	r3, r2, r3
10002b12:	425c      	negs	r4, r3
10002b14:	4163      	adcs	r3, r4
10002b16:	4c0c      	ldr	r4, [pc, #48]	; (10002b48 <stdio_uart_out_chars+0x48>)
10002b18:	005b      	lsls	r3, r3, #1
10002b1a:	5f1e      	ldrsh	r6, [r3, r4]
10002b1c:	2420      	movs	r4, #32
10002b1e:	7805      	ldrb	r5, [r0, #0]
10002b20:	42b5      	cmp	r5, r6
10002b22:	d007      	beq.n	10002b34 <stdio_uart_out_chars+0x34>
10002b24:	6993      	ldr	r3, [r2, #24]
10002b26:	421c      	tst	r4, r3
10002b28:	d1fc      	bne.n	10002b24 <stdio_uart_out_chars+0x24>
10002b2a:	3001      	adds	r0, #1
10002b2c:	6015      	str	r5, [r2, #0]
10002b2e:	4288      	cmp	r0, r1
10002b30:	d1f5      	bne.n	10002b1e <stdio_uart_out_chars+0x1e>
10002b32:	bdf0      	pop	{r4, r5, r6, r7, pc}
10002b34:	6993      	ldr	r3, [r2, #24]
10002b36:	421c      	tst	r4, r3
10002b38:	d1fc      	bne.n	10002b34 <stdio_uart_out_chars+0x34>
10002b3a:	6017      	str	r7, [r2, #0]
10002b3c:	e7f2      	b.n	10002b24 <stdio_uart_out_chars+0x24>
10002b3e:	46c0      	nop			; (mov r8, r8)
10002b40:	20003778 	.word	0x20003778
10002b44:	bffc8000 	.word	0xbffc8000
10002b48:	20003784 	.word	0x20003784

10002b4c <stdio_uart_in_chars>:
10002b4c:	b530      	push	{r4, r5, lr}
10002b4e:	2900      	cmp	r1, #0
10002b50:	dd14      	ble.n	10002b7c <stdio_uart_in_chars+0x30>
10002b52:	4b0c      	ldr	r3, [pc, #48]	; (10002b84 <stdio_uart_in_chars+0x38>)
10002b54:	681a      	ldr	r2, [r3, #0]
10002b56:	6993      	ldr	r3, [r2, #24]
10002b58:	06db      	lsls	r3, r3, #27
10002b5a:	d40f      	bmi.n	10002b7c <stdio_uart_in_chars+0x30>
10002b5c:	0005      	movs	r5, r0
10002b5e:	2410      	movs	r4, #16
10002b60:	2000      	movs	r0, #0
10002b62:	3001      	adds	r0, #1
10002b64:	6993      	ldr	r3, [r2, #24]
10002b66:	421c      	tst	r4, r3
10002b68:	d1fc      	bne.n	10002b64 <stdio_uart_in_chars+0x18>
10002b6a:	6813      	ldr	r3, [r2, #0]
10002b6c:	702b      	strb	r3, [r5, #0]
10002b6e:	4281      	cmp	r1, r0
10002b70:	d003      	beq.n	10002b7a <stdio_uart_in_chars+0x2e>
10002b72:	6993      	ldr	r3, [r2, #24]
10002b74:	3501      	adds	r5, #1
10002b76:	421c      	tst	r4, r3
10002b78:	d0f3      	beq.n	10002b62 <stdio_uart_in_chars+0x16>
10002b7a:	bd30      	pop	{r4, r5, pc}
10002b7c:	2003      	movs	r0, #3
10002b7e:	4240      	negs	r0, r0
10002b80:	e7fb      	b.n	10002b7a <stdio_uart_in_chars+0x2e>
10002b82:	46c0      	nop			; (mov r8, r8)
10002b84:	20003778 	.word	0x20003778

10002b88 <stdio_uart_init_full>:
10002b88:	b570      	push	{r4, r5, r6, lr}
10002b8a:	001c      	movs	r4, r3
10002b8c:	4b0a      	ldr	r3, [pc, #40]	; (10002bb8 <stdio_uart_init_full+0x30>)
10002b8e:	0015      	movs	r5, r2
10002b90:	6018      	str	r0, [r3, #0]
10002b92:	f7fd fe31 	bl	100007f8 <uart_init>
10002b96:	2d00      	cmp	r5, #0
10002b98:	db03      	blt.n	10002ba2 <stdio_uart_init_full+0x1a>
10002b9a:	2102      	movs	r1, #2
10002b9c:	0028      	movs	r0, r5
10002b9e:	f7fd fd13 	bl	100005c8 <gpio_set_function>
10002ba2:	2c00      	cmp	r4, #0
10002ba4:	db03      	blt.n	10002bae <stdio_uart_init_full+0x26>
10002ba6:	2102      	movs	r1, #2
10002ba8:	0020      	movs	r0, r4
10002baa:	f7fd fd0d 	bl	100005c8 <gpio_set_function>
10002bae:	2101      	movs	r1, #1
10002bb0:	4802      	ldr	r0, [pc, #8]	; (10002bbc <stdio_uart_init_full+0x34>)
10002bb2:	f7ff ff87 	bl	10002ac4 <stdio_set_driver_enabled>
10002bb6:	bd70      	pop	{r4, r5, r6, pc}
10002bb8:	20003778 	.word	0x20003778
10002bbc:	20002420 	.word	0x20002420

10002bc0 <boot_double_tap_check>:
10002bc0:	b510      	push	{r4, lr}
10002bc2:	4c11      	ldr	r4, [pc, #68]	; (10002c08 <boot_double_tap_check+0x48>)
10002bc4:	4b11      	ldr	r3, [pc, #68]	; (10002c0c <boot_double_tap_check+0x4c>)
10002bc6:	6822      	ldr	r2, [r4, #0]
10002bc8:	429a      	cmp	r2, r3
10002bca:	d110      	bne.n	10002bee <boot_double_tap_check+0x2e>
10002bcc:	4b10      	ldr	r3, [pc, #64]	; (10002c10 <boot_double_tap_check+0x50>)
10002bce:	6862      	ldr	r2, [r4, #4]
10002bd0:	429a      	cmp	r2, r3
10002bd2:	d10c      	bne.n	10002bee <boot_double_tap_check+0x2e>
10002bd4:	4b0f      	ldr	r3, [pc, #60]	; (10002c14 <boot_double_tap_check+0x54>)
10002bd6:	68a2      	ldr	r2, [r4, #8]
10002bd8:	429a      	cmp	r2, r3
10002bda:	d108      	bne.n	10002bee <boot_double_tap_check+0x2e>
10002bdc:	2300      	movs	r3, #0
10002bde:	480e      	ldr	r0, [pc, #56]	; (10002c18 <boot_double_tap_check+0x58>)
10002be0:	6023      	str	r3, [r4, #0]
10002be2:	f7ff fad1 	bl	10002188 <rom_func_lookup>
10002be6:	2100      	movs	r1, #0
10002be8:	0003      	movs	r3, r0
10002bea:	2000      	movs	r0, #0
10002bec:	4798      	blx	r3
10002bee:	4b07      	ldr	r3, [pc, #28]	; (10002c0c <boot_double_tap_check+0x4c>)
10002bf0:	480a      	ldr	r0, [pc, #40]	; (10002c1c <boot_double_tap_check+0x5c>)
10002bf2:	6023      	str	r3, [r4, #0]
10002bf4:	4b06      	ldr	r3, [pc, #24]	; (10002c10 <boot_double_tap_check+0x50>)
10002bf6:	2100      	movs	r1, #0
10002bf8:	6063      	str	r3, [r4, #4]
10002bfa:	4b06      	ldr	r3, [pc, #24]	; (10002c14 <boot_double_tap_check+0x54>)
10002bfc:	60a3      	str	r3, [r4, #8]
10002bfe:	f7fe fa71 	bl	100010e4 <busy_wait_us>
10002c02:	2300      	movs	r3, #0
10002c04:	6023      	str	r3, [r4, #0]
10002c06:	bd10      	pop	{r4, pc}
10002c08:	20002cc0 	.word	0x20002cc0
10002c0c:	f01681de 	.word	0xf01681de
10002c10:	bd729b29 	.word	0xbd729b29
10002c14:	d359be7a 	.word	0xd359be7a
10002c18:	00004255 	.word	0x00004255
10002c1c:	00030d40 	.word	0x00030d40

10002c20 <board_init>:
10002c20:	b510      	push	{r4, lr}
10002c22:	2019      	movs	r0, #25
10002c24:	f7fd fd30 	bl	10000688 <gpio_init>
10002c28:	2280      	movs	r2, #128	; 0x80
10002c2a:	23d0      	movs	r3, #208	; 0xd0
10002c2c:	21e1      	movs	r1, #225	; 0xe1
10002c2e:	0492      	lsls	r2, r2, #18
10002c30:	061b      	lsls	r3, r3, #24
10002c32:	625a      	str	r2, [r3, #36]	; 0x24
10002c34:	4804      	ldr	r0, [pc, #16]	; (10002c48 <board_init+0x28>)
10002c36:	4b05      	ldr	r3, [pc, #20]	; (10002c4c <board_init+0x2c>)
10002c38:	2200      	movs	r2, #0
10002c3a:	6018      	str	r0, [r3, #0]
10002c3c:	0249      	lsls	r1, r1, #9
10002c3e:	2301      	movs	r3, #1
10002c40:	f7ff ffa2 	bl	10002b88 <stdio_uart_init_full>
10002c44:	bd10      	pop	{r4, pc}
10002c46:	46c0      	nop			; (mov r8, r8)
10002c48:	40034000 	.word	0x40034000
10002c4c:	20003774 	.word	0x20003774

10002c50 <board_led_write>:
10002c50:	2280      	movs	r2, #128	; 0x80
10002c52:	23d0      	movs	r3, #208	; 0xd0
10002c54:	0492      	lsls	r2, r2, #18
10002c56:	061b      	lsls	r3, r3, #24
10002c58:	2800      	cmp	r0, #0
10002c5a:	d101      	bne.n	10002c60 <board_led_write+0x10>
10002c5c:	619a      	str	r2, [r3, #24]
10002c5e:	4770      	bx	lr
10002c60:	615a      	str	r2, [r3, #20]
10002c62:	e7fc      	b.n	10002c5e <board_led_write+0xe>

10002c64 <dcd_rp2040_irq>:
10002c64:	b5f0      	push	{r4, r5, r6, r7, lr}
10002c66:	4645      	mov	r5, r8
10002c68:	46de      	mov	lr, fp
10002c6a:	4657      	mov	r7, sl
10002c6c:	464e      	mov	r6, r9
10002c6e:	2398      	movs	r3, #152	; 0x98
10002c70:	2480      	movs	r4, #128	; 0x80
10002c72:	b5e0      	push	{r5, r6, r7, lr}
10002c74:	4a63      	ldr	r2, [pc, #396]	; (10002e04 <dcd_rp2040_irq+0x1a0>)
10002c76:	0264      	lsls	r4, r4, #9
10002c78:	58d3      	ldr	r3, [r2, r3]
10002c7a:	b085      	sub	sp, #20
10002c7c:	4698      	mov	r8, r3
10002c7e:	4223      	tst	r3, r4
10002c80:	d02c      	beq.n	10002cdc <dcd_rp2040_irq+0x78>
10002c82:	2201      	movs	r2, #1
10002c84:	2123      	movs	r1, #35	; 0x23
10002c86:	4b60      	ldr	r3, [pc, #384]	; (10002e08 <dcd_rp2040_irq+0x1a4>)
10002c88:	2000      	movs	r0, #0
10002c8a:	545a      	strb	r2, [r3, r1]
10002c8c:	70da      	strb	r2, [r3, #3]
10002c8e:	495f      	ldr	r1, [pc, #380]	; (10002e0c <dcd_rp2040_irq+0x1a8>)
10002c90:	f001 f9d2 	bl	10004038 <dcd_event_setup_received>
10002c94:	2280      	movs	r2, #128	; 0x80
10002c96:	4b5e      	ldr	r3, [pc, #376]	; (10002e10 <dcd_rp2040_irq+0x1ac>)
10002c98:	0292      	lsls	r2, r2, #10
10002c9a:	651a      	str	r2, [r3, #80]	; 0x50
10002c9c:	4b5d      	ldr	r3, [pc, #372]	; (10002e14 <dcd_rp2040_irq+0x1b0>)
10002c9e:	9303      	str	r3, [sp, #12]
10002ca0:	4643      	mov	r3, r8
10002ca2:	06db      	lsls	r3, r3, #27
10002ca4:	d420      	bmi.n	10002ce8 <dcd_rp2040_irq+0x84>
10002ca6:	2380      	movs	r3, #128	; 0x80
10002ca8:	4642      	mov	r2, r8
10002caa:	015b      	lsls	r3, r3, #5
10002cac:	421a      	tst	r2, r3
10002cae:	d147      	bne.n	10002d40 <dcd_rp2040_irq+0xdc>
10002cb0:	2380      	movs	r3, #128	; 0x80
10002cb2:	4642      	mov	r2, r8
10002cb4:	01db      	lsls	r3, r3, #7
10002cb6:	421a      	tst	r2, r3
10002cb8:	d000      	beq.n	10002cbc <dcd_rp2040_irq+0x58>
10002cba:	e094      	b.n	10002de6 <dcd_rp2040_irq+0x182>
10002cbc:	2380      	movs	r3, #128	; 0x80
10002cbe:	4642      	mov	r2, r8
10002cc0:	021b      	lsls	r3, r3, #8
10002cc2:	421a      	tst	r2, r3
10002cc4:	d000      	beq.n	10002cc8 <dcd_rp2040_irq+0x64>
10002cc6:	e083      	b.n	10002dd0 <dcd_rp2040_irq+0x16c>
10002cc8:	4544      	cmp	r4, r8
10002cca:	d000      	beq.n	10002cce <dcd_rp2040_irq+0x6a>
10002ccc:	e095      	b.n	10002dfa <dcd_rp2040_irq+0x196>
10002cce:	b005      	add	sp, #20
10002cd0:	bc3c      	pop	{r2, r3, r4, r5}
10002cd2:	4690      	mov	r8, r2
10002cd4:	4699      	mov	r9, r3
10002cd6:	46a2      	mov	sl, r4
10002cd8:	46ab      	mov	fp, r5
10002cda:	bdf0      	pop	{r4, r5, r6, r7, pc}
10002cdc:	2310      	movs	r3, #16
10002cde:	9303      	str	r3, [sp, #12]
10002ce0:	4643      	mov	r3, r8
10002ce2:	2400      	movs	r4, #0
10002ce4:	06db      	lsls	r3, r3, #27
10002ce6:	d5de      	bpl.n	10002ca6 <dcd_rp2040_irq+0x42>
10002ce8:	4b46      	ldr	r3, [pc, #280]	; (10002e04 <dcd_rp2040_irq+0x1a0>)
10002cea:	6d9f      	ldr	r7, [r3, #88]	; 0x58
10002cec:	2f00      	cmp	r7, #0
10002cee:	d021      	beq.n	10002d34 <dcd_rp2040_irq+0xd0>
10002cf0:	4b47      	ldr	r3, [pc, #284]	; (10002e10 <dcd_rp2040_irq+0x1ac>)
10002cf2:	2600      	movs	r6, #0
10002cf4:	469b      	mov	fp, r3
10002cf6:	2301      	movs	r3, #1
10002cf8:	4699      	mov	r9, r3
10002cfa:	4b43      	ldr	r3, [pc, #268]	; (10002e08 <dcd_rp2040_irq+0x1a4>)
10002cfc:	2501      	movs	r5, #1
10002cfe:	469a      	mov	sl, r3
10002d00:	e003      	b.n	10002d0a <dcd_rp2040_irq+0xa6>
10002d02:	006d      	lsls	r5, r5, #1
10002d04:	3601      	adds	r6, #1
10002d06:	2e20      	cmp	r6, #32
10002d08:	d014      	beq.n	10002d34 <dcd_rp2040_irq+0xd0>
10002d0a:	422f      	tst	r7, r5
10002d0c:	d0f9      	beq.n	10002d02 <dcd_rp2040_irq+0x9e>
10002d0e:	465b      	mov	r3, fp
10002d10:	659d      	str	r5, [r3, #88]	; 0x58
10002d12:	464b      	mov	r3, r9
10002d14:	0874      	lsrs	r4, r6, #1
10002d16:	0064      	lsls	r4, r4, #1
10002d18:	43b3      	bics	r3, r6
10002d1a:	18e4      	adds	r4, r4, r3
10002d1c:	0164      	lsls	r4, r4, #5
10002d1e:	4454      	add	r4, sl
10002d20:	0020      	movs	r0, r4
10002d22:	f000 fadb 	bl	100032dc <hw_endpoint_xfer_continue>
10002d26:	2800      	cmp	r0, #0
10002d28:	d146      	bne.n	10002db8 <dcd_rp2040_irq+0x154>
10002d2a:	43af      	bics	r7, r5
10002d2c:	3601      	adds	r6, #1
10002d2e:	006d      	lsls	r5, r5, #1
10002d30:	2f00      	cmp	r7, #0
10002d32:	d1e8      	bne.n	10002d06 <dcd_rp2040_irq+0xa2>
10002d34:	2380      	movs	r3, #128	; 0x80
10002d36:	4642      	mov	r2, r8
10002d38:	015b      	lsls	r3, r3, #5
10002d3a:	9c03      	ldr	r4, [sp, #12]
10002d3c:	421a      	tst	r2, r3
10002d3e:	d0b7      	beq.n	10002cb0 <dcd_rp2040_irq+0x4c>
10002d40:	2600      	movs	r6, #0
10002d42:	2280      	movs	r2, #128	; 0x80
10002d44:	4d30      	ldr	r5, [pc, #192]	; (10002e08 <dcd_rp2040_irq+0x1a4>)
10002d46:	4f2f      	ldr	r7, [pc, #188]	; (10002e04 <dcd_rp2040_irq+0x1a0>)
10002d48:	00d2      	lsls	r2, r2, #3
10002d4a:	2100      	movs	r1, #0
10002d4c:	603e      	str	r6, [r7, #0]
10002d4e:	0028      	movs	r0, r5
10002d50:	431c      	orrs	r4, r3
10002d52:	f7ff fd31 	bl	100027b8 <__wrap_memset>
10002d56:	2080      	movs	r0, #128	; 0x80
10002d58:	4b2f      	ldr	r3, [pc, #188]	; (10002e18 <dcd_rp2040_irq+0x1b4>)
10002d5a:	4a30      	ldr	r2, [pc, #192]	; (10002e1c <dcd_rp2040_irq+0x1b8>)
10002d5c:	2140      	movs	r1, #64	; 0x40
10002d5e:	601a      	str	r2, [r3, #0]
10002d60:	2301      	movs	r3, #1
10002d62:	4684      	mov	ip, r0
10002d64:	4a2e      	ldr	r2, [pc, #184]	; (10002e20 <dcd_rp2040_irq+0x1bc>)
10002d66:	706b      	strb	r3, [r5, #1]
10002d68:	70eb      	strb	r3, [r5, #3]
10002d6a:	83a9      	strh	r1, [r5, #28]
10002d6c:	60aa      	str	r2, [r5, #8]
10002d6e:	6016      	str	r6, [r2, #0]
10002d70:	4a2c      	ldr	r2, [pc, #176]	; (10002e24 <dcd_rp2040_irq+0x1c0>)
10002d72:	385e      	subs	r0, #94	; 0x5e
10002d74:	60ea      	str	r2, [r5, #12]
10002d76:	4691      	mov	r9, r2
10002d78:	4662      	mov	r2, ip
10002d7a:	542a      	strb	r2, [r5, r0]
10002d7c:	3801      	subs	r0, #1
10002d7e:	542e      	strb	r6, [r5, r0]
10002d80:	3002      	adds	r0, #2
10002d82:	542b      	strb	r3, [r5, r0]
10002d84:	333d      	adds	r3, #61	; 0x3d
10002d86:	54ee      	strb	r6, [r5, r3]
10002d88:	4b27      	ldr	r3, [pc, #156]	; (10002e28 <dcd_rp2040_irq+0x1c4>)
10002d8a:	87a9      	strh	r1, [r5, #60]	; 0x3c
10002d8c:	62ab      	str	r3, [r5, #40]	; 0x28
10002d8e:	606e      	str	r6, [r5, #4]
10002d90:	601e      	str	r6, [r3, #0]
10002d92:	464b      	mov	r3, r9
10002d94:	2201      	movs	r2, #1
10002d96:	62eb      	str	r3, [r5, #44]	; 0x2c
10002d98:	626e      	str	r6, [r5, #36]	; 0x24
10002d9a:	2100      	movs	r1, #0
10002d9c:	2000      	movs	r0, #0
10002d9e:	f001 f921 	bl	10003fe4 <dcd_event_bus_reset>
10002da2:	2280      	movs	r2, #128	; 0x80
10002da4:	4b1a      	ldr	r3, [pc, #104]	; (10002e10 <dcd_rp2040_irq+0x1ac>)
10002da6:	0312      	lsls	r2, r2, #12
10002da8:	651a      	str	r2, [r3, #80]	; 0x50
10002daa:	6cfb      	ldr	r3, [r7, #76]	; 0x4c
10002dac:	03db      	lsls	r3, r3, #15
10002dae:	d400      	bmi.n	10002db2 <dcd_rp2040_irq+0x14e>
10002db0:	e77e      	b.n	10002cb0 <dcd_rp2040_irq+0x4c>
10002db2:	f002 fd73 	bl	1000589c <rp2040_usb_device_enumeration_fix>
10002db6:	e77b      	b.n	10002cb0 <dcd_rp2040_irq+0x4c>
10002db8:	464b      	mov	r3, r9
10002dba:	8aa2      	ldrh	r2, [r4, #20]
10002dbc:	78a1      	ldrb	r1, [r4, #2]
10002dbe:	2000      	movs	r0, #0
10002dc0:	9300      	str	r3, [sp, #0]
10002dc2:	2300      	movs	r3, #0
10002dc4:	f001 f966 	bl	10004094 <dcd_event_xfer_complete>
10002dc8:	0020      	movs	r0, r4
10002dca:	f000 f9a5 	bl	10003118 <hw_endpoint_reset_transfer>
10002dce:	e7ac      	b.n	10002d2a <dcd_rp2040_irq+0xc6>
10002dd0:	2201      	movs	r2, #1
10002dd2:	2105      	movs	r1, #5
10002dd4:	2000      	movs	r0, #0
10002dd6:	431c      	orrs	r4, r3
10002dd8:	f001 f870 	bl	10003ebc <dcd_event_bus_signal>
10002ddc:	2280      	movs	r2, #128	; 0x80
10002dde:	4b0c      	ldr	r3, [pc, #48]	; (10002e10 <dcd_rp2040_irq+0x1ac>)
10002de0:	0112      	lsls	r2, r2, #4
10002de2:	651a      	str	r2, [r3, #80]	; 0x50
10002de4:	e770      	b.n	10002cc8 <dcd_rp2040_irq+0x64>
10002de6:	2201      	movs	r2, #1
10002de8:	2104      	movs	r1, #4
10002dea:	2000      	movs	r0, #0
10002dec:	431c      	orrs	r4, r3
10002dee:	f001 f865 	bl	10003ebc <dcd_event_bus_signal>
10002df2:	2210      	movs	r2, #16
10002df4:	4b06      	ldr	r3, [pc, #24]	; (10002e10 <dcd_rp2040_irq+0x1ac>)
10002df6:	651a      	str	r2, [r3, #80]	; 0x50
10002df8:	e760      	b.n	10002cbc <dcd_rp2040_irq+0x58>
10002dfa:	4641      	mov	r1, r8
10002dfc:	480b      	ldr	r0, [pc, #44]	; (10002e2c <dcd_rp2040_irq+0x1c8>)
10002dfe:	4061      	eors	r1, r4
10002e00:	f7fe fdfc 	bl	100019fc <panic>
10002e04:	50110000 	.word	0x50110000
10002e08:	20003340 	.word	0x20003340
10002e0c:	50100000 	.word	0x50100000
10002e10:	50113000 	.word	0x50113000
10002e14:	00010010 	.word	0x00010010
10002e18:	20003744 	.word	0x20003744
10002e1c:	50100180 	.word	0x50100180
10002e20:	50100084 	.word	0x50100084
10002e24:	50100100 	.word	0x50100100
10002e28:	50100080 	.word	0x50100080
10002e2c:	10006cdc 	.word	0x10006cdc

10002e30 <dcd_int_enable>:
10002e30:	b510      	push	{r4, lr}
10002e32:	2101      	movs	r1, #1
10002e34:	2005      	movs	r0, #5
10002e36:	f7fe ff69 	bl	10001d0c <irq_set_enabled>
10002e3a:	bd10      	pop	{r4, pc}

10002e3c <dcd_set_address>:
10002e3c:	2301      	movs	r3, #1
10002e3e:	2223      	movs	r2, #35	; 0x23
10002e40:	b510      	push	{r4, lr}
10002e42:	4804      	ldr	r0, [pc, #16]	; (10002e54 <dcd_set_address+0x18>)
10002e44:	2100      	movs	r1, #0
10002e46:	5483      	strb	r3, [r0, r2]
10002e48:	70c3      	strb	r3, [r0, #3]
10002e4a:	2200      	movs	r2, #0
10002e4c:	3020      	adds	r0, #32
10002e4e:	f000 f997 	bl	10003180 <hw_endpoint_xfer_start>
10002e52:	bd10      	pop	{r4, pc}
10002e54:	20003340 	.word	0x20003340

10002e58 <dcd_connect>:
10002e58:	2280      	movs	r2, #128	; 0x80
10002e5a:	4b02      	ldr	r3, [pc, #8]	; (10002e64 <dcd_connect+0xc>)
10002e5c:	0252      	lsls	r2, r2, #9
10002e5e:	64da      	str	r2, [r3, #76]	; 0x4c
10002e60:	4770      	bx	lr
10002e62:	46c0      	nop			; (mov r8, r8)
10002e64:	50112000 	.word	0x50112000

10002e68 <dcd_init>:
10002e68:	b5f0      	push	{r4, r5, r6, r7, lr}
10002e6a:	46c6      	mov	lr, r8
10002e6c:	b500      	push	{lr}
10002e6e:	0006      	movs	r6, r0
10002e70:	f000 f92c 	bl	100030cc <rp2040_usb_init>
10002e74:	230c      	movs	r3, #12
10002e76:	4d1e      	ldr	r5, [pc, #120]	; (10002ef0 <dcd_init+0x88>)
10002e78:	491e      	ldr	r1, [pc, #120]	; (10002ef4 <dcd_init+0x8c>)
10002e7a:	67ab      	str	r3, [r5, #120]	; 0x78
10002e7c:	2005      	movs	r0, #5
10002e7e:	f7fe ff5f 	bl	10001d40 <irq_set_exclusive_handler>
10002e82:	2280      	movs	r2, #128	; 0x80
10002e84:	2780      	movs	r7, #128	; 0x80
10002e86:	4c1c      	ldr	r4, [pc, #112]	; (10002ef8 <dcd_init+0x90>)
10002e88:	00d2      	lsls	r2, r2, #3
10002e8a:	2100      	movs	r1, #0
10002e8c:	0020      	movs	r0, r4
10002e8e:	f7ff fc93 	bl	100027b8 <__wrap_memset>
10002e92:	4b1a      	ldr	r3, [pc, #104]	; (10002efc <dcd_init+0x94>)
10002e94:	4a1a      	ldr	r2, [pc, #104]	; (10002f00 <dcd_init+0x98>)
10002e96:	2040      	movs	r0, #64	; 0x40
10002e98:	601a      	str	r2, [r3, #0]
10002e9a:	2300      	movs	r3, #0
10002e9c:	2201      	movs	r2, #1
10002e9e:	46bc      	mov	ip, r7
10002ea0:	4918      	ldr	r1, [pc, #96]	; (10002f04 <dcd_init+0x9c>)
10002ea2:	7062      	strb	r2, [r4, #1]
10002ea4:	70e2      	strb	r2, [r4, #3]
10002ea6:	83a0      	strh	r0, [r4, #28]
10002ea8:	60a1      	str	r1, [r4, #8]
10002eaa:	600b      	str	r3, [r1, #0]
10002eac:	4916      	ldr	r1, [pc, #88]	; (10002f08 <dcd_init+0xa0>)
10002eae:	87a0      	strh	r0, [r4, #60]	; 0x3c
10002eb0:	60e1      	str	r1, [r4, #12]
10002eb2:	4688      	mov	r8, r1
10002eb4:	4661      	mov	r1, ip
10002eb6:	3f5e      	subs	r7, #94	; 0x5e
10002eb8:	3802      	subs	r0, #2
10002eba:	55e1      	strb	r1, [r4, r7]
10002ebc:	5423      	strb	r3, [r4, r0]
10002ebe:	3f01      	subs	r7, #1
10002ec0:	4812      	ldr	r0, [pc, #72]	; (10002f0c <dcd_init+0xa4>)
10002ec2:	55e3      	strb	r3, [r4, r7]
10002ec4:	3702      	adds	r7, #2
10002ec6:	55e2      	strb	r2, [r4, r7]
10002ec8:	6063      	str	r3, [r4, #4]
10002eca:	62a0      	str	r0, [r4, #40]	; 0x28
10002ecc:	6003      	str	r3, [r0, #0]
10002ece:	6263      	str	r3, [r4, #36]	; 0x24
10002ed0:	4643      	mov	r3, r8
10002ed2:	62e3      	str	r3, [r4, #44]	; 0x2c
10002ed4:	2380      	movs	r3, #128	; 0x80
10002ed6:	059b      	lsls	r3, r3, #22
10002ed8:	642a      	str	r2, [r5, #64]	; 0x40
10002eda:	64eb      	str	r3, [r5, #76]	; 0x4c
10002edc:	2390      	movs	r3, #144	; 0x90
10002ede:	4a0c      	ldr	r2, [pc, #48]	; (10002f10 <dcd_init+0xa8>)
10002ee0:	0030      	movs	r0, r6
10002ee2:	50ea      	str	r2, [r5, r3]
10002ee4:	f7ff ffb8 	bl	10002e58 <dcd_connect>
10002ee8:	bc04      	pop	{r2}
10002eea:	4690      	mov	r8, r2
10002eec:	bdf0      	pop	{r4, r5, r6, r7, pc}
10002eee:	46c0      	nop			; (mov r8, r8)
10002ef0:	50110000 	.word	0x50110000
10002ef4:	10002c65 	.word	0x10002c65
10002ef8:	20003340 	.word	0x20003340
10002efc:	20003744 	.word	0x20003744
10002f00:	50100180 	.word	0x50100180
10002f04:	50100084 	.word	0x50100084
10002f08:	50100100 	.word	0x50100100
10002f0c:	50100080 	.word	0x50100080
10002f10:	0001d010 	.word	0x0001d010

10002f14 <dcd_edpt0_status_complete>:
10002f14:	780b      	ldrb	r3, [r1, #0]
10002f16:	065b      	lsls	r3, r3, #25
10002f18:	d102      	bne.n	10002f20 <dcd_edpt0_status_complete+0xc>
10002f1a:	784b      	ldrb	r3, [r1, #1]
10002f1c:	2b05      	cmp	r3, #5
10002f1e:	d005      	beq.n	10002f2c <dcd_edpt0_status_complete+0x18>
10002f20:	2201      	movs	r2, #1
10002f22:	2123      	movs	r1, #35	; 0x23
10002f24:	4b03      	ldr	r3, [pc, #12]	; (10002f34 <dcd_edpt0_status_complete+0x20>)
10002f26:	70da      	strb	r2, [r3, #3]
10002f28:	545a      	strb	r2, [r3, r1]
10002f2a:	4770      	bx	lr
10002f2c:	788a      	ldrb	r2, [r1, #2]
10002f2e:	4b02      	ldr	r3, [pc, #8]	; (10002f38 <dcd_edpt0_status_complete+0x24>)
10002f30:	601a      	str	r2, [r3, #0]
10002f32:	e7f5      	b.n	10002f20 <dcd_edpt0_status_complete+0xc>
10002f34:	20003340 	.word	0x20003340
10002f38:	50110000 	.word	0x50110000

10002f3c <dcd_edpt_open>:
10002f3c:	b5f0      	push	{r4, r5, r6, r7, lr}
10002f3e:	4647      	mov	r7, r8
10002f40:	46ce      	mov	lr, r9
10002f42:	2307      	movs	r3, #7
10002f44:	b580      	push	{r7, lr}
10002f46:	7948      	ldrb	r0, [r1, #5]
10002f48:	790a      	ldrb	r2, [r1, #4]
10002f4a:	4003      	ands	r3, r0
10002f4c:	b083      	sub	sp, #12
10002f4e:	021b      	lsls	r3, r3, #8
10002f50:	788f      	ldrb	r7, [r1, #2]
10002f52:	4313      	orrs	r3, r2
10002f54:	78ca      	ldrb	r2, [r1, #3]
10002f56:	4669      	mov	r1, sp
10002f58:	0792      	lsls	r2, r2, #30
10002f5a:	0f92      	lsrs	r2, r2, #30
10002f5c:	71ca      	strb	r2, [r1, #7]
10002f5e:	4694      	mov	ip, r2
10002f60:	227f      	movs	r2, #127	; 0x7f
10002f62:	79cd      	ldrb	r5, [r1, #7]
10002f64:	b279      	sxtb	r1, r7
10002f66:	4688      	mov	r8, r1
10002f68:	403a      	ands	r2, r7
10002f6a:	0fce      	lsrs	r6, r1, #31
10002f6c:	0054      	lsls	r4, r2, #1
10002f6e:	482d      	ldr	r0, [pc, #180]	; (10003024 <dcd_edpt_open+0xe8>)
10002f70:	19a1      	adds	r1, r4, r6
10002f72:	0149      	lsls	r1, r1, #5
10002f74:	1841      	adds	r1, r0, r1
10002f76:	708f      	strb	r7, [r1, #2]
10002f78:	4647      	mov	r7, r8
10002f7a:	43ff      	mvns	r7, r7
10002f7c:	0fff      	lsrs	r7, r7, #31
10002f7e:	704f      	strb	r7, [r1, #1]
10002f80:	4257      	negs	r7, r2
10002f82:	4157      	adcs	r7, r2
10002f84:	70cf      	strb	r7, [r1, #3]
10002f86:	4667      	mov	r7, ip
10002f88:	838b      	strh	r3, [r1, #28]
10002f8a:	778f      	strb	r7, [r1, #30]
10002f8c:	4641      	mov	r1, r8
10002f8e:	2900      	cmp	r1, #0
10002f90:	db2d      	blt.n	10002fee <dcd_edpt_open+0xb2>
10002f92:	4f25      	ldr	r7, [pc, #148]	; (10003028 <dcd_edpt_open+0xec>)
10002f94:	00d1      	lsls	r1, r2, #3
10002f96:	46bc      	mov	ip, r7
10002f98:	0197      	lsls	r7, r2, #6
10002f9a:	4461      	add	r1, ip
10002f9c:	19c7      	adds	r7, r0, r7
10002f9e:	60b9      	str	r1, [r7, #8]
10002fa0:	2700      	movs	r7, #0
10002fa2:	600f      	str	r7, [r1, #0]
10002fa4:	2a00      	cmp	r2, #0
10002fa6:	d02d      	beq.n	10003004 <dcd_edpt_open+0xc8>
10002fa8:	4920      	ldr	r1, [pc, #128]	; (1000302c <dcd_edpt_open+0xf0>)
10002faa:	00d2      	lsls	r2, r2, #3
10002fac:	468c      	mov	ip, r1
10002fae:	4462      	add	r2, ip
10002fb0:	19a1      	adds	r1, r4, r6
10002fb2:	0149      	lsls	r1, r1, #5
10002fb4:	1841      	adds	r1, r0, r1
10002fb6:	604a      	str	r2, [r1, #4]
10002fb8:	491d      	ldr	r1, [pc, #116]	; (10003030 <dcd_edpt_open+0xf4>)
10002fba:	333f      	adds	r3, #63	; 0x3f
10002fbc:	400b      	ands	r3, r1
10002fbe:	2d02      	cmp	r5, #2
10002fc0:	d02c      	beq.n	1000301c <dcd_edpt_open+0xe0>
10002fc2:	4f1c      	ldr	r7, [pc, #112]	; (10003034 <dcd_edpt_open+0xf8>)
10002fc4:	19a4      	adds	r4, r4, r6
10002fc6:	6839      	ldr	r1, [r7, #0]
10002fc8:	0164      	lsls	r4, r4, #5
10002fca:	18cb      	adds	r3, r1, r3
10002fcc:	603b      	str	r3, [r7, #0]
10002fce:	4b1a      	ldr	r3, [pc, #104]	; (10003038 <dcd_edpt_open+0xfc>)
10002fd0:	1900      	adds	r0, r0, r4
10002fd2:	60c1      	str	r1, [r0, #12]
10002fd4:	4059      	eors	r1, r3
10002fd6:	2380      	movs	r3, #128	; 0x80
10002fd8:	061b      	lsls	r3, r3, #24
10002fda:	430b      	orrs	r3, r1
10002fdc:	06ad      	lsls	r5, r5, #26
10002fde:	431d      	orrs	r5, r3
10002fe0:	6015      	str	r5, [r2, #0]
10002fe2:	2001      	movs	r0, #1
10002fe4:	b003      	add	sp, #12
10002fe6:	bc0c      	pop	{r2, r3}
10002fe8:	4690      	mov	r8, r2
10002fea:	4699      	mov	r9, r3
10002fec:	bdf0      	pop	{r4, r5, r6, r7, pc}
10002fee:	4f13      	ldr	r7, [pc, #76]	; (1000303c <dcd_edpt_open+0x100>)
10002ff0:	00d1      	lsls	r1, r2, #3
10002ff2:	46bc      	mov	ip, r7
10002ff4:	0197      	lsls	r7, r2, #6
10002ff6:	4461      	add	r1, ip
10002ff8:	19c7      	adds	r7, r0, r7
10002ffa:	62b9      	str	r1, [r7, #40]	; 0x28
10002ffc:	2700      	movs	r7, #0
10002ffe:	600f      	str	r7, [r1, #0]
10003000:	2a00      	cmp	r2, #0
10003002:	d106      	bne.n	10003012 <dcd_edpt_open+0xd6>
10003004:	2300      	movs	r3, #0
10003006:	0176      	lsls	r6, r6, #5
10003008:	1980      	adds	r0, r0, r6
1000300a:	6043      	str	r3, [r0, #4]
1000300c:	4b0c      	ldr	r3, [pc, #48]	; (10003040 <dcd_edpt_open+0x104>)
1000300e:	60c3      	str	r3, [r0, #12]
10003010:	e7e7      	b.n	10002fe2 <dcd_edpt_open+0xa6>
10003012:	4909      	ldr	r1, [pc, #36]	; (10003038 <dcd_edpt_open+0xfc>)
10003014:	00d2      	lsls	r2, r2, #3
10003016:	468c      	mov	ip, r1
10003018:	4462      	add	r2, ip
1000301a:	e7c9      	b.n	10002fb0 <dcd_edpt_open+0x74>
1000301c:	005b      	lsls	r3, r3, #1
1000301e:	b29b      	uxth	r3, r3
10003020:	e7cf      	b.n	10002fc2 <dcd_edpt_open+0x86>
10003022:	46c0      	nop			; (mov r8, r8)
10003024:	20003340 	.word	0x20003340
10003028:	50100084 	.word	0x50100084
1000302c:	50100004 	.word	0x50100004
10003030:	0000ffc0 	.word	0x0000ffc0
10003034:	20003744 	.word	0x20003744
10003038:	50100000 	.word	0x50100000
1000303c:	50100080 	.word	0x50100080
10003040:	50100100 	.word	0x50100100

10003044 <dcd_edpt_xfer>:
10003044:	207f      	movs	r0, #127	; 0x7f
10003046:	b570      	push	{r4, r5, r6, lr}
10003048:	0015      	movs	r5, r2
1000304a:	4008      	ands	r0, r1
1000304c:	0040      	lsls	r0, r0, #1
1000304e:	09c9      	lsrs	r1, r1, #7
10003050:	4c04      	ldr	r4, [pc, #16]	; (10003064 <dcd_edpt_xfer+0x20>)
10003052:	1840      	adds	r0, r0, r1
10003054:	0140      	lsls	r0, r0, #5
10003056:	1820      	adds	r0, r4, r0
10003058:	0029      	movs	r1, r5
1000305a:	001a      	movs	r2, r3
1000305c:	f000 f890 	bl	10003180 <hw_endpoint_xfer_start>
10003060:	2001      	movs	r0, #1
10003062:	bd70      	pop	{r4, r5, r6, pc}
10003064:	20003340 	.word	0x20003340

10003068 <dcd_edpt_stall>:
10003068:	207f      	movs	r0, #127	; 0x7f
1000306a:	b510      	push	{r4, lr}
1000306c:	4008      	ands	r0, r1
1000306e:	b249      	sxtb	r1, r1
10003070:	2800      	cmp	r0, #0
10003072:	d104      	bne.n	1000307e <dcd_edpt_stall+0x16>
10003074:	43cb      	mvns	r3, r1
10003076:	4a08      	ldr	r2, [pc, #32]	; (10003098 <dcd_edpt_stall+0x30>)
10003078:	0fdb      	lsrs	r3, r3, #31
1000307a:	3301      	adds	r3, #1
1000307c:	6693      	str	r3, [r2, #104]	; 0x68
1000307e:	2280      	movs	r2, #128	; 0x80
10003080:	0fc9      	lsrs	r1, r1, #31
10003082:	0040      	lsls	r0, r0, #1
10003084:	1840      	adds	r0, r0, r1
10003086:	4905      	ldr	r1, [pc, #20]	; (1000309c <dcd_edpt_stall+0x34>)
10003088:	0140      	lsls	r0, r0, #5
1000308a:	1808      	adds	r0, r1, r0
1000308c:	0112      	lsls	r2, r2, #4
1000308e:	4904      	ldr	r1, [pc, #16]	; (100030a0 <dcd_edpt_stall+0x38>)
10003090:	f000 f84a 	bl	10003128 <_hw_endpoint_buffer_control_update32>
10003094:	bd10      	pop	{r4, pc}
10003096:	46c0      	nop			; (mov r8, r8)
10003098:	50112000 	.word	0x50112000
1000309c:	20003340 	.word	0x20003340
100030a0:	fffff7ff 	.word	0xfffff7ff

100030a4 <dcd_edpt_clear_stall>:
100030a4:	237f      	movs	r3, #127	; 0x7f
100030a6:	b510      	push	{r4, lr}
100030a8:	400b      	ands	r3, r1
100030aa:	d009      	beq.n	100030c0 <dcd_edpt_clear_stall+0x1c>
100030ac:	09c9      	lsrs	r1, r1, #7
100030ae:	005b      	lsls	r3, r3, #1
100030b0:	18cb      	adds	r3, r1, r3
100030b2:	4804      	ldr	r0, [pc, #16]	; (100030c4 <dcd_edpt_clear_stall+0x20>)
100030b4:	015b      	lsls	r3, r3, #5
100030b6:	18c0      	adds	r0, r0, r3
100030b8:	2200      	movs	r2, #0
100030ba:	4903      	ldr	r1, [pc, #12]	; (100030c8 <dcd_edpt_clear_stall+0x24>)
100030bc:	f000 f834 	bl	10003128 <_hw_endpoint_buffer_control_update32>
100030c0:	bd10      	pop	{r4, pc}
100030c2:	46c0      	nop			; (mov r8, r8)
100030c4:	20003340 	.word	0x20003340
100030c8:	ffffd7ff 	.word	0xffffd7ff

100030cc <rp2040_usb_init>:
100030cc:	2280      	movs	r2, #128	; 0x80
100030ce:	4b0d      	ldr	r3, [pc, #52]	; (10003104 <rp2040_usb_init+0x38>)
100030d0:	0452      	lsls	r2, r2, #17
100030d2:	b510      	push	{r4, lr}
100030d4:	601a      	str	r2, [r3, #0]
100030d6:	4b0c      	ldr	r3, [pc, #48]	; (10003108 <rp2040_usb_init+0x3c>)
100030d8:	490c      	ldr	r1, [pc, #48]	; (1000310c <rp2040_usb_init+0x40>)
100030da:	601a      	str	r2, [r3, #0]
100030dc:	0010      	movs	r0, r2
100030de:	688b      	ldr	r3, [r1, #8]
100030e0:	4398      	bics	r0, r3
100030e2:	d1fb      	bne.n	100030dc <rp2040_usb_init+0x10>
100030e4:	4c0a      	ldr	r4, [pc, #40]	; (10003110 <rp2040_usb_init+0x44>)
100030e6:	229c      	movs	r2, #156	; 0x9c
100030e8:	2100      	movs	r1, #0
100030ea:	0020      	movs	r0, r4
100030ec:	f7ff fb64 	bl	100027b8 <__wrap_memset>
100030f0:	2280      	movs	r2, #128	; 0x80
100030f2:	2100      	movs	r1, #0
100030f4:	0152      	lsls	r2, r2, #5
100030f6:	4807      	ldr	r0, [pc, #28]	; (10003114 <rp2040_usb_init+0x48>)
100030f8:	f7ff fb5e 	bl	100027b8 <__wrap_memset>
100030fc:	2309      	movs	r3, #9
100030fe:	6763      	str	r3, [r4, #116]	; 0x74
10003100:	bd10      	pop	{r4, pc}
10003102:	46c0      	nop			; (mov r8, r8)
10003104:	4000e000 	.word	0x4000e000
10003108:	4000f000 	.word	0x4000f000
1000310c:	4000c000 	.word	0x4000c000
10003110:	50110000 	.word	0x50110000
10003114:	50100000 	.word	0x50100000

10003118 <hw_endpoint_reset_transfer>:
10003118:	2300      	movs	r3, #0
1000311a:	7403      	strb	r3, [r0, #16]
1000311c:	7443      	strb	r3, [r0, #17]
1000311e:	8243      	strh	r3, [r0, #18]
10003120:	8283      	strh	r3, [r0, #20]
10003122:	6183      	str	r3, [r0, #24]
10003124:	4770      	bx	lr
10003126:	46c0      	nop			; (mov r8, r8)

10003128 <_hw_endpoint_buffer_control_update32>:
10003128:	b510      	push	{r4, lr}
1000312a:	6883      	ldr	r3, [r0, #8]
1000312c:	2900      	cmp	r1, #0
1000312e:	d001      	beq.n	10003134 <_hw_endpoint_buffer_control_update32+0xc>
10003130:	681c      	ldr	r4, [r3, #0]
10003132:	4021      	ands	r1, r4
10003134:	2a00      	cmp	r2, #0
10003136:	d011      	beq.n	1000315c <_hw_endpoint_buffer_control_update32+0x34>
10003138:	2480      	movs	r4, #128	; 0x80
1000313a:	00e4      	lsls	r4, r4, #3
1000313c:	4311      	orrs	r1, r2
1000313e:	4222      	tst	r2, r4
10003140:	d00c      	beq.n	1000315c <_hw_endpoint_buffer_control_update32+0x34>
10003142:	681a      	ldr	r2, [r3, #0]
10003144:	4222      	tst	r2, r4
10003146:	d10b      	bne.n	10003160 <_hw_endpoint_buffer_control_update32+0x38>
10003148:	4a0a      	ldr	r2, [pc, #40]	; (10003174 <_hw_endpoint_buffer_control_update32+0x4c>)
1000314a:	400a      	ands	r2, r1
1000314c:	601a      	str	r2, [r3, #0]
1000314e:	e7ff      	b.n	10003150 <_hw_endpoint_buffer_control_update32+0x28>
10003150:	e7ff      	b.n	10003152 <_hw_endpoint_buffer_control_update32+0x2a>
10003152:	e7ff      	b.n	10003154 <_hw_endpoint_buffer_control_update32+0x2c>
10003154:	e7ff      	b.n	10003156 <_hw_endpoint_buffer_control_update32+0x2e>
10003156:	e7ff      	b.n	10003158 <_hw_endpoint_buffer_control_update32+0x30>
10003158:	e7ff      	b.n	1000315a <_hw_endpoint_buffer_control_update32+0x32>
1000315a:	6883      	ldr	r3, [r0, #8]
1000315c:	6019      	str	r1, [r3, #0]
1000315e:	bd10      	pop	{r4, pc}
10003160:	227f      	movs	r2, #127	; 0x7f
10003162:	7881      	ldrb	r1, [r0, #2]
10003164:	4804      	ldr	r0, [pc, #16]	; (10003178 <_hw_endpoint_buffer_control_update32+0x50>)
10003166:	09cb      	lsrs	r3, r1, #7
10003168:	4011      	ands	r1, r2
1000316a:	4a04      	ldr	r2, [pc, #16]	; (1000317c <_hw_endpoint_buffer_control_update32+0x54>)
1000316c:	009b      	lsls	r3, r3, #2
1000316e:	589a      	ldr	r2, [r3, r2]
10003170:	f7fe fc44 	bl	100019fc <panic>
10003174:	fffffbff 	.word	0xfffffbff
10003178:	10006cf0 	.word	0x10006cf0
1000317c:	20002434 	.word	0x20002434

10003180 <hw_endpoint_xfer_start>:
10003180:	b5f8      	push	{r3, r4, r5, r6, r7, lr}
10003182:	46ce      	mov	lr, r9
10003184:	4647      	mov	r7, r8
10003186:	b580      	push	{r7, lr}
10003188:	7c43      	ldrb	r3, [r0, #17]
1000318a:	0004      	movs	r4, r0
1000318c:	2b00      	cmp	r3, #0
1000318e:	d001      	beq.n	10003194 <hw_endpoint_xfer_start+0x14>
10003190:	2300      	movs	r3, #0
10003192:	7403      	strb	r3, [r0, #16]
10003194:	2300      	movs	r3, #0
10003196:	82a3      	strh	r3, [r4, #20]
10003198:	3301      	adds	r3, #1
1000319a:	7463      	strb	r3, [r4, #17]
1000319c:	6863      	ldr	r3, [r4, #4]
1000319e:	61a1      	str	r1, [r4, #24]
100031a0:	681b      	ldr	r3, [r3, #0]
100031a2:	4699      	mov	r9, r3
100031a4:	8ba3      	ldrh	r3, [r4, #28]
100031a6:	1c1e      	adds	r6, r3, #0
100031a8:	4293      	cmp	r3, r2
100031aa:	d900      	bls.n	100031ae <hw_endpoint_xfer_start+0x2e>
100031ac:	1c16      	adds	r6, r2, #0
100031ae:	78e3      	ldrb	r3, [r4, #3]
100031b0:	2580      	movs	r5, #128	; 0x80
100031b2:	0018      	movs	r0, r3
100031b4:	1e47      	subs	r7, r0, #1
100031b6:	41b8      	sbcs	r0, r7
100031b8:	b2b6      	uxth	r6, r6
100031ba:	00ed      	lsls	r5, r5, #3
100031bc:	0340      	lsls	r0, r0, #13
100031be:	4335      	orrs	r5, r6
100031c0:	4305      	orrs	r5, r0
100031c2:	2001      	movs	r0, #1
100031c4:	4043      	eors	r3, r0
100031c6:	1b92      	subs	r2, r2, r6
100031c8:	70e3      	strb	r3, [r4, #3]
100031ca:	7863      	ldrb	r3, [r4, #1]
100031cc:	b292      	uxth	r2, r2
100031ce:	8262      	strh	r2, [r4, #18]
100031d0:	2b00      	cmp	r3, #0
100031d2:	d052      	beq.n	1000327a <hw_endpoint_xfer_start+0xfa>
100031d4:	2a00      	cmp	r2, #0
100031d6:	d11f      	bne.n	10003218 <hw_endpoint_xfer_start+0x98>
100031d8:	23a0      	movs	r3, #160	; 0xa0
100031da:	01db      	lsls	r3, r3, #7
100031dc:	431d      	orrs	r5, r3
100031de:	4b39      	ldr	r3, [pc, #228]	; (100032c4 <hw_endpoint_xfer_start+0x144>)
100031e0:	6c1b      	ldr	r3, [r3, #64]	; 0x40
100031e2:	464a      	mov	r2, r9
100031e4:	2780      	movs	r7, #128	; 0x80
100031e6:	4b38      	ldr	r3, [pc, #224]	; (100032c8 <hw_endpoint_xfer_start+0x148>)
100031e8:	05bf      	lsls	r7, r7, #22
100031ea:	4013      	ands	r3, r2
100031ec:	431f      	orrs	r7, r3
100031ee:	6863      	ldr	r3, [r4, #4]
100031f0:	68a2      	ldr	r2, [r4, #8]
100031f2:	601f      	str	r7, [r3, #0]
100031f4:	6813      	ldr	r3, [r2, #0]
100031f6:	055b      	lsls	r3, r3, #21
100031f8:	d45a      	bmi.n	100032b0 <hw_endpoint_xfer_start+0x130>
100031fa:	4b34      	ldr	r3, [pc, #208]	; (100032cc <hw_endpoint_xfer_start+0x14c>)
100031fc:	402b      	ands	r3, r5
100031fe:	6013      	str	r3, [r2, #0]
10003200:	e7ff      	b.n	10003202 <hw_endpoint_xfer_start+0x82>
10003202:	e7ff      	b.n	10003204 <hw_endpoint_xfer_start+0x84>
10003204:	e7ff      	b.n	10003206 <hw_endpoint_xfer_start+0x86>
10003206:	e7ff      	b.n	10003208 <hw_endpoint_xfer_start+0x88>
10003208:	e7ff      	b.n	1000320a <hw_endpoint_xfer_start+0x8a>
1000320a:	e7ff      	b.n	1000320c <hw_endpoint_xfer_start+0x8c>
1000320c:	68a3      	ldr	r3, [r4, #8]
1000320e:	601d      	str	r5, [r3, #0]
10003210:	bc0c      	pop	{r2, r3}
10003212:	4690      	mov	r8, r2
10003214:	4699      	mov	r9, r3
10003216:	bdf8      	pop	{r3, r4, r5, r6, r7, pc}
10003218:	2380      	movs	r3, #128	; 0x80
1000321a:	015b      	lsls	r3, r3, #5
1000321c:	431d      	orrs	r5, r3
1000321e:	4b29      	ldr	r3, [pc, #164]	; (100032c4 <hw_endpoint_xfer_start+0x144>)
10003220:	6c1b      	ldr	r3, [r3, #64]	; 0x40
10003222:	079b      	lsls	r3, r3, #30
10003224:	d402      	bmi.n	1000322c <hw_endpoint_xfer_start+0xac>
10003226:	78a3      	ldrb	r3, [r4, #2]
10003228:	2b7f      	cmp	r3, #127	; 0x7f
1000322a:	d9da      	bls.n	100031e2 <hw_endpoint_xfer_start+0x62>
1000322c:	8ba3      	ldrh	r3, [r4, #28]
1000322e:	1c19      	adds	r1, r3, #0
10003230:	4293      	cmp	r3, r2
10003232:	d900      	bls.n	10003236 <hw_endpoint_xfer_start+0xb6>
10003234:	1c11      	adds	r1, r2, #0
10003236:	2680      	movs	r6, #128	; 0x80
10003238:	b28b      	uxth	r3, r1
1000323a:	00f6      	lsls	r6, r6, #3
1000323c:	1ad2      	subs	r2, r2, r3
1000323e:	431e      	orrs	r6, r3
10003240:	4698      	mov	r8, r3
10003242:	78e3      	ldrb	r3, [r4, #3]
10003244:	b292      	uxth	r2, r2
10003246:	0019      	movs	r1, r3
10003248:	1e48      	subs	r0, r1, #1
1000324a:	4181      	sbcs	r1, r0
1000324c:	0349      	lsls	r1, r1, #13
1000324e:	430e      	orrs	r6, r1
10003250:	2101      	movs	r1, #1
10003252:	404b      	eors	r3, r1
10003254:	70e3      	strb	r3, [r4, #3]
10003256:	7863      	ldrb	r3, [r4, #1]
10003258:	8262      	strh	r2, [r4, #18]
1000325a:	2b00      	cmp	r3, #0
1000325c:	d01a      	beq.n	10003294 <hw_endpoint_xfer_start+0x114>
1000325e:	2a00      	cmp	r2, #0
10003260:	d102      	bne.n	10003268 <hw_endpoint_xfer_start+0xe8>
10003262:	2380      	movs	r3, #128	; 0x80
10003264:	01db      	lsls	r3, r3, #7
10003266:	431e      	orrs	r6, r3
10003268:	464a      	mov	r2, r9
1000326a:	27a0      	movs	r7, #160	; 0xa0
1000326c:	4b18      	ldr	r3, [pc, #96]	; (100032d0 <hw_endpoint_xfer_start+0x150>)
1000326e:	0436      	lsls	r6, r6, #16
10003270:	4013      	ands	r3, r2
10003272:	05ff      	lsls	r7, r7, #23
10003274:	4335      	orrs	r5, r6
10003276:	431f      	orrs	r7, r3
10003278:	e7b9      	b.n	100031ee <hw_endpoint_xfer_start+0x6e>
1000327a:	0032      	movs	r2, r6
1000327c:	68e0      	ldr	r0, [r4, #12]
1000327e:	f7ff faa1 	bl	100027c4 <__wrap___aeabi_memcpy>
10003282:	69a3      	ldr	r3, [r4, #24]
10003284:	8a62      	ldrh	r2, [r4, #18]
10003286:	469c      	mov	ip, r3
10003288:	2380      	movs	r3, #128	; 0x80
1000328a:	4466      	add	r6, ip
1000328c:	021b      	lsls	r3, r3, #8
1000328e:	61a6      	str	r6, [r4, #24]
10003290:	431d      	orrs	r5, r3
10003292:	e79f      	b.n	100031d4 <hw_endpoint_xfer_start+0x54>
10003294:	68e0      	ldr	r0, [r4, #12]
10003296:	4642      	mov	r2, r8
10003298:	3040      	adds	r0, #64	; 0x40
1000329a:	69a1      	ldr	r1, [r4, #24]
1000329c:	f7ff fa92 	bl	100027c4 <__wrap___aeabi_memcpy>
100032a0:	69a3      	ldr	r3, [r4, #24]
100032a2:	8a62      	ldrh	r2, [r4, #18]
100032a4:	4443      	add	r3, r8
100032a6:	61a3      	str	r3, [r4, #24]
100032a8:	2380      	movs	r3, #128	; 0x80
100032aa:	021b      	lsls	r3, r3, #8
100032ac:	431e      	orrs	r6, r3
100032ae:	e7d6      	b.n	1000325e <hw_endpoint_xfer_start+0xde>
100032b0:	227f      	movs	r2, #127	; 0x7f
100032b2:	78a1      	ldrb	r1, [r4, #2]
100032b4:	4807      	ldr	r0, [pc, #28]	; (100032d4 <hw_endpoint_xfer_start+0x154>)
100032b6:	09cb      	lsrs	r3, r1, #7
100032b8:	4011      	ands	r1, r2
100032ba:	4a07      	ldr	r2, [pc, #28]	; (100032d8 <hw_endpoint_xfer_start+0x158>)
100032bc:	009b      	lsls	r3, r3, #2
100032be:	589a      	ldr	r2, [r3, r2]
100032c0:	f7fe fb9c 	bl	100019fc <panic>
100032c4:	50110000 	.word	0x50110000
100032c8:	afffffff 	.word	0xafffffff
100032cc:	fffffbff 	.word	0xfffffbff
100032d0:	dfffffff 	.word	0xdfffffff
100032d4:	10006cf0 	.word	0x10006cf0
100032d8:	20002434 	.word	0x20002434

100032dc <hw_endpoint_xfer_continue>:
100032dc:	b5f0      	push	{r4, r5, r6, r7, lr}
100032de:	46c6      	mov	lr, r8
100032e0:	b500      	push	{lr}
100032e2:	7c46      	ldrb	r6, [r0, #17]
100032e4:	0004      	movs	r4, r0
100032e6:	2e00      	cmp	r6, #0
100032e8:	d100      	bne.n	100032ec <hw_endpoint_xfer_continue+0x10>
100032ea:	e0d4      	b.n	10003496 <hw_endpoint_xfer_continue+0x1ba>
100032ec:	6883      	ldr	r3, [r0, #8]
100032ee:	681a      	ldr	r2, [r3, #0]
100032f0:	681d      	ldr	r5, [r3, #0]
100032f2:	7843      	ldrb	r3, [r0, #1]
100032f4:	05ad      	lsls	r5, r5, #22
100032f6:	0dad      	lsrs	r5, r5, #22
100032f8:	2b00      	cmp	r3, #0
100032fa:	d000      	beq.n	100032fe <hw_endpoint_xfer_continue+0x22>
100032fc:	e063      	b.n	100033c6 <hw_endpoint_xfer_continue+0xea>
100032fe:	8a83      	ldrh	r3, [r0, #20]
10003300:	18eb      	adds	r3, r5, r3
10003302:	b29b      	uxth	r3, r3
10003304:	8283      	strh	r3, [r0, #20]
10003306:	8ba1      	ldrh	r1, [r4, #28]
10003308:	428d      	cmp	r5, r1
1000330a:	d207      	bcs.n	1000331c <hw_endpoint_xfer_continue+0x40>
1000330c:	2300      	movs	r3, #0
1000330e:	8263      	strh	r3, [r4, #18]
10003310:	6863      	ldr	r3, [r4, #4]
10003312:	681b      	ldr	r3, [r3, #0]
10003314:	0030      	movs	r0, r6
10003316:	bc04      	pop	{r2}
10003318:	4690      	mov	r8, r2
1000331a:	bdf0      	pop	{r4, r5, r6, r7, pc}
1000331c:	6862      	ldr	r2, [r4, #4]
1000331e:	6812      	ldr	r2, [r2, #0]
10003320:	0052      	lsls	r2, r2, #1
10003322:	d510      	bpl.n	10003346 <hw_endpoint_xfer_continue+0x6a>
10003324:	428d      	cmp	r5, r1
10003326:	d10e      	bne.n	10003346 <hw_endpoint_xfer_continue+0x6a>
10003328:	68a2      	ldr	r2, [r4, #8]
1000332a:	6817      	ldr	r7, [r2, #0]
1000332c:	7862      	ldrb	r2, [r4, #1]
1000332e:	01bf      	lsls	r7, r7, #6
10003330:	0dbf      	lsrs	r7, r7, #22
10003332:	2a00      	cmp	r2, #0
10003334:	d000      	beq.n	10003338 <hw_endpoint_xfer_continue+0x5c>
10003336:	e092      	b.n	1000345e <hw_endpoint_xfer_continue+0x182>
10003338:	18fb      	adds	r3, r7, r3
1000333a:	82a3      	strh	r3, [r4, #20]
1000333c:	42af      	cmp	r7, r5
1000333e:	d265      	bcs.n	1000340c <hw_endpoint_xfer_continue+0x130>
10003340:	2300      	movs	r3, #0
10003342:	8263      	strh	r3, [r4, #18]
10003344:	e7e6      	b.n	10003314 <hw_endpoint_xfer_continue+0x38>
10003346:	8a63      	ldrh	r3, [r4, #18]
10003348:	2b00      	cmp	r3, #0
1000334a:	d0e3      	beq.n	10003314 <hw_endpoint_xfer_continue+0x38>
1000334c:	6862      	ldr	r2, [r4, #4]
1000334e:	1c0f      	adds	r7, r1, #0
10003350:	6816      	ldr	r6, [r2, #0]
10003352:	4299      	cmp	r1, r3
10003354:	d84a      	bhi.n	100033ec <hw_endpoint_xfer_continue+0x110>
10003356:	78e2      	ldrb	r2, [r4, #3]
10003358:	2580      	movs	r5, #128	; 0x80
1000335a:	0011      	movs	r1, r2
1000335c:	1e48      	subs	r0, r1, #1
1000335e:	4181      	sbcs	r1, r0
10003360:	b2bf      	uxth	r7, r7
10003362:	00ed      	lsls	r5, r5, #3
10003364:	0349      	lsls	r1, r1, #13
10003366:	433d      	orrs	r5, r7
10003368:	430d      	orrs	r5, r1
1000336a:	2101      	movs	r1, #1
1000336c:	404a      	eors	r2, r1
1000336e:	1bdb      	subs	r3, r3, r7
10003370:	70e2      	strb	r2, [r4, #3]
10003372:	7862      	ldrb	r2, [r4, #1]
10003374:	b29b      	uxth	r3, r3
10003376:	8263      	strh	r3, [r4, #18]
10003378:	2a00      	cmp	r2, #0
1000337a:	d039      	beq.n	100033f0 <hw_endpoint_xfer_continue+0x114>
1000337c:	2b00      	cmp	r3, #0
1000337e:	d02f      	beq.n	100033e0 <hw_endpoint_xfer_continue+0x104>
10003380:	2280      	movs	r2, #128	; 0x80
10003382:	0152      	lsls	r2, r2, #5
10003384:	4315      	orrs	r5, r2
10003386:	4a4c      	ldr	r2, [pc, #304]	; (100034b8 <hw_endpoint_xfer_continue+0x1dc>)
10003388:	6c12      	ldr	r2, [r2, #64]	; 0x40
1000338a:	0792      	lsls	r2, r2, #30
1000338c:	d441      	bmi.n	10003412 <hw_endpoint_xfer_continue+0x136>
1000338e:	78a2      	ldrb	r2, [r4, #2]
10003390:	2a7f      	cmp	r2, #127	; 0x7f
10003392:	d83e      	bhi.n	10003412 <hw_endpoint_xfer_continue+0x136>
10003394:	4b49      	ldr	r3, [pc, #292]	; (100034bc <hw_endpoint_xfer_continue+0x1e0>)
10003396:	4033      	ands	r3, r6
10003398:	2680      	movs	r6, #128	; 0x80
1000339a:	05b6      	lsls	r6, r6, #22
1000339c:	431e      	orrs	r6, r3
1000339e:	6863      	ldr	r3, [r4, #4]
100033a0:	68a2      	ldr	r2, [r4, #8]
100033a2:	601e      	str	r6, [r3, #0]
100033a4:	6813      	ldr	r3, [r2, #0]
100033a6:	055b      	lsls	r3, r3, #21
100033a8:	d500      	bpl.n	100033ac <hw_endpoint_xfer_continue+0xd0>
100033aa:	e07b      	b.n	100034a4 <hw_endpoint_xfer_continue+0x1c8>
100033ac:	4b44      	ldr	r3, [pc, #272]	; (100034c0 <hw_endpoint_xfer_continue+0x1e4>)
100033ae:	402b      	ands	r3, r5
100033b0:	6013      	str	r3, [r2, #0]
100033b2:	e7ff      	b.n	100033b4 <hw_endpoint_xfer_continue+0xd8>
100033b4:	e7ff      	b.n	100033b6 <hw_endpoint_xfer_continue+0xda>
100033b6:	e7ff      	b.n	100033b8 <hw_endpoint_xfer_continue+0xdc>
100033b8:	e7ff      	b.n	100033ba <hw_endpoint_xfer_continue+0xde>
100033ba:	e7ff      	b.n	100033bc <hw_endpoint_xfer_continue+0xe0>
100033bc:	e7ff      	b.n	100033be <hw_endpoint_xfer_continue+0xe2>
100033be:	68a3      	ldr	r3, [r4, #8]
100033c0:	2600      	movs	r6, #0
100033c2:	601d      	str	r5, [r3, #0]
100033c4:	e7a6      	b.n	10003314 <hw_endpoint_xfer_continue+0x38>
100033c6:	002a      	movs	r2, r5
100033c8:	68c1      	ldr	r1, [r0, #12]
100033ca:	6980      	ldr	r0, [r0, #24]
100033cc:	f7ff f9fa 	bl	100027c4 <__wrap___aeabi_memcpy>
100033d0:	8aa3      	ldrh	r3, [r4, #20]
100033d2:	69a2      	ldr	r2, [r4, #24]
100033d4:	18eb      	adds	r3, r5, r3
100033d6:	b29b      	uxth	r3, r3
100033d8:	1952      	adds	r2, r2, r5
100033da:	82a3      	strh	r3, [r4, #20]
100033dc:	61a2      	str	r2, [r4, #24]
100033de:	e792      	b.n	10003306 <hw_endpoint_xfer_continue+0x2a>
100033e0:	23a0      	movs	r3, #160	; 0xa0
100033e2:	01db      	lsls	r3, r3, #7
100033e4:	431d      	orrs	r5, r3
100033e6:	4b34      	ldr	r3, [pc, #208]	; (100034b8 <hw_endpoint_xfer_continue+0x1dc>)
100033e8:	6c1b      	ldr	r3, [r3, #64]	; 0x40
100033ea:	e7d3      	b.n	10003394 <hw_endpoint_xfer_continue+0xb8>
100033ec:	1c1f      	adds	r7, r3, #0
100033ee:	e7b2      	b.n	10003356 <hw_endpoint_xfer_continue+0x7a>
100033f0:	003a      	movs	r2, r7
100033f2:	69a1      	ldr	r1, [r4, #24]
100033f4:	68e0      	ldr	r0, [r4, #12]
100033f6:	f7ff f9e5 	bl	100027c4 <__wrap___aeabi_memcpy>
100033fa:	69a3      	ldr	r3, [r4, #24]
100033fc:	469c      	mov	ip, r3
100033fe:	2380      	movs	r3, #128	; 0x80
10003400:	4467      	add	r7, ip
10003402:	021b      	lsls	r3, r3, #8
10003404:	431d      	orrs	r5, r3
10003406:	61a7      	str	r7, [r4, #24]
10003408:	8a63      	ldrh	r3, [r4, #18]
1000340a:	e7b7      	b.n	1000337c <hw_endpoint_xfer_continue+0xa0>
1000340c:	8a63      	ldrh	r3, [r4, #18]
1000340e:	0029      	movs	r1, r5
10003410:	e79a      	b.n	10003348 <hw_endpoint_xfer_continue+0x6c>
10003412:	8ba2      	ldrh	r2, [r4, #28]
10003414:	1c11      	adds	r1, r2, #0
10003416:	429a      	cmp	r2, r3
10003418:	d900      	bls.n	1000341c <hw_endpoint_xfer_continue+0x140>
1000341a:	1c19      	adds	r1, r3, #0
1000341c:	2780      	movs	r7, #128	; 0x80
1000341e:	b28a      	uxth	r2, r1
10003420:	00ff      	lsls	r7, r7, #3
10003422:	1a9b      	subs	r3, r3, r2
10003424:	4317      	orrs	r7, r2
10003426:	4690      	mov	r8, r2
10003428:	78e2      	ldrb	r2, [r4, #3]
1000342a:	b29b      	uxth	r3, r3
1000342c:	0011      	movs	r1, r2
1000342e:	1e48      	subs	r0, r1, #1
10003430:	4181      	sbcs	r1, r0
10003432:	0349      	lsls	r1, r1, #13
10003434:	430f      	orrs	r7, r1
10003436:	2101      	movs	r1, #1
10003438:	404a      	eors	r2, r1
1000343a:	70e2      	strb	r2, [r4, #3]
1000343c:	7862      	ldrb	r2, [r4, #1]
1000343e:	8263      	strh	r3, [r4, #18]
10003440:	2a00      	cmp	r2, #0
10003442:	d01a      	beq.n	1000347a <hw_endpoint_xfer_continue+0x19e>
10003444:	2b00      	cmp	r3, #0
10003446:	d102      	bne.n	1000344e <hw_endpoint_xfer_continue+0x172>
10003448:	2380      	movs	r3, #128	; 0x80
1000344a:	01db      	lsls	r3, r3, #7
1000344c:	431f      	orrs	r7, r3
1000344e:	4b1d      	ldr	r3, [pc, #116]	; (100034c4 <hw_endpoint_xfer_continue+0x1e8>)
10003450:	043f      	lsls	r7, r7, #16
10003452:	4033      	ands	r3, r6
10003454:	26a0      	movs	r6, #160	; 0xa0
10003456:	05f6      	lsls	r6, r6, #23
10003458:	433d      	orrs	r5, r7
1000345a:	431e      	orrs	r6, r3
1000345c:	e79f      	b.n	1000339e <hw_endpoint_xfer_continue+0xc2>
1000345e:	68e1      	ldr	r1, [r4, #12]
10003460:	003a      	movs	r2, r7
10003462:	3140      	adds	r1, #64	; 0x40
10003464:	69a0      	ldr	r0, [r4, #24]
10003466:	f7ff f9ad 	bl	100027c4 <__wrap___aeabi_memcpy>
1000346a:	8aa3      	ldrh	r3, [r4, #20]
1000346c:	8ba5      	ldrh	r5, [r4, #28]
1000346e:	18fb      	adds	r3, r7, r3
10003470:	82a3      	strh	r3, [r4, #20]
10003472:	69a3      	ldr	r3, [r4, #24]
10003474:	19db      	adds	r3, r3, r7
10003476:	61a3      	str	r3, [r4, #24]
10003478:	e760      	b.n	1000333c <hw_endpoint_xfer_continue+0x60>
1000347a:	68e0      	ldr	r0, [r4, #12]
1000347c:	4642      	mov	r2, r8
1000347e:	3040      	adds	r0, #64	; 0x40
10003480:	69a1      	ldr	r1, [r4, #24]
10003482:	f7ff f99f 	bl	100027c4 <__wrap___aeabi_memcpy>
10003486:	69a3      	ldr	r3, [r4, #24]
10003488:	4443      	add	r3, r8
1000348a:	61a3      	str	r3, [r4, #24]
1000348c:	2380      	movs	r3, #128	; 0x80
1000348e:	021b      	lsls	r3, r3, #8
10003490:	431f      	orrs	r7, r3
10003492:	8a63      	ldrh	r3, [r4, #18]
10003494:	e7d6      	b.n	10003444 <hw_endpoint_xfer_continue+0x168>
10003496:	237f      	movs	r3, #127	; 0x7f
10003498:	7881      	ldrb	r1, [r0, #2]
1000349a:	4a0b      	ldr	r2, [pc, #44]	; (100034c8 <hw_endpoint_xfer_continue+0x1ec>)
1000349c:	4019      	ands	r1, r3
1000349e:	480b      	ldr	r0, [pc, #44]	; (100034cc <hw_endpoint_xfer_continue+0x1f0>)
100034a0:	f7fe faac 	bl	100019fc <panic>
100034a4:	227f      	movs	r2, #127	; 0x7f
100034a6:	78a1      	ldrb	r1, [r4, #2]
100034a8:	4809      	ldr	r0, [pc, #36]	; (100034d0 <hw_endpoint_xfer_continue+0x1f4>)
100034aa:	09cb      	lsrs	r3, r1, #7
100034ac:	4011      	ands	r1, r2
100034ae:	4a06      	ldr	r2, [pc, #24]	; (100034c8 <hw_endpoint_xfer_continue+0x1ec>)
100034b0:	009b      	lsls	r3, r3, #2
100034b2:	589a      	ldr	r2, [r3, r2]
100034b4:	f7fe faa2 	bl	100019fc <panic>
100034b8:	50110000 	.word	0x50110000
100034bc:	afffffff 	.word	0xafffffff
100034c0:	fffffbff 	.word	0xfffffbff
100034c4:	dfffffff 	.word	0xdfffffff
100034c8:	20002434 	.word	0x20002434
100034cc:	10006d10 	.word	0x10006d10
100034d0:	10006cf0 	.word	0x10006cf0

100034d4 <tud_mounted>:
100034d4:	4b02      	ldr	r3, [pc, #8]	; (100034e0 <tud_mounted+0xc>)
100034d6:	7858      	ldrb	r0, [r3, #1]
100034d8:	1e43      	subs	r3, r0, #1
100034da:	4198      	sbcs	r0, r3
100034dc:	b2c0      	uxtb	r0, r0
100034de:	4770      	bx	lr
100034e0:	20003258 	.word	0x20003258

100034e4 <tud_suspended>:
100034e4:	4b02      	ldr	r3, [pc, #8]	; (100034f0 <tud_suspended+0xc>)
100034e6:	7818      	ldrb	r0, [r3, #0]
100034e8:	0740      	lsls	r0, r0, #29
100034ea:	0fc0      	lsrs	r0, r0, #31
100034ec:	4770      	bx	lr
100034ee:	46c0      	nop			; (mov r8, r8)
100034f0:	20003258 	.word	0x20003258

100034f4 <tud_inited>:
100034f4:	4b01      	ldr	r3, [pc, #4]	; (100034fc <tud_inited+0x8>)
100034f6:	7818      	ldrb	r0, [r3, #0]
100034f8:	4770      	bx	lr
100034fa:	46c0      	nop			; (mov r8, r8)
100034fc:	2000377d 	.word	0x2000377d

10003500 <tud_init>:
10003500:	b5f8      	push	{r3, r4, r5, r6, r7, lr}
10003502:	4647      	mov	r7, r8
10003504:	46ce      	mov	lr, r9
10003506:	4e31      	ldr	r6, [pc, #196]	; (100035cc <tud_init+0xcc>)
10003508:	b580      	push	{r7, lr}
1000350a:	7833      	ldrb	r3, [r6, #0]
1000350c:	4680      	mov	r8, r0
1000350e:	2b00      	cmp	r3, #0
10003510:	d004      	beq.n	1000351c <tud_init+0x1c>
10003512:	2001      	movs	r0, #1
10003514:	bc0c      	pop	{r2, r3}
10003516:	4690      	mov	r8, r2
10003518:	4699      	mov	r9, r3
1000351a:	bdf8      	pop	{r3, r4, r5, r6, r7, pc}
1000351c:	2253      	movs	r2, #83	; 0x53
1000351e:	2100      	movs	r1, #0
10003520:	482b      	ldr	r0, [pc, #172]	; (100035d0 <tud_init+0xd0>)
10003522:	f7ff f949 	bl	100027b8 <__wrap_memset>
10003526:	4c2b      	ldr	r4, [pc, #172]	; (100035d4 <tud_init+0xd4>)
10003528:	0020      	movs	r0, r4
1000352a:	f7fd fee1 	bl	100012f0 <mutex_init>
1000352e:	4b2a      	ldr	r3, [pc, #168]	; (100035d8 <tud_init+0xd8>)
10003530:	601c      	str	r4, [r3, #0]
10003532:	4c2a      	ldr	r4, [pc, #168]	; (100035dc <tud_init+0xdc>)
10003534:	0020      	movs	r0, r4
10003536:	301c      	adds	r0, #28
10003538:	f7fd fef8 	bl	1000132c <critical_section_init>
1000353c:	0020      	movs	r0, r4
1000353e:	f002 f8ad 	bl	1000569c <tu_fifo_clear>
10003542:	4b27      	ldr	r3, [pc, #156]	; (100035e0 <tud_init+0xe0>)
10003544:	601c      	str	r4, [r3, #0]
10003546:	4b27      	ldr	r3, [pc, #156]	; (100035e4 <tud_init+0xe4>)
10003548:	2b00      	cmp	r3, #0
1000354a:	d036      	beq.n	100035ba <tud_init+0xba>
1000354c:	4d26      	ldr	r5, [pc, #152]	; (100035e8 <tud_init+0xe8>)
1000354e:	2400      	movs	r4, #0
10003550:	0028      	movs	r0, r5
10003552:	e000      	b.n	10003556 <tud_init+0x56>
10003554:	bf00      	nop
10003556:	4f25      	ldr	r7, [pc, #148]	; (100035ec <tud_init+0xec>)
10003558:	4a25      	ldr	r2, [pc, #148]	; (100035f0 <tud_init+0xf0>)
1000355a:	6038      	str	r0, [r7, #0]
1000355c:	782b      	ldrb	r3, [r5, #0]
1000355e:	4691      	mov	r9, r2
10003560:	e00d      	b.n	1000357e <tud_init+0x7e>
10003562:	683a      	ldr	r2, [r7, #0]
10003564:	0063      	lsls	r3, r4, #1
10003566:	4694      	mov	ip, r2
10003568:	191b      	adds	r3, r3, r4
1000356a:	00db      	lsls	r3, r3, #3
1000356c:	4463      	add	r3, ip
1000356e:	681b      	ldr	r3, [r3, #0]
10003570:	4798      	blx	r3
10003572:	782b      	ldrb	r3, [r5, #0]
10003574:	3401      	adds	r4, #1
10003576:	b2e4      	uxtb	r4, r4
10003578:	1c5a      	adds	r2, r3, #1
1000357a:	42a2      	cmp	r2, r4
1000357c:	db14      	blt.n	100035a8 <tud_init+0xa8>
1000357e:	429c      	cmp	r4, r3
10003580:	d3ef      	bcc.n	10003562 <tud_init+0x62>
10003582:	1ae3      	subs	r3, r4, r3
10003584:	b2db      	uxtb	r3, r3
10003586:	2b01      	cmp	r3, #1
10003588:	d902      	bls.n	10003590 <tud_init+0x90>
1000358a:	2300      	movs	r3, #0
1000358c:	681b      	ldr	r3, [r3, #0]
1000358e:	deff      	udf	#255	; 0xff
10003590:	005a      	lsls	r2, r3, #1
10003592:	18d3      	adds	r3, r2, r3
10003594:	00db      	lsls	r3, r3, #3
10003596:	444b      	add	r3, r9
10003598:	681b      	ldr	r3, [r3, #0]
1000359a:	4798      	blx	r3
1000359c:	782b      	ldrb	r3, [r5, #0]
1000359e:	3401      	adds	r4, #1
100035a0:	b2e4      	uxtb	r4, r4
100035a2:	1c5a      	adds	r2, r3, #1
100035a4:	42a2      	cmp	r2, r4
100035a6:	daea      	bge.n	1000357e <tud_init+0x7e>
100035a8:	4640      	mov	r0, r8
100035aa:	f7ff fc5d 	bl	10002e68 <dcd_init>
100035ae:	4640      	mov	r0, r8
100035b0:	f7ff fc3e 	bl	10002e30 <dcd_int_enable>
100035b4:	2301      	movs	r3, #1
100035b6:	7033      	strb	r3, [r6, #0]
100035b8:	e7ab      	b.n	10003512 <tud_init+0x12>
100035ba:	f001 f87b 	bl	100046b4 <cdcd_init>
100035be:	f001 faed 	bl	10004b9c <mscd_init>
100035c2:	4b09      	ldr	r3, [pc, #36]	; (100035e8 <tud_init+0xe8>)
100035c4:	781b      	ldrb	r3, [r3, #0]
100035c6:	2b00      	cmp	r3, #0
100035c8:	d1df      	bne.n	1000358a <tud_init+0x8a>
100035ca:	e7ed      	b.n	100035a8 <tud_init+0xa8>
100035cc:	2000377d 	.word	0x2000377d
100035d0:	20003258 	.word	0x20003258
100035d4:	20003210 	.word	0x20003210
100035d8:	200032ac 	.word	0x200032ac
100035dc:	2000243c 	.word	0x2000243c
100035e0:	200032b0 	.word	0x200032b0
100035e4:	00000000 	.word	0x00000000
100035e8:	2000377c 	.word	0x2000377c
100035ec:	20002e20 	.word	0x20002e20
100035f0:	10006dd0 	.word	0x10006dd0

100035f4 <tud_task>:
100035f4:	b5f0      	push	{r4, r5, r6, r7, lr}
100035f6:	46de      	mov	lr, fp
100035f8:	4657      	mov	r7, sl
100035fa:	464e      	mov	r6, r9
100035fc:	4645      	mov	r5, r8
100035fe:	b5e0      	push	{r5, r6, r7, lr}
10003600:	b08b      	sub	sp, #44	; 0x2c
10003602:	f001 fe03 	bl	1000520c <tusb_inited>
10003606:	2800      	cmp	r0, #0
10003608:	d100      	bne.n	1000360c <tud_task+0x18>
1000360a:	e19e      	b.n	1000394a <tud_task+0x356>
1000360c:	4ed2      	ldr	r6, [pc, #840]	; (10003958 <tud_task+0x364>)
1000360e:	ac07      	add	r4, sp, #28
10003610:	6835      	ldr	r5, [r6, #0]
10003612:	69ea      	ldr	r2, [r5, #28]
10003614:	f3ef 8110 	mrs	r1, PRIMASK
10003618:	b672      	cpsid	i
1000361a:	6813      	ldr	r3, [r2, #0]
1000361c:	2b00      	cmp	r3, #0
1000361e:	d0fc      	beq.n	1000361a <tud_task+0x26>
10003620:	f3bf 8f5f 	dmb	sy
10003624:	6229      	str	r1, [r5, #32]
10003626:	0028      	movs	r0, r5
10003628:	0021      	movs	r1, r4
1000362a:	f001 feb1 	bl	10005390 <tu_fifo_read>
1000362e:	69ea      	ldr	r2, [r5, #28]
10003630:	6a2b      	ldr	r3, [r5, #32]
10003632:	f3bf 8f5f 	dmb	sy
10003636:	2100      	movs	r1, #0
10003638:	6011      	str	r1, [r2, #0]
1000363a:	f383 8810 	msr	PRIMASK, r3
1000363e:	2800      	cmp	r0, #0
10003640:	d100      	bne.n	10003644 <tud_task+0x50>
10003642:	e182      	b.n	1000394a <tud_task+0x356>
10003644:	7863      	ldrb	r3, [r4, #1]
10003646:	2b08      	cmp	r3, #8
10003648:	d8e2      	bhi.n	10003610 <tud_task+0x1c>
1000364a:	4ac4      	ldr	r2, [pc, #784]	; (1000395c <tud_task+0x368>)
1000364c:	009b      	lsls	r3, r3, #2
1000364e:	58d3      	ldr	r3, [r2, r3]
10003650:	469f      	mov	pc, r3
10003652:	6863      	ldr	r3, [r4, #4]
10003654:	2b00      	cmp	r3, #0
10003656:	d0db      	beq.n	10003610 <tud_task+0x1c>
10003658:	68a0      	ldr	r0, [r4, #8]
1000365a:	4798      	blx	r3
1000365c:	e7d8      	b.n	10003610 <tud_task+0x1c>
1000365e:	227f      	movs	r2, #127	; 0x7f
10003660:	7921      	ldrb	r1, [r4, #4]
10003662:	4bbf      	ldr	r3, [pc, #764]	; (10003960 <tud_task+0x36c>)
10003664:	400a      	ands	r2, r1
10003666:	0055      	lsls	r5, r2, #1
10003668:	09c8      	lsrs	r0, r1, #7
1000366a:	195b      	adds	r3, r3, r5
1000366c:	181b      	adds	r3, r3, r0
1000366e:	0018      	movs	r0, r3
10003670:	2701      	movs	r7, #1
10003672:	3030      	adds	r0, #48	; 0x30
10003674:	78c5      	ldrb	r5, [r0, #3]
10003676:	43bd      	bics	r5, r7
10003678:	70c5      	strb	r5, [r0, #3]
1000367a:	78c5      	ldrb	r5, [r0, #3]
1000367c:	3703      	adds	r7, #3
1000367e:	43bd      	bics	r5, r7
10003680:	70c5      	strb	r5, [r0, #3]
10003682:	2a00      	cmp	r2, #0
10003684:	d100      	bne.n	10003688 <tud_task+0x94>
10003686:	e1a6      	b.n	100039d6 <tud_task+0x3e2>
10003688:	4ab6      	ldr	r2, [pc, #728]	; (10003964 <tud_task+0x370>)
1000368a:	7cdb      	ldrb	r3, [r3, #19]
1000368c:	2a00      	cmp	r2, #0
1000368e:	d100      	bne.n	10003692 <tud_task+0x9e>
10003690:	e17c      	b.n	1000398c <tud_task+0x398>
10003692:	4ab5      	ldr	r2, [pc, #724]	; (10003968 <tud_task+0x374>)
10003694:	7812      	ldrb	r2, [r2, #0]
10003696:	4293      	cmp	r3, r2
10003698:	d300      	bcc.n	1000369c <tud_task+0xa8>
1000369a:	e175      	b.n	10003988 <tud_task+0x394>
1000369c:	005a      	lsls	r2, r3, #1
1000369e:	18d2      	adds	r2, r2, r3
100036a0:	4bb2      	ldr	r3, [pc, #712]	; (1000396c <tud_task+0x378>)
100036a2:	00d2      	lsls	r2, r2, #3
100036a4:	681b      	ldr	r3, [r3, #0]
100036a6:	189b      	adds	r3, r3, r2
100036a8:	2b00      	cmp	r3, #0
100036aa:	d100      	bne.n	100036ae <tud_task+0xba>
100036ac:	e14d      	b.n	1000394a <tud_task+0x356>
100036ae:	691d      	ldr	r5, [r3, #16]
100036b0:	7962      	ldrb	r2, [r4, #5]
100036b2:	7820      	ldrb	r0, [r4, #0]
100036b4:	68a3      	ldr	r3, [r4, #8]
100036b6:	47a8      	blx	r5
100036b8:	e7aa      	b.n	10003610 <tud_task+0x1c>
100036ba:	4ba9      	ldr	r3, [pc, #676]	; (10003960 <tud_task+0x36c>)
100036bc:	2201      	movs	r2, #1
100036be:	001d      	movs	r5, r3
100036c0:	9300      	str	r3, [sp, #0]
100036c2:	781b      	ldrb	r3, [r3, #0]
100036c4:	2101      	movs	r1, #1
100036c6:	4313      	orrs	r3, r2
100036c8:	702b      	strb	r3, [r5, #0]
100036ca:	2333      	movs	r3, #51	; 0x33
100036cc:	2004      	movs	r0, #4
100036ce:	5cea      	ldrb	r2, [r5, r3]
100036d0:	7827      	ldrb	r7, [r4, #0]
100036d2:	438a      	bics	r2, r1
100036d4:	54ea      	strb	r2, [r5, r3]
100036d6:	5cea      	ldrb	r2, [r5, r3]
100036d8:	4382      	bics	r2, r0
100036da:	54ea      	strb	r2, [r5, r3]
100036dc:	3301      	adds	r3, #1
100036de:	5cea      	ldrb	r2, [r5, r3]
100036e0:	438a      	bics	r2, r1
100036e2:	54ea      	strb	r2, [r5, r3]
100036e4:	5cea      	ldrb	r2, [r5, r3]
100036e6:	4382      	bics	r2, r0
100036e8:	54ea      	strb	r2, [r5, r3]
100036ea:	2000      	movs	r0, #0
100036ec:	f000 fe8c 	bl	10004408 <usbd_control_set_complete_callback>
100036f0:	7923      	ldrb	r3, [r4, #4]
100036f2:	065a      	lsls	r2, r3, #25
100036f4:	0f92      	lsrs	r2, r2, #30
100036f6:	2a03      	cmp	r2, #3
100036f8:	d100      	bne.n	100036fc <tud_task+0x108>
100036fa:	e163      	b.n	100039c4 <tud_task+0x3d0>
100036fc:	2260      	movs	r2, #96	; 0x60
100036fe:	401a      	ands	r2, r3
10003700:	2a40      	cmp	r2, #64	; 0x40
10003702:	d100      	bne.n	10003706 <tud_task+0x112>
10003704:	e16d      	b.n	100039e2 <tud_task+0x3ee>
10003706:	06db      	lsls	r3, r3, #27
10003708:	0edb      	lsrs	r3, r3, #27
1000370a:	2b01      	cmp	r3, #1
1000370c:	d100      	bne.n	10003710 <tud_task+0x11c>
1000370e:	e176      	b.n	100039fe <tud_task+0x40a>
10003710:	2b00      	cmp	r3, #0
10003712:	d100      	bne.n	10003716 <tud_task+0x122>
10003714:	e189      	b.n	10003a2a <tud_task+0x436>
10003716:	2b02      	cmp	r3, #2
10003718:	d000      	beq.n	1000371c <tud_task+0x128>
1000371a:	e153      	b.n	100039c4 <tud_task+0x3d0>
1000371c:	237f      	movs	r3, #127	; 0x7f
1000371e:	8920      	ldrh	r0, [r4, #8]
10003720:	b2c1      	uxtb	r1, r0
10003722:	400b      	ands	r3, r1
10003724:	2b0f      	cmp	r3, #15
10003726:	d900      	bls.n	1000372a <tud_task+0x136>
10003728:	e14c      	b.n	100039c4 <tud_task+0x3d0>
1000372a:	b240      	sxtb	r0, r0
1000372c:	0fc0      	lsrs	r0, r0, #31
1000372e:	4680      	mov	r8, r0
10003730:	005d      	lsls	r5, r3, #1
10003732:	9b00      	ldr	r3, [sp, #0]
10003734:	488b      	ldr	r0, [pc, #556]	; (10003964 <tud_task+0x370>)
10003736:	195b      	adds	r3, r3, r5
10003738:	4443      	add	r3, r8
1000373a:	7cdb      	ldrb	r3, [r3, #19]
1000373c:	2800      	cmp	r0, #0
1000373e:	d100      	bne.n	10003742 <tud_task+0x14e>
10003740:	e1a4      	b.n	10003a8c <tud_task+0x498>
10003742:	4889      	ldr	r0, [pc, #548]	; (10003968 <tud_task+0x374>)
10003744:	7800      	ldrb	r0, [r0, #0]
10003746:	4283      	cmp	r3, r0
10003748:	d300      	bcc.n	1000374c <tud_task+0x158>
1000374a:	e19d      	b.n	10003a88 <tud_task+0x494>
1000374c:	0058      	lsls	r0, r3, #1
1000374e:	18c3      	adds	r3, r0, r3
10003750:	4886      	ldr	r0, [pc, #536]	; (1000396c <tud_task+0x378>)
10003752:	00db      	lsls	r3, r3, #3
10003754:	6800      	ldr	r0, [r0, #0]
10003756:	4681      	mov	r9, r0
10003758:	4499      	add	r9, r3
1000375a:	2a00      	cmp	r2, #0
1000375c:	d100      	bne.n	10003760 <tud_task+0x16c>
1000375e:	e19b      	b.n	10003a98 <tud_task+0x4a4>
10003760:	464b      	mov	r3, r9
10003762:	2b00      	cmp	r3, #0
10003764:	d100      	bne.n	10003768 <tud_task+0x174>
10003766:	e12d      	b.n	100039c4 <tud_task+0x3d0>
10003768:	464b      	mov	r3, r9
1000376a:	68d8      	ldr	r0, [r3, #12]
1000376c:	f000 fe4c 	bl	10004408 <usbd_control_set_complete_callback>
10003770:	464b      	mov	r3, r9
10003772:	aa08      	add	r2, sp, #32
10003774:	68db      	ldr	r3, [r3, #12]
10003776:	2100      	movs	r1, #0
10003778:	0038      	movs	r0, r7
1000377a:	4798      	blx	r3
1000377c:	e13b      	b.n	100039f6 <tud_task+0x402>
1000377e:	4b78      	ldr	r3, [pc, #480]	; (10003960 <tud_task+0x36c>)
10003780:	781b      	ldrb	r3, [r3, #0]
10003782:	07db      	lsls	r3, r3, #31
10003784:	d400      	bmi.n	10003788 <tud_task+0x194>
10003786:	e743      	b.n	10003610 <tud_task+0x1c>
10003788:	4b79      	ldr	r3, [pc, #484]	; (10003970 <tud_task+0x37c>)
1000378a:	2b00      	cmp	r3, #0
1000378c:	d100      	bne.n	10003790 <tud_task+0x19c>
1000378e:	e73f      	b.n	10003610 <tud_task+0x1c>
10003790:	f7fc fe4e 	bl	10000430 <tud_resume_cb>
10003794:	e73c      	b.n	10003610 <tud_task+0x1c>
10003796:	4b72      	ldr	r3, [pc, #456]	; (10003960 <tud_task+0x36c>)
10003798:	781a      	ldrb	r2, [r3, #0]
1000379a:	07d2      	lsls	r2, r2, #31
1000379c:	d400      	bmi.n	100037a0 <tud_task+0x1ac>
1000379e:	e737      	b.n	10003610 <tud_task+0x1c>
100037a0:	4a74      	ldr	r2, [pc, #464]	; (10003974 <tud_task+0x380>)
100037a2:	2a00      	cmp	r2, #0
100037a4:	d100      	bne.n	100037a8 <tud_task+0x1b4>
100037a6:	e733      	b.n	10003610 <tud_task+0x1c>
100037a8:	7818      	ldrb	r0, [r3, #0]
100037aa:	0700      	lsls	r0, r0, #28
100037ac:	0fc0      	lsrs	r0, r0, #31
100037ae:	f7fc fe37 	bl	10000420 <tud_suspend_cb>
100037b2:	e72d      	b.n	10003610 <tud_task+0x1c>
100037b4:	4f6c      	ldr	r7, [pc, #432]	; (10003968 <tud_task+0x374>)
100037b6:	4b6b      	ldr	r3, [pc, #428]	; (10003964 <tud_task+0x370>)
100037b8:	783a      	ldrb	r2, [r7, #0]
100037ba:	2500      	movs	r5, #0
100037bc:	2b00      	cmp	r3, #0
100037be:	d100      	bne.n	100037c2 <tud_task+0x1ce>
100037c0:	e0de      	b.n	10003980 <tud_task+0x38c>
100037c2:	4b6a      	ldr	r3, [pc, #424]	; (1000396c <tud_task+0x378>)
100037c4:	4698      	mov	r8, r3
100037c6:	4b6c      	ldr	r3, [pc, #432]	; (10003978 <tud_task+0x384>)
100037c8:	4699      	mov	r9, r3
100037ca:	e012      	b.n	100037f2 <tud_task+0x1fe>
100037cc:	4641      	mov	r1, r8
100037ce:	6809      	ldr	r1, [r1, #0]
100037d0:	006b      	lsls	r3, r5, #1
100037d2:	468c      	mov	ip, r1
100037d4:	195b      	adds	r3, r3, r5
100037d6:	00db      	lsls	r3, r3, #3
100037d8:	4463      	add	r3, ip
100037da:	695b      	ldr	r3, [r3, #20]
100037dc:	2b00      	cmp	r3, #0
100037de:	d002      	beq.n	100037e6 <tud_task+0x1f2>
100037e0:	7820      	ldrb	r0, [r4, #0]
100037e2:	4798      	blx	r3
100037e4:	783a      	ldrb	r2, [r7, #0]
100037e6:	3501      	adds	r5, #1
100037e8:	b2ed      	uxtb	r5, r5
100037ea:	1c53      	adds	r3, r2, #1
100037ec:	42ab      	cmp	r3, r5
100037ee:	da00      	bge.n	100037f2 <tud_task+0x1fe>
100037f0:	e70e      	b.n	10003610 <tud_task+0x1c>
100037f2:	42aa      	cmp	r2, r5
100037f4:	d8ea      	bhi.n	100037cc <tud_task+0x1d8>
100037f6:	1aa9      	subs	r1, r5, r2
100037f8:	b2c9      	uxtb	r1, r1
100037fa:	2901      	cmp	r1, #1
100037fc:	d97e      	bls.n	100038fc <tud_task+0x308>
100037fe:	2300      	movs	r3, #0
10003800:	695b      	ldr	r3, [r3, #20]
10003802:	deff      	udf	#255	; 0xff
10003804:	4d56      	ldr	r5, [pc, #344]	; (10003960 <tud_task+0x36c>)
10003806:	7823      	ldrb	r3, [r4, #0]
10003808:	2253      	movs	r2, #83	; 0x53
1000380a:	2100      	movs	r1, #0
1000380c:	0028      	movs	r0, r5
1000380e:	4698      	mov	r8, r3
10003810:	f7fe ffd2 	bl	100027b8 <__wrap_memset>
10003814:	1ce8      	adds	r0, r5, #3
10003816:	2210      	movs	r2, #16
10003818:	21ff      	movs	r1, #255	; 0xff
1000381a:	f7fe ffcd 	bl	100027b8 <__wrap_memset>
1000381e:	0028      	movs	r0, r5
10003820:	2220      	movs	r2, #32
10003822:	21ff      	movs	r1, #255	; 0xff
10003824:	3013      	adds	r0, #19
10003826:	f7fe ffc7 	bl	100027b8 <__wrap_memset>
1000382a:	f000 fde3 	bl	100043f4 <usbd_control_reset>
1000382e:	4f4e      	ldr	r7, [pc, #312]	; (10003968 <tud_task+0x374>)
10003830:	4a4c      	ldr	r2, [pc, #304]	; (10003964 <tud_task+0x370>)
10003832:	783b      	ldrb	r3, [r7, #0]
10003834:	2500      	movs	r5, #0
10003836:	2a00      	cmp	r2, #0
10003838:	d06a      	beq.n	10003910 <tud_task+0x31c>
1000383a:	4a4c      	ldr	r2, [pc, #304]	; (1000396c <tud_task+0x378>)
1000383c:	4691      	mov	r9, r2
1000383e:	4a4e      	ldr	r2, [pc, #312]	; (10003978 <tud_task+0x384>)
10003840:	4692      	mov	sl, r2
10003842:	003a      	movs	r2, r7
10003844:	4647      	mov	r7, r8
10003846:	4690      	mov	r8, r2
10003848:	e010      	b.n	1000386c <tud_task+0x278>
1000384a:	464a      	mov	r2, r9
1000384c:	6812      	ldr	r2, [r2, #0]
1000384e:	006b      	lsls	r3, r5, #1
10003850:	4694      	mov	ip, r2
10003852:	195b      	adds	r3, r3, r5
10003854:	00db      	lsls	r3, r3, #3
10003856:	4463      	add	r3, ip
10003858:	685b      	ldr	r3, [r3, #4]
1000385a:	0038      	movs	r0, r7
1000385c:	4798      	blx	r3
1000385e:	4643      	mov	r3, r8
10003860:	781b      	ldrb	r3, [r3, #0]
10003862:	3501      	adds	r5, #1
10003864:	b2ed      	uxtb	r5, r5
10003866:	1c5a      	adds	r2, r3, #1
10003868:	42aa      	cmp	r2, r5
1000386a:	db5a      	blt.n	10003922 <tud_task+0x32e>
1000386c:	42ab      	cmp	r3, r5
1000386e:	d8ec      	bhi.n	1000384a <tud_task+0x256>
10003870:	1aeb      	subs	r3, r5, r3
10003872:	b2db      	uxtb	r3, r3
10003874:	2b01      	cmp	r3, #1
10003876:	d946      	bls.n	10003906 <tud_task+0x312>
10003878:	2300      	movs	r3, #0
1000387a:	685b      	ldr	r3, [r3, #4]
1000387c:	deff      	udf	#255	; 0xff
1000387e:	4d38      	ldr	r5, [pc, #224]	; (10003960 <tud_task+0x36c>)
10003880:	7823      	ldrb	r3, [r4, #0]
10003882:	2253      	movs	r2, #83	; 0x53
10003884:	2100      	movs	r1, #0
10003886:	0028      	movs	r0, r5
10003888:	4699      	mov	r9, r3
1000388a:	9500      	str	r5, [sp, #0]
1000388c:	f7fe ff94 	bl	100027b8 <__wrap_memset>
10003890:	1ce8      	adds	r0, r5, #3
10003892:	2210      	movs	r2, #16
10003894:	21ff      	movs	r1, #255	; 0xff
10003896:	f7fe ff8f 	bl	100027b8 <__wrap_memset>
1000389a:	0028      	movs	r0, r5
1000389c:	2220      	movs	r2, #32
1000389e:	21ff      	movs	r1, #255	; 0xff
100038a0:	3013      	adds	r0, #19
100038a2:	f7fe ff89 	bl	100027b8 <__wrap_memset>
100038a6:	f000 fda5 	bl	100043f4 <usbd_control_reset>
100038aa:	4f2f      	ldr	r7, [pc, #188]	; (10003968 <tud_task+0x374>)
100038ac:	4a2d      	ldr	r2, [pc, #180]	; (10003964 <tud_task+0x370>)
100038ae:	783b      	ldrb	r3, [r7, #0]
100038b0:	2500      	movs	r5, #0
100038b2:	2a00      	cmp	r2, #0
100038b4:	d03c      	beq.n	10003930 <tud_task+0x33c>
100038b6:	4a2d      	ldr	r2, [pc, #180]	; (1000396c <tud_task+0x378>)
100038b8:	46b8      	mov	r8, r7
100038ba:	4692      	mov	sl, r2
100038bc:	4a2e      	ldr	r2, [pc, #184]	; (10003978 <tud_task+0x384>)
100038be:	464f      	mov	r7, r9
100038c0:	4693      	mov	fp, r2
100038c2:	e010      	b.n	100038e6 <tud_task+0x2f2>
100038c4:	4652      	mov	r2, sl
100038c6:	6812      	ldr	r2, [r2, #0]
100038c8:	006b      	lsls	r3, r5, #1
100038ca:	4694      	mov	ip, r2
100038cc:	195b      	adds	r3, r3, r5
100038ce:	00db      	lsls	r3, r3, #3
100038d0:	4463      	add	r3, ip
100038d2:	685b      	ldr	r3, [r3, #4]
100038d4:	0038      	movs	r0, r7
100038d6:	4798      	blx	r3
100038d8:	4643      	mov	r3, r8
100038da:	781b      	ldrb	r3, [r3, #0]
100038dc:	3501      	adds	r5, #1
100038de:	b2ed      	uxtb	r5, r5
100038e0:	1c5a      	adds	r2, r3, #1
100038e2:	42aa      	cmp	r2, r5
100038e4:	db2d      	blt.n	10003942 <tud_task+0x34e>
100038e6:	42ab      	cmp	r3, r5
100038e8:	d8ec      	bhi.n	100038c4 <tud_task+0x2d0>
100038ea:	1aeb      	subs	r3, r5, r3
100038ec:	b2db      	uxtb	r3, r3
100038ee:	2b01      	cmp	r3, #1
100038f0:	d8c2      	bhi.n	10003878 <tud_task+0x284>
100038f2:	005a      	lsls	r2, r3, #1
100038f4:	18d3      	adds	r3, r2, r3
100038f6:	00db      	lsls	r3, r3, #3
100038f8:	445b      	add	r3, fp
100038fa:	e7ea      	b.n	100038d2 <tud_task+0x2de>
100038fc:	004b      	lsls	r3, r1, #1
100038fe:	185b      	adds	r3, r3, r1
10003900:	00db      	lsls	r3, r3, #3
10003902:	444b      	add	r3, r9
10003904:	e769      	b.n	100037da <tud_task+0x1e6>
10003906:	005a      	lsls	r2, r3, #1
10003908:	18d3      	adds	r3, r2, r3
1000390a:	00db      	lsls	r3, r3, #3
1000390c:	4453      	add	r3, sl
1000390e:	e7a3      	b.n	10003858 <tud_task+0x264>
10003910:	4640      	mov	r0, r8
10003912:	f000 ff07 	bl	10004724 <cdcd_reset>
10003916:	4640      	mov	r0, r8
10003918:	f001 f94a 	bl	10004bb0 <mscd_reset>
1000391c:	783b      	ldrb	r3, [r7, #0]
1000391e:	2b00      	cmp	r3, #0
10003920:	d1aa      	bne.n	10003878 <tud_task+0x284>
10003922:	4b16      	ldr	r3, [pc, #88]	; (1000397c <tud_task+0x388>)
10003924:	2b00      	cmp	r3, #0
10003926:	d100      	bne.n	1000392a <tud_task+0x336>
10003928:	e672      	b.n	10003610 <tud_task+0x1c>
1000392a:	f7fc fd73 	bl	10000414 <tud_umount_cb>
1000392e:	e66f      	b.n	10003610 <tud_task+0x1c>
10003930:	4648      	mov	r0, r9
10003932:	f000 fef7 	bl	10004724 <cdcd_reset>
10003936:	4648      	mov	r0, r9
10003938:	f001 f93a 	bl	10004bb0 <mscd_reset>
1000393c:	783b      	ldrb	r3, [r7, #0]
1000393e:	2b00      	cmp	r3, #0
10003940:	d19a      	bne.n	10003878 <tud_task+0x284>
10003942:	7923      	ldrb	r3, [r4, #4]
10003944:	9a00      	ldr	r2, [sp, #0]
10003946:	7093      	strb	r3, [r2, #2]
10003948:	e662      	b.n	10003610 <tud_task+0x1c>
1000394a:	b00b      	add	sp, #44	; 0x2c
1000394c:	bc3c      	pop	{r2, r3, r4, r5}
1000394e:	4690      	mov	r8, r2
10003950:	4699      	mov	r9, r3
10003952:	46a2      	mov	sl, r4
10003954:	46ab      	mov	fp, r5
10003956:	bdf0      	pop	{r4, r5, r6, r7, pc}
10003958:	200032b0 	.word	0x200032b0
1000395c:	10006d44 	.word	0x10006d44
10003960:	20003258 	.word	0x20003258
10003964:	00000000 	.word	0x00000000
10003968:	2000377c 	.word	0x2000377c
1000396c:	20002e20 	.word	0x20002e20
10003970:	10000431 	.word	0x10000431
10003974:	10000421 	.word	0x10000421
10003978:	10006dd0 	.word	0x10006dd0
1000397c:	10000415 	.word	0x10000415
10003980:	2a00      	cmp	r2, #0
10003982:	d000      	beq.n	10003986 <tud_task+0x392>
10003984:	e73b      	b.n	100037fe <tud_task+0x20a>
10003986:	e643      	b.n	10003610 <tud_task+0x1c>
10003988:	1a9b      	subs	r3, r3, r2
1000398a:	b2db      	uxtb	r3, r3
1000398c:	2b01      	cmp	r3, #1
1000398e:	d8dc      	bhi.n	1000394a <tud_task+0x356>
10003990:	005a      	lsls	r2, r3, #1
10003992:	18d2      	adds	r2, r2, r3
10003994:	4bb7      	ldr	r3, [pc, #732]	; (10003c74 <tud_task+0x680>)
10003996:	00d2      	lsls	r2, r2, #3
10003998:	189b      	adds	r3, r3, r2
1000399a:	691d      	ldr	r5, [r3, #16]
1000399c:	7962      	ldrb	r2, [r4, #5]
1000399e:	7820      	ldrb	r0, [r4, #0]
100039a0:	68a3      	ldr	r3, [r4, #8]
100039a2:	47a8      	blx	r5
100039a4:	e634      	b.n	10003610 <tud_task+0x1c>
100039a6:	f7fc fdcd 	bl	10000544 <tud_descriptor_configuration_cb>
100039aa:	1e02      	subs	r2, r0, #0
100039ac:	d00a      	beq.n	100039c4 <tud_task+0x3d0>
100039ae:	78c3      	ldrb	r3, [r0, #3]
100039b0:	7881      	ldrb	r1, [r0, #2]
100039b2:	021b      	lsls	r3, r3, #8
100039b4:	430b      	orrs	r3, r1
100039b6:	0038      	movs	r0, r7
100039b8:	a908      	add	r1, sp, #32
100039ba:	f000 fcc5 	bl	10004348 <tud_control_xfer>
100039be:	2800      	cmp	r0, #0
100039c0:	d000      	beq.n	100039c4 <tud_task+0x3d0>
100039c2:	e625      	b.n	10003610 <tud_task+0x1c>
100039c4:	7820      	ldrb	r0, [r4, #0]
100039c6:	2100      	movs	r1, #0
100039c8:	f7ff fb4e 	bl	10003068 <dcd_edpt_stall>
100039cc:	7820      	ldrb	r0, [r4, #0]
100039ce:	2180      	movs	r1, #128	; 0x80
100039d0:	f7ff fb4a 	bl	10003068 <dcd_edpt_stall>
100039d4:	e61c      	b.n	10003610 <tud_task+0x1c>
100039d6:	7962      	ldrb	r2, [r4, #5]
100039d8:	7820      	ldrb	r0, [r4, #0]
100039da:	68a3      	ldr	r3, [r4, #8]
100039dc:	f000 fd28 	bl	10004430 <usbd_control_xfer_cb>
100039e0:	e616      	b.n	10003610 <tud_task+0x1c>
100039e2:	48a5      	ldr	r0, [pc, #660]	; (10003c78 <tud_task+0x684>)
100039e4:	2800      	cmp	r0, #0
100039e6:	d0ed      	beq.n	100039c4 <tud_task+0x3d0>
100039e8:	f000 fd0e 	bl	10004408 <usbd_control_set_complete_callback>
100039ec:	aa08      	add	r2, sp, #32
100039ee:	2100      	movs	r1, #0
100039f0:	0038      	movs	r0, r7
100039f2:	e000      	b.n	100039f6 <tud_task+0x402>
100039f4:	bf00      	nop
100039f6:	2800      	cmp	r0, #0
100039f8:	d000      	beq.n	100039fc <tud_task+0x408>
100039fa:	e609      	b.n	10003610 <tud_task+0x1c>
100039fc:	e7e2      	b.n	100039c4 <tud_task+0x3d0>
100039fe:	7a23      	ldrb	r3, [r4, #8]
10003a00:	2b0f      	cmp	r3, #15
10003a02:	d8df      	bhi.n	100039c4 <tud_task+0x3d0>
10003a04:	9a00      	ldr	r2, [sp, #0]
10003a06:	18d5      	adds	r5, r2, r3
10003a08:	4a9c      	ldr	r2, [pc, #624]	; (10003c7c <tud_task+0x688>)
10003a0a:	78eb      	ldrb	r3, [r5, #3]
10003a0c:	2a00      	cmp	r2, #0
10003a0e:	d01a      	beq.n	10003a46 <tud_task+0x452>
10003a10:	4a9b      	ldr	r2, [pc, #620]	; (10003c80 <tud_task+0x68c>)
10003a12:	7812      	ldrb	r2, [r2, #0]
10003a14:	4293      	cmp	r3, r2
10003a16:	d214      	bcs.n	10003a42 <tud_task+0x44e>
10003a18:	4a9a      	ldr	r2, [pc, #616]	; (10003c84 <tud_task+0x690>)
10003a1a:	005d      	lsls	r5, r3, #1
10003a1c:	18eb      	adds	r3, r5, r3
10003a1e:	6815      	ldr	r5, [r2, #0]
10003a20:	00db      	lsls	r3, r3, #3
10003a22:	18ed      	adds	r5, r5, r3
10003a24:	2d00      	cmp	r5, #0
10003a26:	d115      	bne.n	10003a54 <tud_task+0x460>
10003a28:	e7cc      	b.n	100039c4 <tud_task+0x3d0>
10003a2a:	2a20      	cmp	r2, #32
10003a2c:	d100      	bne.n	10003a30 <tud_task+0x43c>
10003a2e:	e0ec      	b.n	10003c0a <tud_task+0x616>
10003a30:	2a00      	cmp	r2, #0
10003a32:	d1c7      	bne.n	100039c4 <tud_task+0x3d0>
10003a34:	7963      	ldrb	r3, [r4, #5]
10003a36:	2b09      	cmp	r3, #9
10003a38:	d8c4      	bhi.n	100039c4 <tud_task+0x3d0>
10003a3a:	4a93      	ldr	r2, [pc, #588]	; (10003c88 <tud_task+0x694>)
10003a3c:	009b      	lsls	r3, r3, #2
10003a3e:	58d3      	ldr	r3, [r2, r3]
10003a40:	469f      	mov	pc, r3
10003a42:	1a9b      	subs	r3, r3, r2
10003a44:	b2db      	uxtb	r3, r3
10003a46:	2b01      	cmp	r3, #1
10003a48:	d8bc      	bhi.n	100039c4 <tud_task+0x3d0>
10003a4a:	005d      	lsls	r5, r3, #1
10003a4c:	18eb      	adds	r3, r5, r3
10003a4e:	4d89      	ldr	r5, [pc, #548]	; (10003c74 <tud_task+0x680>)
10003a50:	00db      	lsls	r3, r3, #3
10003a52:	18ed      	adds	r5, r5, r3
10003a54:	68e8      	ldr	r0, [r5, #12]
10003a56:	f000 fcd7 	bl	10004408 <usbd_control_set_complete_callback>
10003a5a:	68eb      	ldr	r3, [r5, #12]
10003a5c:	aa08      	add	r2, sp, #32
10003a5e:	2100      	movs	r1, #0
10003a60:	0038      	movs	r0, r7
10003a62:	4798      	blx	r3
10003a64:	2800      	cmp	r0, #0
10003a66:	d000      	beq.n	10003a6a <tud_task+0x476>
10003a68:	e5d2      	b.n	10003610 <tud_task+0x1c>
10003a6a:	2360      	movs	r3, #96	; 0x60
10003a6c:	7922      	ldrb	r2, [r4, #4]
10003a6e:	4013      	ands	r3, r2
10003a70:	d1a8      	bne.n	100039c4 <tud_task+0x3d0>
10003a72:	7962      	ldrb	r2, [r4, #5]
10003a74:	2a0a      	cmp	r2, #10
10003a76:	d100      	bne.n	10003a7a <tud_task+0x486>
10003a78:	e19a      	b.n	10003db0 <tud_task+0x7bc>
10003a7a:	2a0b      	cmp	r2, #11
10003a7c:	d1a2      	bne.n	100039c4 <tud_task+0x3d0>
10003a7e:	a908      	add	r1, sp, #32
10003a80:	0038      	movs	r0, r7
10003a82:	f000 fc49 	bl	10004318 <tud_control_status>
10003a86:	e5c3      	b.n	10003610 <tud_task+0x1c>
10003a88:	1a1b      	subs	r3, r3, r0
10003a8a:	b2db      	uxtb	r3, r3
10003a8c:	2b01      	cmp	r3, #1
10003a8e:	d93a      	bls.n	10003b06 <tud_task+0x512>
10003a90:	2a00      	cmp	r2, #0
10003a92:	d197      	bne.n	100039c4 <tud_task+0x3d0>
10003a94:	2300      	movs	r3, #0
10003a96:	4699      	mov	r9, r3
10003a98:	7963      	ldrb	r3, [r4, #5]
10003a9a:	469a      	mov	sl, r3
10003a9c:	2b01      	cmp	r3, #1
10003a9e:	d004      	beq.n	10003aaa <tud_task+0x4b6>
10003aa0:	2b00      	cmp	r3, #0
10003aa2:	d100      	bne.n	10003aa6 <tud_task+0x4b2>
10003aa4:	e0d1      	b.n	10003c4a <tud_task+0x656>
10003aa6:	2b03      	cmp	r3, #3
10003aa8:	d18c      	bne.n	100039c4 <tud_task+0x3d0>
10003aaa:	88e3      	ldrh	r3, [r4, #6]
10003aac:	2b00      	cmp	r3, #0
10003aae:	d112      	bne.n	10003ad6 <tud_task+0x4e2>
10003ab0:	4653      	mov	r3, sl
10003ab2:	0038      	movs	r0, r7
10003ab4:	2b01      	cmp	r3, #1
10003ab6:	d100      	bne.n	10003aba <tud_task+0x4c6>
10003ab8:	e1cc      	b.n	10003e54 <tud_task+0x860>
10003aba:	f7ff fad5 	bl	10003068 <dcd_edpt_stall>
10003abe:	2102      	movs	r1, #2
10003ac0:	9b00      	ldr	r3, [sp, #0]
10003ac2:	195b      	adds	r3, r3, r5
10003ac4:	4443      	add	r3, r8
10003ac6:	3330      	adds	r3, #48	; 0x30
10003ac8:	78da      	ldrb	r2, [r3, #3]
10003aca:	430a      	orrs	r2, r1
10003acc:	2101      	movs	r1, #1
10003ace:	70da      	strb	r2, [r3, #3]
10003ad0:	78da      	ldrb	r2, [r3, #3]
10003ad2:	430a      	orrs	r2, r1
10003ad4:	70da      	strb	r2, [r3, #3]
10003ad6:	464b      	mov	r3, r9
10003ad8:	2b00      	cmp	r3, #0
10003ada:	d100      	bne.n	10003ade <tud_task+0x4ea>
10003adc:	e598      	b.n	10003610 <tud_task+0x1c>
10003ade:	464b      	mov	r3, r9
10003ae0:	68d8      	ldr	r0, [r3, #12]
10003ae2:	f000 fc91 	bl	10004408 <usbd_control_set_complete_callback>
10003ae6:	464b      	mov	r3, r9
10003ae8:	aa08      	add	r2, sp, #32
10003aea:	68db      	ldr	r3, [r3, #12]
10003aec:	2100      	movs	r1, #0
10003aee:	0038      	movs	r0, r7
10003af0:	4798      	blx	r3
10003af2:	2000      	movs	r0, #0
10003af4:	f000 fc88 	bl	10004408 <usbd_control_set_complete_callback>
10003af8:	2334      	movs	r3, #52	; 0x34
10003afa:	9a00      	ldr	r2, [sp, #0]
10003afc:	5cd3      	ldrb	r3, [r2, r3]
10003afe:	07db      	lsls	r3, r3, #31
10003b00:	d500      	bpl.n	10003b04 <tud_task+0x510>
10003b02:	e585      	b.n	10003610 <tud_task+0x1c>
10003b04:	e7bb      	b.n	10003a7e <tud_task+0x48a>
10003b06:	0058      	lsls	r0, r3, #1
10003b08:	18c3      	adds	r3, r0, r3
10003b0a:	485a      	ldr	r0, [pc, #360]	; (10003c74 <tud_task+0x680>)
10003b0c:	00db      	lsls	r3, r3, #3
10003b0e:	4681      	mov	r9, r0
10003b10:	4499      	add	r9, r3
10003b12:	2a00      	cmp	r2, #0
10003b14:	d000      	beq.n	10003b18 <tud_task+0x524>
10003b16:	e627      	b.n	10003768 <tud_task+0x174>
10003b18:	e7be      	b.n	10003a98 <tud_task+0x4a4>
10003b1a:	79a3      	ldrb	r3, [r4, #6]
10003b1c:	9303      	str	r3, [sp, #12]
10003b1e:	001a      	movs	r2, r3
10003b20:	9b00      	ldr	r3, [sp, #0]
10003b22:	785b      	ldrb	r3, [r3, #1]
10003b24:	2b00      	cmp	r3, #0
10003b26:	d102      	bne.n	10003b2e <tud_task+0x53a>
10003b28:	2a00      	cmp	r2, #0
10003b2a:	d000      	beq.n	10003b2e <tud_task+0x53a>
10003b2c:	e0b2      	b.n	10003c94 <tud_task+0x6a0>
10003b2e:	466a      	mov	r2, sp
10003b30:	9b00      	ldr	r3, [sp, #0]
10003b32:	7b12      	ldrb	r2, [r2, #12]
10003b34:	a908      	add	r1, sp, #32
10003b36:	0038      	movs	r0, r7
10003b38:	705a      	strb	r2, [r3, #1]
10003b3a:	f000 fbed 	bl	10004318 <tud_control_status>
10003b3e:	e567      	b.n	10003610 <tud_task+0x1c>
10003b40:	9b00      	ldr	r3, [sp, #0]
10003b42:	aa06      	add	r2, sp, #24
10003b44:	785b      	ldrb	r3, [r3, #1]
10003b46:	3202      	adds	r2, #2
10003b48:	7013      	strb	r3, [r2, #0]
10003b4a:	a908      	add	r1, sp, #32
10003b4c:	2301      	movs	r3, #1
10003b4e:	0038      	movs	r0, r7
10003b50:	f000 fbfa 	bl	10004348 <tud_control_xfer>
10003b54:	e55c      	b.n	10003610 <tud_task+0x1c>
10003b56:	9b00      	ldr	r3, [sp, #0]
10003b58:	aa06      	add	r2, sp, #24
10003b5a:	781b      	ldrb	r3, [r3, #0]
10003b5c:	3202      	adds	r2, #2
10003b5e:	0699      	lsls	r1, r3, #26
10003b60:	071b      	lsls	r3, r3, #28
10003b62:	0fdb      	lsrs	r3, r3, #31
10003b64:	0fc9      	lsrs	r1, r1, #31
10003b66:	005b      	lsls	r3, r3, #1
10003b68:	430b      	orrs	r3, r1
10003b6a:	8013      	strh	r3, [r2, #0]
10003b6c:	a908      	add	r1, sp, #32
10003b6e:	2302      	movs	r3, #2
10003b70:	0038      	movs	r0, r7
10003b72:	f000 fbe9 	bl	10004348 <tud_control_xfer>
10003b76:	e54b      	b.n	10003610 <tud_task+0x1c>
10003b78:	88e3      	ldrh	r3, [r4, #6]
10003b7a:	b2d8      	uxtb	r0, r3
10003b7c:	0a1b      	lsrs	r3, r3, #8
10003b7e:	2b0f      	cmp	r3, #15
10003b80:	d900      	bls.n	10003b84 <tud_task+0x590>
10003b82:	e71f      	b.n	100039c4 <tud_task+0x3d0>
10003b84:	4a41      	ldr	r2, [pc, #260]	; (10003c8c <tud_task+0x698>)
10003b86:	009b      	lsls	r3, r3, #2
10003b88:	58d3      	ldr	r3, [r2, r3]
10003b8a:	469f      	mov	pc, r3
10003b8c:	a808      	add	r0, sp, #32
10003b8e:	f000 fc41 	bl	10004414 <usbd_control_set_request>
10003b92:	79a1      	ldrb	r1, [r4, #6]
10003b94:	0038      	movs	r0, r7
10003b96:	f7ff f951 	bl	10002e3c <dcd_set_address>
10003b9a:	2202      	movs	r2, #2
10003b9c:	9900      	ldr	r1, [sp, #0]
10003b9e:	780b      	ldrb	r3, [r1, #0]
10003ba0:	4313      	orrs	r3, r2
10003ba2:	700b      	strb	r3, [r1, #0]
10003ba4:	e534      	b.n	10003610 <tud_task+0x1c>
10003ba6:	88e3      	ldrh	r3, [r4, #6]
10003ba8:	2b01      	cmp	r3, #1
10003baa:	d000      	beq.n	10003bae <tud_task+0x5ba>
10003bac:	e70a      	b.n	100039c4 <tud_task+0x3d0>
10003bae:	2208      	movs	r2, #8
10003bb0:	9900      	ldr	r1, [sp, #0]
10003bb2:	780b      	ldrb	r3, [r1, #0]
10003bb4:	4313      	orrs	r3, r2
10003bb6:	700b      	strb	r3, [r1, #0]
10003bb8:	e761      	b.n	10003a7e <tud_task+0x48a>
10003bba:	88e3      	ldrh	r3, [r4, #6]
10003bbc:	2b01      	cmp	r3, #1
10003bbe:	d000      	beq.n	10003bc2 <tud_task+0x5ce>
10003bc0:	e700      	b.n	100039c4 <tud_task+0x3d0>
10003bc2:	2208      	movs	r2, #8
10003bc4:	9900      	ldr	r1, [sp, #0]
10003bc6:	780b      	ldrb	r3, [r1, #0]
10003bc8:	4393      	bics	r3, r2
10003bca:	700b      	strb	r3, [r1, #0]
10003bcc:	e757      	b.n	10003a7e <tud_task+0x48a>
10003bce:	4b30      	ldr	r3, [pc, #192]	; (10003c90 <tud_task+0x69c>)
10003bd0:	2b00      	cmp	r3, #0
10003bd2:	d100      	bne.n	10003bd6 <tud_task+0x5e2>
10003bd4:	e6f6      	b.n	100039c4 <tud_task+0x3d0>
10003bd6:	e000      	b.n	10003bda <tud_task+0x5e6>
10003bd8:	bf00      	nop
10003bda:	1e02      	subs	r2, r0, #0
10003bdc:	d100      	bne.n	10003be0 <tud_task+0x5ec>
10003bde:	e6f1      	b.n	100039c4 <tud_task+0x3d0>
10003be0:	7813      	ldrb	r3, [r2, #0]
10003be2:	a908      	add	r1, sp, #32
10003be4:	0038      	movs	r0, r7
10003be6:	f000 fbaf 	bl	10004348 <tud_control_xfer>
10003bea:	e704      	b.n	100039f6 <tud_task+0x402>
10003bec:	8921      	ldrh	r1, [r4, #8]
10003bee:	f7fc fcad 	bl	1000054c <tud_descriptor_string_cb>
10003bf2:	1e02      	subs	r2, r0, #0
10003bf4:	d1f4      	bne.n	10003be0 <tud_task+0x5ec>
10003bf6:	e6e5      	b.n	100039c4 <tud_task+0x3d0>
10003bf8:	f7fc fca0 	bl	1000053c <tud_descriptor_device_cb>
10003bfc:	2312      	movs	r3, #18
10003bfe:	0002      	movs	r2, r0
10003c00:	a908      	add	r1, sp, #32
10003c02:	0038      	movs	r0, r7
10003c04:	f000 fba0 	bl	10004348 <tud_control_xfer>
10003c08:	e6d9      	b.n	100039be <tud_task+0x3ca>
10003c0a:	7a23      	ldrb	r3, [r4, #8]
10003c0c:	2b0f      	cmp	r3, #15
10003c0e:	d900      	bls.n	10003c12 <tud_task+0x61e>
10003c10:	e6d8      	b.n	100039c4 <tud_task+0x3d0>
10003c12:	9a00      	ldr	r2, [sp, #0]
10003c14:	18d5      	adds	r5, r2, r3
10003c16:	4a19      	ldr	r2, [pc, #100]	; (10003c7c <tud_task+0x688>)
10003c18:	78eb      	ldrb	r3, [r5, #3]
10003c1a:	2a00      	cmp	r2, #0
10003c1c:	d021      	beq.n	10003c62 <tud_task+0x66e>
10003c1e:	4a18      	ldr	r2, [pc, #96]	; (10003c80 <tud_task+0x68c>)
10003c20:	7812      	ldrb	r2, [r2, #0]
10003c22:	4293      	cmp	r3, r2
10003c24:	d21b      	bcs.n	10003c5e <tud_task+0x66a>
10003c26:	4a17      	ldr	r2, [pc, #92]	; (10003c84 <tud_task+0x690>)
10003c28:	005d      	lsls	r5, r3, #1
10003c2a:	18eb      	adds	r3, r5, r3
10003c2c:	6815      	ldr	r5, [r2, #0]
10003c2e:	00db      	lsls	r3, r3, #3
10003c30:	18ed      	adds	r5, r5, r3
10003c32:	2d00      	cmp	r5, #0
10003c34:	d100      	bne.n	10003c38 <tud_task+0x644>
10003c36:	e6c5      	b.n	100039c4 <tud_task+0x3d0>
10003c38:	68e8      	ldr	r0, [r5, #12]
10003c3a:	f000 fbe5 	bl	10004408 <usbd_control_set_complete_callback>
10003c3e:	68eb      	ldr	r3, [r5, #12]
10003c40:	aa08      	add	r2, sp, #32
10003c42:	2100      	movs	r1, #0
10003c44:	0038      	movs	r0, r7
10003c46:	4798      	blx	r3
10003c48:	e6d5      	b.n	100039f6 <tud_task+0x402>
10003c4a:	9b00      	ldr	r3, [sp, #0]
10003c4c:	aa06      	add	r2, sp, #24
10003c4e:	195b      	adds	r3, r3, r5
10003c50:	4443      	add	r3, r8
10003c52:	3330      	adds	r3, #48	; 0x30
10003c54:	78db      	ldrb	r3, [r3, #3]
10003c56:	3202      	adds	r2, #2
10003c58:	079b      	lsls	r3, r3, #30
10003c5a:	0fdb      	lsrs	r3, r3, #31
10003c5c:	e785      	b.n	10003b6a <tud_task+0x576>
10003c5e:	1a9b      	subs	r3, r3, r2
10003c60:	b2db      	uxtb	r3, r3
10003c62:	2b01      	cmp	r3, #1
10003c64:	d900      	bls.n	10003c68 <tud_task+0x674>
10003c66:	e6ad      	b.n	100039c4 <tud_task+0x3d0>
10003c68:	005d      	lsls	r5, r3, #1
10003c6a:	18eb      	adds	r3, r5, r3
10003c6c:	4d01      	ldr	r5, [pc, #4]	; (10003c74 <tud_task+0x680>)
10003c6e:	00db      	lsls	r3, r3, #3
10003c70:	18ed      	adds	r5, r5, r3
10003c72:	e7e1      	b.n	10003c38 <tud_task+0x644>
10003c74:	10006dd0 	.word	0x10006dd0
	...
10003c80:	2000377c 	.word	0x2000377c
10003c84:	20002e20 	.word	0x20002e20
10003c88:	10006d68 	.word	0x10006d68
10003c8c:	10006d90 	.word	0x10006d90
10003c90:	00000000 	.word	0x00000000
10003c94:	1e50      	subs	r0, r2, #1
10003c96:	b2c0      	uxtb	r0, r0
10003c98:	f7fc fc54 	bl	10000544 <tud_descriptor_configuration_cb>
10003c9c:	2800      	cmp	r0, #0
10003c9e:	d100      	bne.n	10003ca2 <tud_task+0x6ae>
10003ca0:	e690      	b.n	100039c4 <tud_task+0x3d0>
10003ca2:	7843      	ldrb	r3, [r0, #1]
10003ca4:	2b02      	cmp	r3, #2
10003ca6:	d000      	beq.n	10003caa <tud_task+0x6b6>
10003ca8:	e68c      	b.n	100039c4 <tud_task+0x3d0>
10003caa:	2201      	movs	r2, #1
10003cac:	79c5      	ldrb	r5, [r0, #7]
10003cae:	2110      	movs	r1, #16
10003cb0:	096b      	lsrs	r3, r5, #5
10003cb2:	4013      	ands	r3, r2
10003cb4:	011b      	lsls	r3, r3, #4
10003cb6:	4698      	mov	r8, r3
10003cb8:	9b00      	ldr	r3, [sp, #0]
10003cba:	09ad      	lsrs	r5, r5, #6
10003cbc:	781b      	ldrb	r3, [r3, #0]
10003cbe:	402a      	ands	r2, r5
10003cc0:	438b      	bics	r3, r1
10003cc2:	4641      	mov	r1, r8
10003cc4:	430b      	orrs	r3, r1
10003cc6:	2120      	movs	r1, #32
10003cc8:	0152      	lsls	r2, r2, #5
10003cca:	438b      	bics	r3, r1
10003ccc:	4313      	orrs	r3, r2
10003cce:	9a00      	ldr	r2, [sp, #0]
10003cd0:	7013      	strb	r3, [r2, #0]
10003cd2:	2309      	movs	r3, #9
10003cd4:	4699      	mov	r9, r3
10003cd6:	78c3      	ldrb	r3, [r0, #3]
10003cd8:	7882      	ldrb	r2, [r0, #2]
10003cda:	021b      	lsls	r3, r3, #8
10003cdc:	4313      	orrs	r3, r2
10003cde:	18c3      	adds	r3, r0, r3
10003ce0:	4481      	add	r9, r0
10003ce2:	9304      	str	r3, [sp, #16]
10003ce4:	4599      	cmp	r9, r3
10003ce6:	d300      	bcc.n	10003cea <tud_task+0x6f6>
10003ce8:	e0a7      	b.n	10003e3a <tud_task+0x846>
10003cea:	4b6e      	ldr	r3, [pc, #440]	; (10003ea4 <tud_task+0x8b0>)
10003cec:	46ba      	mov	sl, r7
10003cee:	469b      	mov	fp, r3
10003cf0:	464f      	mov	r7, r9
10003cf2:	2300      	movs	r3, #0
10003cf4:	787a      	ldrb	r2, [r7, #1]
10003cf6:	9302      	str	r3, [sp, #8]
10003cf8:	2a0b      	cmp	r2, #11
10003cfa:	d100      	bne.n	10003cfe <tud_task+0x70a>
10003cfc:	e0a4      	b.n	10003e48 <tud_task+0x854>
10003cfe:	2a04      	cmp	r2, #4
10003d00:	d000      	beq.n	10003d04 <tud_task+0x710>
10003d02:	e65f      	b.n	100039c4 <tud_task+0x3d0>
10003d04:	9a00      	ldr	r2, [sp, #0]
10003d06:	9b04      	ldr	r3, [sp, #16]
10003d08:	4694      	mov	ip, r2
10003d0a:	1bdb      	subs	r3, r3, r7
10003d0c:	b29b      	uxth	r3, r3
10003d0e:	4699      	mov	r9, r3
10003d10:	78bb      	ldrb	r3, [r7, #2]
10003d12:	4463      	add	r3, ip
10003d14:	78db      	ldrb	r3, [r3, #3]
10003d16:	2bff      	cmp	r3, #255	; 0xff
10003d18:	d000      	beq.n	10003d1c <tud_task+0x728>
10003d1a:	e653      	b.n	100039c4 <tud_task+0x3d0>
10003d1c:	465b      	mov	r3, fp
10003d1e:	4a62      	ldr	r2, [pc, #392]	; (10003ea8 <tud_task+0x8b4>)
10003d20:	781b      	ldrb	r3, [r3, #0]
10003d22:	2a00      	cmp	r2, #0
10003d24:	d02e      	beq.n	10003d84 <tud_task+0x790>
10003d26:	2200      	movs	r2, #0
10003d28:	9201      	str	r2, [sp, #4]
10003d2a:	003a      	movs	r2, r7
10003d2c:	2500      	movs	r5, #0
10003d2e:	4657      	mov	r7, sl
10003d30:	4692      	mov	sl, r2
10003d32:	e017      	b.n	10003d64 <tud_task+0x770>
10003d34:	4a5d      	ldr	r2, [pc, #372]	; (10003eac <tud_task+0x8b8>)
10003d36:	006b      	lsls	r3, r5, #1
10003d38:	6812      	ldr	r2, [r2, #0]
10003d3a:	195b      	adds	r3, r3, r5
10003d3c:	4694      	mov	ip, r2
10003d3e:	00db      	lsls	r3, r3, #3
10003d40:	9205      	str	r2, [sp, #20]
10003d42:	4463      	add	r3, ip
10003d44:	689b      	ldr	r3, [r3, #8]
10003d46:	464a      	mov	r2, r9
10003d48:	4651      	mov	r1, sl
10003d4a:	0038      	movs	r0, r7
10003d4c:	4798      	blx	r3
10003d4e:	2800      	cmp	r0, #0
10003d50:	d137      	bne.n	10003dc2 <tud_task+0x7ce>
10003d52:	465b      	mov	r3, fp
10003d54:	781b      	ldrb	r3, [r3, #0]
10003d56:	3501      	adds	r5, #1
10003d58:	b2ed      	uxtb	r5, r5
10003d5a:	1c5a      	adds	r2, r3, #1
10003d5c:	9501      	str	r5, [sp, #4]
10003d5e:	42aa      	cmp	r2, r5
10003d60:	da00      	bge.n	10003d64 <tud_task+0x770>
10003d62:	e62f      	b.n	100039c4 <tud_task+0x3d0>
10003d64:	42ab      	cmp	r3, r5
10003d66:	d8e5      	bhi.n	10003d34 <tud_task+0x740>
10003d68:	1aeb      	subs	r3, r5, r3
10003d6a:	b2db      	uxtb	r3, r3
10003d6c:	2b01      	cmp	r3, #1
10003d6e:	d902      	bls.n	10003d76 <tud_task+0x782>
10003d70:	2300      	movs	r3, #0
10003d72:	689b      	ldr	r3, [r3, #8]
10003d74:	deff      	udf	#255	; 0xff
10003d76:	005a      	lsls	r2, r3, #1
10003d78:	18d3      	adds	r3, r2, r3
10003d7a:	4a4d      	ldr	r2, [pc, #308]	; (10003eb0 <tud_task+0x8bc>)
10003d7c:	00db      	lsls	r3, r3, #3
10003d7e:	4694      	mov	ip, r2
10003d80:	4463      	add	r3, ip
10003d82:	e7df      	b.n	10003d44 <tud_task+0x750>
10003d84:	464a      	mov	r2, r9
10003d86:	0039      	movs	r1, r7
10003d88:	4650      	mov	r0, sl
10003d8a:	f000 fce1 	bl	10004750 <cdcd_open>
10003d8e:	4680      	mov	r8, r0
10003d90:	2800      	cmp	r0, #0
10003d92:	d000      	beq.n	10003d96 <tud_task+0x7a2>
10003d94:	e081      	b.n	10003e9a <tud_task+0x8a6>
10003d96:	464a      	mov	r2, r9
10003d98:	0039      	movs	r1, r7
10003d9a:	4650      	mov	r0, sl
10003d9c:	f000 ff12 	bl	10004bc4 <mscd_open>
10003da0:	4680      	mov	r8, r0
10003da2:	2800      	cmp	r0, #0
10003da4:	d175      	bne.n	10003e92 <tud_task+0x89e>
10003da6:	465b      	mov	r3, fp
10003da8:	781b      	ldrb	r3, [r3, #0]
10003daa:	2b00      	cmp	r3, #0
10003dac:	d1e0      	bne.n	10003d70 <tud_task+0x77c>
10003dae:	e609      	b.n	100039c4 <tud_task+0x3d0>
10003db0:	aa06      	add	r2, sp, #24
10003db2:	3202      	adds	r2, #2
10003db4:	7013      	strb	r3, [r2, #0]
10003db6:	a908      	add	r1, sp, #32
10003db8:	3301      	adds	r3, #1
10003dba:	0038      	movs	r0, r7
10003dbc:	f000 fac4 	bl	10004348 <tud_control_xfer>
10003dc0:	e426      	b.n	10003610 <tud_task+0x1c>
10003dc2:	4653      	mov	r3, sl
10003dc4:	4680      	mov	r8, r0
10003dc6:	46ba      	mov	sl, r7
10003dc8:	001f      	movs	r7, r3
10003dca:	4643      	mov	r3, r8
10003dcc:	2b08      	cmp	r3, #8
10003dce:	d800      	bhi.n	10003dd2 <tud_task+0x7de>
10003dd0:	e5f8      	b.n	100039c4 <tud_task+0x3d0>
10003dd2:	45c1      	cmp	r9, r8
10003dd4:	d200      	bcs.n	10003dd8 <tud_task+0x7e4>
10003dd6:	e5f5      	b.n	100039c4 <tud_task+0x3d0>
10003dd8:	78bb      	ldrb	r3, [r7, #2]
10003dda:	9a00      	ldr	r2, [sp, #0]
10003ddc:	18d2      	adds	r2, r2, r3
10003dde:	70d5      	strb	r5, [r2, #3]
10003de0:	9a02      	ldr	r2, [sp, #8]
10003de2:	2a00      	cmp	r2, #0
10003de4:	d015      	beq.n	10003e12 <tud_task+0x81e>
10003de6:	7891      	ldrb	r1, [r2, #2]
10003de8:	0010      	movs	r0, r2
10003dea:	4299      	cmp	r1, r3
10003dec:	d000      	beq.n	10003df0 <tud_task+0x7fc>
10003dee:	e5e9      	b.n	100039c4 <tud_task+0x3d0>
10003df0:	7912      	ldrb	r2, [r2, #4]
10003df2:	797b      	ldrb	r3, [r7, #5]
10003df4:	429a      	cmp	r2, r3
10003df6:	d000      	beq.n	10003dfa <tud_task+0x806>
10003df8:	e5e4      	b.n	100039c4 <tud_task+0x3d0>
10003dfa:	78c2      	ldrb	r2, [r0, #3]
10003dfc:	2a01      	cmp	r2, #1
10003dfe:	d908      	bls.n	10003e12 <tud_task+0x81e>
10003e00:	3a02      	subs	r2, #2
10003e02:	9b00      	ldr	r3, [sp, #0]
10003e04:	3104      	adds	r1, #4
10003e06:	b2d2      	uxtb	r2, r2
10003e08:	1858      	adds	r0, r3, r1
10003e0a:	3201      	adds	r2, #1
10003e0c:	0029      	movs	r1, r5
10003e0e:	f7fe fcd3 	bl	100027b8 <__wrap_memset>
10003e12:	9800      	ldr	r0, [sp, #0]
10003e14:	002b      	movs	r3, r5
10003e16:	4642      	mov	r2, r8
10003e18:	0039      	movs	r1, r7
10003e1a:	3013      	adds	r0, #19
10003e1c:	f001 fa34 	bl	10005288 <tu_edpt_bind_driver>
10003e20:	465b      	mov	r3, fp
10003e22:	781b      	ldrb	r3, [r3, #0]
10003e24:	9a01      	ldr	r2, [sp, #4]
10003e26:	3301      	adds	r3, #1
10003e28:	4447      	add	r7, r8
10003e2a:	4293      	cmp	r3, r2
10003e2c:	da00      	bge.n	10003e30 <tud_task+0x83c>
10003e2e:	e5c9      	b.n	100039c4 <tud_task+0x3d0>
10003e30:	9b04      	ldr	r3, [sp, #16]
10003e32:	42bb      	cmp	r3, r7
10003e34:	d900      	bls.n	10003e38 <tud_task+0x844>
10003e36:	e75c      	b.n	10003cf2 <tud_task+0x6fe>
10003e38:	4657      	mov	r7, sl
10003e3a:	4b1e      	ldr	r3, [pc, #120]	; (10003eb4 <tud_task+0x8c0>)
10003e3c:	2b00      	cmp	r3, #0
10003e3e:	d100      	bne.n	10003e42 <tud_task+0x84e>
10003e40:	e675      	b.n	10003b2e <tud_task+0x53a>
10003e42:	f7fc fadf 	bl	10000404 <tud_mount_cb>
10003e46:	e672      	b.n	10003b2e <tud_task+0x53a>
10003e48:	783b      	ldrb	r3, [r7, #0]
10003e4a:	9702      	str	r7, [sp, #8]
10003e4c:	18fb      	adds	r3, r7, r3
10003e4e:	785a      	ldrb	r2, [r3, #1]
10003e50:	001f      	movs	r7, r3
10003e52:	e754      	b.n	10003cfe <tud_task+0x70a>
10003e54:	f7ff f926 	bl	100030a4 <dcd_edpt_clear_stall>
10003e58:	2102      	movs	r1, #2
10003e5a:	9b00      	ldr	r3, [sp, #0]
10003e5c:	195b      	adds	r3, r3, r5
10003e5e:	4443      	add	r3, r8
10003e60:	3330      	adds	r3, #48	; 0x30
10003e62:	78da      	ldrb	r2, [r3, #3]
10003e64:	438a      	bics	r2, r1
10003e66:	4651      	mov	r1, sl
10003e68:	70da      	strb	r2, [r3, #3]
10003e6a:	78da      	ldrb	r2, [r3, #3]
10003e6c:	438a      	bics	r2, r1
10003e6e:	70da      	strb	r2, [r3, #3]
10003e70:	e631      	b.n	10003ad6 <tud_task+0x4e2>
10003e72:	4b11      	ldr	r3, [pc, #68]	; (10003eb8 <tud_task+0x8c4>)
10003e74:	2b00      	cmp	r3, #0
10003e76:	d100      	bne.n	10003e7a <tud_task+0x886>
10003e78:	e5a4      	b.n	100039c4 <tud_task+0x3d0>
10003e7a:	e000      	b.n	10003e7e <tud_task+0x88a>
10003e7c:	bf00      	nop
10003e7e:	78c3      	ldrb	r3, [r0, #3]
10003e80:	7881      	ldrb	r1, [r0, #2]
10003e82:	021b      	lsls	r3, r3, #8
10003e84:	0002      	movs	r2, r0
10003e86:	430b      	orrs	r3, r1
10003e88:	0038      	movs	r0, r7
10003e8a:	a908      	add	r1, sp, #32
10003e8c:	f000 fa5c 	bl	10004348 <tud_control_xfer>
10003e90:	e5b1      	b.n	100039f6 <tud_task+0x402>
10003e92:	2301      	movs	r3, #1
10003e94:	2501      	movs	r5, #1
10003e96:	9301      	str	r3, [sp, #4]
10003e98:	e797      	b.n	10003dca <tud_task+0x7d6>
10003e9a:	2300      	movs	r3, #0
10003e9c:	2500      	movs	r5, #0
10003e9e:	9301      	str	r3, [sp, #4]
10003ea0:	e793      	b.n	10003dca <tud_task+0x7d6>
10003ea2:	46c0      	nop			; (mov r8, r8)
10003ea4:	2000377c 	.word	0x2000377c
10003ea8:	00000000 	.word	0x00000000
10003eac:	20002e20 	.word	0x20002e20
10003eb0:	10006dd0 	.word	0x10006dd0
10003eb4:	10000405 	.word	0x10000405
10003eb8:	00000000 	.word	0x00000000

10003ebc <dcd_event_bus_signal>:
10003ebc:	b570      	push	{r4, r5, r6, lr}
10003ebe:	b086      	sub	sp, #24
10003ec0:	0005      	movs	r5, r0
10003ec2:	000c      	movs	r4, r1
10003ec4:	220c      	movs	r2, #12
10003ec6:	2100      	movs	r1, #0
10003ec8:	4668      	mov	r0, sp
10003eca:	f7fe fc75 	bl	100027b8 <__wrap_memset>
10003ece:	466b      	mov	r3, sp
10003ed0:	701d      	strb	r5, [r3, #0]
10003ed2:	705c      	strb	r4, [r3, #1]
10003ed4:	2c03      	cmp	r4, #3
10003ed6:	d053      	beq.n	10003f80 <dcd_event_bus_signal+0xc4>
10003ed8:	d91c      	bls.n	10003f14 <dcd_event_bus_signal+0x58>
10003eda:	2c04      	cmp	r4, #4
10003edc:	d008      	beq.n	10003ef0 <dcd_event_bus_signal+0x34>
10003ede:	2c05      	cmp	r4, #5
10003ee0:	d135      	bne.n	10003f4e <dcd_event_bus_signal+0x92>
10003ee2:	4b3e      	ldr	r3, [pc, #248]	; (10003fdc <dcd_event_bus_signal+0x120>)
10003ee4:	781a      	ldrb	r2, [r3, #0]
10003ee6:	07d2      	lsls	r2, r2, #31
10003ee8:	d500      	bpl.n	10003eec <dcd_event_bus_signal+0x30>
10003eea:	e068      	b.n	10003fbe <dcd_event_bus_signal+0x102>
10003eec:	b006      	add	sp, #24
10003eee:	bd70      	pop	{r4, r5, r6, pc}
10003ef0:	4b3a      	ldr	r3, [pc, #232]	; (10003fdc <dcd_event_bus_signal+0x120>)
10003ef2:	781a      	ldrb	r2, [r3, #0]
10003ef4:	07d2      	lsls	r2, r2, #31
10003ef6:	d5f9      	bpl.n	10003eec <dcd_event_bus_signal+0x30>
10003ef8:	2104      	movs	r1, #4
10003efa:	781a      	ldrb	r2, [r3, #0]
10003efc:	430a      	orrs	r2, r1
10003efe:	701a      	strb	r2, [r3, #0]
10003f00:	4b37      	ldr	r3, [pc, #220]	; (10003fe0 <dcd_event_bus_signal+0x124>)
10003f02:	681c      	ldr	r4, [r3, #0]
10003f04:	69e2      	ldr	r2, [r4, #28]
10003f06:	f3ef 8110 	mrs	r1, PRIMASK
10003f0a:	b672      	cpsid	i
10003f0c:	6813      	ldr	r3, [r2, #0]
10003f0e:	2b00      	cmp	r3, #0
10003f10:	d126      	bne.n	10003f60 <dcd_event_bus_signal+0xa4>
10003f12:	e7fb      	b.n	10003f0c <dcd_event_bus_signal+0x50>
10003f14:	2c02      	cmp	r4, #2
10003f16:	d11a      	bne.n	10003f4e <dcd_event_bus_signal+0x92>
10003f18:	4b30      	ldr	r3, [pc, #192]	; (10003fdc <dcd_event_bus_signal+0x120>)
10003f1a:	781a      	ldrb	r2, [r3, #0]
10003f1c:	07d2      	lsls	r2, r2, #31
10003f1e:	d5e5      	bpl.n	10003eec <dcd_event_bus_signal+0x30>
10003f20:	2101      	movs	r1, #1
10003f22:	781a      	ldrb	r2, [r3, #0]
10003f24:	438a      	bics	r2, r1
10003f26:	701a      	strb	r2, [r3, #0]
10003f28:	781a      	ldrb	r2, [r3, #0]
10003f2a:	3103      	adds	r1, #3
10003f2c:	43a2      	bics	r2, r4
10003f2e:	701a      	strb	r2, [r3, #0]
10003f30:	2200      	movs	r2, #0
10003f32:	705a      	strb	r2, [r3, #1]
10003f34:	781a      	ldrb	r2, [r3, #0]
10003f36:	438a      	bics	r2, r1
10003f38:	701a      	strb	r2, [r3, #0]
10003f3a:	4b29      	ldr	r3, [pc, #164]	; (10003fe0 <dcd_event_bus_signal+0x124>)
10003f3c:	681c      	ldr	r4, [r3, #0]
10003f3e:	69e2      	ldr	r2, [r4, #28]
10003f40:	f3ef 8110 	mrs	r1, PRIMASK
10003f44:	b672      	cpsid	i
10003f46:	6813      	ldr	r3, [r2, #0]
10003f48:	2b00      	cmp	r3, #0
10003f4a:	d109      	bne.n	10003f60 <dcd_event_bus_signal+0xa4>
10003f4c:	e7fb      	b.n	10003f46 <dcd_event_bus_signal+0x8a>
10003f4e:	4b24      	ldr	r3, [pc, #144]	; (10003fe0 <dcd_event_bus_signal+0x124>)
10003f50:	681c      	ldr	r4, [r3, #0]
10003f52:	69e2      	ldr	r2, [r4, #28]
10003f54:	f3ef 8110 	mrs	r1, PRIMASK
10003f58:	b672      	cpsid	i
10003f5a:	6813      	ldr	r3, [r2, #0]
10003f5c:	2b00      	cmp	r3, #0
10003f5e:	d0fc      	beq.n	10003f5a <dcd_event_bus_signal+0x9e>
10003f60:	f3bf 8f5f 	dmb	sy
10003f64:	6221      	str	r1, [r4, #32]
10003f66:	4669      	mov	r1, sp
10003f68:	0020      	movs	r0, r4
10003f6a:	f001 fadd 	bl	10005528 <tu_fifo_write>
10003f6e:	69e2      	ldr	r2, [r4, #28]
10003f70:	6a23      	ldr	r3, [r4, #32]
10003f72:	f3bf 8f5f 	dmb	sy
10003f76:	2100      	movs	r1, #0
10003f78:	6011      	str	r1, [r2, #0]
10003f7a:	f383 8810 	msr	PRIMASK, r3
10003f7e:	e7b5      	b.n	10003eec <dcd_event_bus_signal+0x30>
10003f80:	4b16      	ldr	r3, [pc, #88]	; (10003fdc <dcd_event_bus_signal+0x120>)
10003f82:	781a      	ldrb	r2, [r3, #0]
10003f84:	0752      	lsls	r2, r2, #29
10003f86:	d5b1      	bpl.n	10003eec <dcd_event_bus_signal+0x30>
10003f88:	2104      	movs	r1, #4
10003f8a:	781a      	ldrb	r2, [r3, #0]
10003f8c:	ae03      	add	r6, sp, #12
10003f8e:	438a      	bics	r2, r1
10003f90:	701a      	strb	r2, [r3, #0]
10003f92:	2100      	movs	r1, #0
10003f94:	220c      	movs	r2, #12
10003f96:	0030      	movs	r0, r6
10003f98:	f7fe fc0e 	bl	100027b8 <__wrap_memset>
10003f9c:	2305      	movs	r3, #5
10003f9e:	7073      	strb	r3, [r6, #1]
10003fa0:	4b0f      	ldr	r3, [pc, #60]	; (10003fe0 <dcd_event_bus_signal+0x124>)
10003fa2:	7035      	strb	r5, [r6, #0]
10003fa4:	681c      	ldr	r4, [r3, #0]
10003fa6:	69e2      	ldr	r2, [r4, #28]
10003fa8:	f3ef 8110 	mrs	r1, PRIMASK
10003fac:	b672      	cpsid	i
10003fae:	6813      	ldr	r3, [r2, #0]
10003fb0:	2b00      	cmp	r3, #0
10003fb2:	d0fc      	beq.n	10003fae <dcd_event_bus_signal+0xf2>
10003fb4:	f3bf 8f5f 	dmb	sy
10003fb8:	6221      	str	r1, [r4, #32]
10003fba:	0031      	movs	r1, r6
10003fbc:	e7d4      	b.n	10003f68 <dcd_event_bus_signal+0xac>
10003fbe:	2104      	movs	r1, #4
10003fc0:	781a      	ldrb	r2, [r3, #0]
10003fc2:	438a      	bics	r2, r1
10003fc4:	701a      	strb	r2, [r3, #0]
10003fc6:	4b06      	ldr	r3, [pc, #24]	; (10003fe0 <dcd_event_bus_signal+0x124>)
10003fc8:	681c      	ldr	r4, [r3, #0]
10003fca:	69e2      	ldr	r2, [r4, #28]
10003fcc:	f3ef 8110 	mrs	r1, PRIMASK
10003fd0:	b672      	cpsid	i
10003fd2:	6813      	ldr	r3, [r2, #0]
10003fd4:	2b00      	cmp	r3, #0
10003fd6:	d1c3      	bne.n	10003f60 <dcd_event_bus_signal+0xa4>
10003fd8:	e7fb      	b.n	10003fd2 <dcd_event_bus_signal+0x116>
10003fda:	46c0      	nop			; (mov r8, r8)
10003fdc:	20003258 	.word	0x20003258
10003fe0:	200032b0 	.word	0x200032b0

10003fe4 <dcd_event_bus_reset>:
10003fe4:	b570      	push	{r4, r5, r6, lr}
10003fe6:	b084      	sub	sp, #16
10003fe8:	ac01      	add	r4, sp, #4
10003fea:	0006      	movs	r6, r0
10003fec:	000d      	movs	r5, r1
10003fee:	220c      	movs	r2, #12
10003ff0:	2100      	movs	r1, #0
10003ff2:	0020      	movs	r0, r4
10003ff4:	f7fe fbe0 	bl	100027b8 <__wrap_memset>
10003ff8:	2301      	movs	r3, #1
10003ffa:	7063      	strb	r3, [r4, #1]
10003ffc:	4b0d      	ldr	r3, [pc, #52]	; (10004034 <dcd_event_bus_reset+0x50>)
10003ffe:	7125      	strb	r5, [r4, #4]
10004000:	681d      	ldr	r5, [r3, #0]
10004002:	7026      	strb	r6, [r4, #0]
10004004:	69ea      	ldr	r2, [r5, #28]
10004006:	f3ef 8310 	mrs	r3, PRIMASK
1000400a:	b672      	cpsid	i
1000400c:	6811      	ldr	r1, [r2, #0]
1000400e:	2900      	cmp	r1, #0
10004010:	d0fc      	beq.n	1000400c <dcd_event_bus_reset+0x28>
10004012:	f3bf 8f5f 	dmb	sy
10004016:	622b      	str	r3, [r5, #32]
10004018:	0021      	movs	r1, r4
1000401a:	0028      	movs	r0, r5
1000401c:	f001 fa84 	bl	10005528 <tu_fifo_write>
10004020:	69ea      	ldr	r2, [r5, #28]
10004022:	6a2b      	ldr	r3, [r5, #32]
10004024:	f3bf 8f5f 	dmb	sy
10004028:	2100      	movs	r1, #0
1000402a:	6011      	str	r1, [r2, #0]
1000402c:	f383 8810 	msr	PRIMASK, r3
10004030:	b004      	add	sp, #16
10004032:	bd70      	pop	{r4, r5, r6, pc}
10004034:	200032b0 	.word	0x200032b0

10004038 <dcd_event_setup_received>:
10004038:	b570      	push	{r4, r5, r6, lr}
1000403a:	b084      	sub	sp, #16
1000403c:	ad01      	add	r5, sp, #4
1000403e:	0006      	movs	r6, r0
10004040:	000c      	movs	r4, r1
10004042:	220c      	movs	r2, #12
10004044:	2100      	movs	r1, #0
10004046:	0028      	movs	r0, r5
10004048:	f7fe fbb6 	bl	100027b8 <__wrap_memset>
1000404c:	2306      	movs	r3, #6
1000404e:	0021      	movs	r1, r4
10004050:	2208      	movs	r2, #8
10004052:	a802      	add	r0, sp, #8
10004054:	706b      	strb	r3, [r5, #1]
10004056:	702e      	strb	r6, [r5, #0]
10004058:	f7fe fbb4 	bl	100027c4 <__wrap___aeabi_memcpy>
1000405c:	4b0c      	ldr	r3, [pc, #48]	; (10004090 <dcd_event_setup_received+0x58>)
1000405e:	681c      	ldr	r4, [r3, #0]
10004060:	69e2      	ldr	r2, [r4, #28]
10004062:	f3ef 8310 	mrs	r3, PRIMASK
10004066:	b672      	cpsid	i
10004068:	6811      	ldr	r1, [r2, #0]
1000406a:	2900      	cmp	r1, #0
1000406c:	d0fc      	beq.n	10004068 <dcd_event_setup_received+0x30>
1000406e:	f3bf 8f5f 	dmb	sy
10004072:	6223      	str	r3, [r4, #32]
10004074:	0029      	movs	r1, r5
10004076:	0020      	movs	r0, r4
10004078:	f001 fa56 	bl	10005528 <tu_fifo_write>
1000407c:	69e2      	ldr	r2, [r4, #28]
1000407e:	6a23      	ldr	r3, [r4, #32]
10004080:	f3bf 8f5f 	dmb	sy
10004084:	2100      	movs	r1, #0
10004086:	6011      	str	r1, [r2, #0]
10004088:	f383 8810 	msr	PRIMASK, r3
1000408c:	b004      	add	sp, #16
1000408e:	bd70      	pop	{r4, r5, r6, pc}
10004090:	200032b0 	.word	0x200032b0

10004094 <dcd_event_xfer_complete>:
10004094:	b5f0      	push	{r4, r5, r6, r7, lr}
10004096:	46c6      	mov	lr, r8
10004098:	4680      	mov	r8, r0
1000409a:	b500      	push	{lr}
1000409c:	b084      	sub	sp, #16
1000409e:	ac01      	add	r4, sp, #4
100040a0:	000f      	movs	r7, r1
100040a2:	0016      	movs	r6, r2
100040a4:	2100      	movs	r1, #0
100040a6:	220c      	movs	r2, #12
100040a8:	0020      	movs	r0, r4
100040aa:	001d      	movs	r5, r3
100040ac:	f7fe fb84 	bl	100027b8 <__wrap_memset>
100040b0:	4643      	mov	r3, r8
100040b2:	7023      	strb	r3, [r4, #0]
100040b4:	2307      	movs	r3, #7
100040b6:	7063      	strb	r3, [r4, #1]
100040b8:	4b0f      	ldr	r3, [pc, #60]	; (100040f8 <dcd_event_xfer_complete+0x64>)
100040ba:	7165      	strb	r5, [r4, #5]
100040bc:	681d      	ldr	r5, [r3, #0]
100040be:	7127      	strb	r7, [r4, #4]
100040c0:	60a6      	str	r6, [r4, #8]
100040c2:	69ea      	ldr	r2, [r5, #28]
100040c4:	f3ef 8310 	mrs	r3, PRIMASK
100040c8:	b672      	cpsid	i
100040ca:	6811      	ldr	r1, [r2, #0]
100040cc:	2900      	cmp	r1, #0
100040ce:	d0fc      	beq.n	100040ca <dcd_event_xfer_complete+0x36>
100040d0:	f3bf 8f5f 	dmb	sy
100040d4:	622b      	str	r3, [r5, #32]
100040d6:	0021      	movs	r1, r4
100040d8:	0028      	movs	r0, r5
100040da:	f001 fa25 	bl	10005528 <tu_fifo_write>
100040de:	69ea      	ldr	r2, [r5, #28]
100040e0:	6a2b      	ldr	r3, [r5, #32]
100040e2:	f3bf 8f5f 	dmb	sy
100040e6:	2100      	movs	r1, #0
100040e8:	6011      	str	r1, [r2, #0]
100040ea:	f383 8810 	msr	PRIMASK, r3
100040ee:	b004      	add	sp, #16
100040f0:	bc04      	pop	{r2}
100040f2:	4690      	mov	r8, r2
100040f4:	bdf0      	pop	{r4, r5, r6, r7, pc}
100040f6:	46c0      	nop			; (mov r8, r8)
100040f8:	200032b0 	.word	0x200032b0

100040fc <usbd_open_edpt_pair>:
100040fc:	b5f8      	push	{r3, r4, r5, r6, r7, lr}
100040fe:	4657      	mov	r7, sl
10004100:	46de      	mov	lr, fp
10004102:	464e      	mov	r6, r9
10004104:	4645      	mov	r5, r8
10004106:	b5e0      	push	{r5, r6, r7, lr}
10004108:	0017      	movs	r7, r2
1000410a:	9a0a      	ldr	r2, [sp, #40]	; 0x28
1000410c:	4683      	mov	fp, r0
1000410e:	000c      	movs	r4, r1
10004110:	4692      	mov	sl, r2
10004112:	2f00      	cmp	r7, #0
10004114:	d045      	beq.n	100041a2 <usbd_open_edpt_pair+0xa6>
10004116:	784a      	ldrb	r2, [r1, #1]
10004118:	2a05      	cmp	r2, #5
1000411a:	d115      	bne.n	10004148 <usbd_open_edpt_pair+0x4c>
1000411c:	78ce      	ldrb	r6, [r1, #3]
1000411e:	07b6      	lsls	r6, r6, #30
10004120:	0fb6      	lsrs	r6, r6, #30
10004122:	42b3      	cmp	r3, r6
10004124:	d110      	bne.n	10004148 <usbd_open_edpt_pair+0x4c>
10004126:	237f      	movs	r3, #127	; 0x7f
10004128:	788a      	ldrb	r2, [r1, #2]
1000412a:	4013      	ands	r3, r2
1000412c:	2b0f      	cmp	r3, #15
1000412e:	d80b      	bhi.n	10004148 <usbd_open_edpt_pair+0x4c>
10004130:	4b1d      	ldr	r3, [pc, #116]	; (100041a8 <usbd_open_edpt_pair+0xac>)
10004132:	2500      	movs	r5, #0
10004134:	4699      	mov	r9, r3
10004136:	237f      	movs	r3, #127	; 0x7f
10004138:	4698      	mov	r8, r3
1000413a:	464b      	mov	r3, r9
1000413c:	0020      	movs	r0, r4
1000413e:	7899      	ldrb	r1, [r3, #2]
10004140:	f001 f868 	bl	10005214 <tu_edpt_validate>
10004144:	2800      	cmp	r0, #0
10004146:	d106      	bne.n	10004156 <usbd_open_edpt_pair+0x5a>
10004148:	2000      	movs	r0, #0
1000414a:	bc3c      	pop	{r2, r3, r4, r5}
1000414c:	4690      	mov	r8, r2
1000414e:	4699      	mov	r9, r3
10004150:	46a2      	mov	sl, r4
10004152:	46ab      	mov	fp, r5
10004154:	bdf8      	pop	{r3, r4, r5, r6, r7, pc}
10004156:	0021      	movs	r1, r4
10004158:	4658      	mov	r0, fp
1000415a:	f7fe feef 	bl	10002f3c <dcd_edpt_open>
1000415e:	2800      	cmp	r0, #0
10004160:	d0f2      	beq.n	10004148 <usbd_open_edpt_pair+0x4c>
10004162:	78a3      	ldrb	r3, [r4, #2]
10004164:	b25a      	sxtb	r2, r3
10004166:	2a00      	cmp	r2, #0
10004168:	db14      	blt.n	10004194 <usbd_open_edpt_pair+0x98>
1000416a:	4652      	mov	r2, sl
1000416c:	7013      	strb	r3, [r2, #0]
1000416e:	7823      	ldrb	r3, [r4, #0]
10004170:	3501      	adds	r5, #1
10004172:	18e4      	adds	r4, r4, r3
10004174:	42bd      	cmp	r5, r7
10004176:	da14      	bge.n	100041a2 <usbd_open_edpt_pair+0xa6>
10004178:	7863      	ldrb	r3, [r4, #1]
1000417a:	2b05      	cmp	r3, #5
1000417c:	d1e4      	bne.n	10004148 <usbd_open_edpt_pair+0x4c>
1000417e:	78e3      	ldrb	r3, [r4, #3]
10004180:	079b      	lsls	r3, r3, #30
10004182:	0f9b      	lsrs	r3, r3, #30
10004184:	42b3      	cmp	r3, r6
10004186:	d1df      	bne.n	10004148 <usbd_open_edpt_pair+0x4c>
10004188:	4642      	mov	r2, r8
1000418a:	78a3      	ldrb	r3, [r4, #2]
1000418c:	4013      	ands	r3, r2
1000418e:	2b0f      	cmp	r3, #15
10004190:	d9d3      	bls.n	1000413a <usbd_open_edpt_pair+0x3e>
10004192:	e7d9      	b.n	10004148 <usbd_open_edpt_pair+0x4c>
10004194:	9a0b      	ldr	r2, [sp, #44]	; 0x2c
10004196:	3501      	adds	r5, #1
10004198:	7013      	strb	r3, [r2, #0]
1000419a:	7823      	ldrb	r3, [r4, #0]
1000419c:	18e4      	adds	r4, r4, r3
1000419e:	42bd      	cmp	r5, r7
100041a0:	dbea      	blt.n	10004178 <usbd_open_edpt_pair+0x7c>
100041a2:	2001      	movs	r0, #1
100041a4:	e7d1      	b.n	1000414a <usbd_open_edpt_pair+0x4e>
100041a6:	46c0      	nop			; (mov r8, r8)
100041a8:	20003258 	.word	0x20003258

100041ac <usbd_edpt_open>:
100041ac:	237f      	movs	r3, #127	; 0x7f
100041ae:	b570      	push	{r4, r5, r6, lr}
100041b0:	788a      	ldrb	r2, [r1, #2]
100041b2:	0005      	movs	r5, r0
100041b4:	000c      	movs	r4, r1
100041b6:	4013      	ands	r3, r2
100041b8:	2b0f      	cmp	r3, #15
100041ba:	d901      	bls.n	100041c0 <usbd_edpt_open+0x14>
100041bc:	2000      	movs	r0, #0
100041be:	bd70      	pop	{r4, r5, r6, pc}
100041c0:	4b05      	ldr	r3, [pc, #20]	; (100041d8 <usbd_edpt_open+0x2c>)
100041c2:	0020      	movs	r0, r4
100041c4:	7899      	ldrb	r1, [r3, #2]
100041c6:	f001 f825 	bl	10005214 <tu_edpt_validate>
100041ca:	2800      	cmp	r0, #0
100041cc:	d0f6      	beq.n	100041bc <usbd_edpt_open+0x10>
100041ce:	0021      	movs	r1, r4
100041d0:	0028      	movs	r0, r5
100041d2:	f7fe feb3 	bl	10002f3c <dcd_edpt_open>
100041d6:	e7f2      	b.n	100041be <usbd_edpt_open+0x12>
100041d8:	20003258 	.word	0x20003258

100041dc <usbd_edpt_claim>:
100041dc:	237f      	movs	r3, #127	; 0x7f
100041de:	b570      	push	{r4, r5, r6, lr}
100041e0:	400b      	ands	r3, r1
100041e2:	4c13      	ldr	r4, [pc, #76]	; (10004230 <usbd_edpt_claim+0x54>)
100041e4:	005b      	lsls	r3, r3, #1
100041e6:	09c9      	lsrs	r1, r1, #7
100041e8:	18e4      	adds	r4, r4, r3
100041ea:	1864      	adds	r4, r4, r1
100041ec:	3430      	adds	r4, #48	; 0x30
100041ee:	78e0      	ldrb	r0, [r4, #3]
100041f0:	07c0      	lsls	r0, r0, #31
100041f2:	0fc0      	lsrs	r0, r0, #31
100041f4:	d11a      	bne.n	1000422c <usbd_edpt_claim+0x50>
100041f6:	78e3      	ldrb	r3, [r4, #3]
100041f8:	075b      	lsls	r3, r3, #29
100041fa:	d500      	bpl.n	100041fe <usbd_edpt_claim+0x22>
100041fc:	bd70      	pop	{r4, r5, r6, pc}
100041fe:	2101      	movs	r1, #1
10004200:	4e0c      	ldr	r6, [pc, #48]	; (10004234 <usbd_edpt_claim+0x58>)
10004202:	4249      	negs	r1, r1
10004204:	6830      	ldr	r0, [r6, #0]
10004206:	f002 fc6b 	bl	10006ae0 <__mutex_enter_timeout_ms_veneer>
1000420a:	78e3      	ldrb	r3, [r4, #3]
1000420c:	2500      	movs	r5, #0
1000420e:	07db      	lsls	r3, r3, #31
10004210:	d407      	bmi.n	10004222 <usbd_edpt_claim+0x46>
10004212:	78e3      	ldrb	r3, [r4, #3]
10004214:	075b      	lsls	r3, r3, #29
10004216:	d404      	bmi.n	10004222 <usbd_edpt_claim+0x46>
10004218:	2204      	movs	r2, #4
1000421a:	2501      	movs	r5, #1
1000421c:	78e3      	ldrb	r3, [r4, #3]
1000421e:	4313      	orrs	r3, r2
10004220:	70e3      	strb	r3, [r4, #3]
10004222:	6830      	ldr	r0, [r6, #0]
10004224:	f002 fc3c 	bl	10006aa0 <__mutex_exit_veneer>
10004228:	0028      	movs	r0, r5
1000422a:	e7e7      	b.n	100041fc <usbd_edpt_claim+0x20>
1000422c:	2000      	movs	r0, #0
1000422e:	e7e5      	b.n	100041fc <usbd_edpt_claim+0x20>
10004230:	20003258 	.word	0x20003258
10004234:	200032ac 	.word	0x200032ac

10004238 <usbd_edpt_release>:
10004238:	b570      	push	{r4, r5, r6, lr}
1000423a:	000d      	movs	r5, r1
1000423c:	2101      	movs	r1, #1
1000423e:	4c0f      	ldr	r4, [pc, #60]	; (1000427c <usbd_edpt_release+0x44>)
10004240:	4249      	negs	r1, r1
10004242:	6820      	ldr	r0, [r4, #0]
10004244:	f002 fc4c 	bl	10006ae0 <__mutex_enter_timeout_ms_veneer>
10004248:	217f      	movs	r1, #127	; 0x7f
1000424a:	4029      	ands	r1, r5
1000424c:	004b      	lsls	r3, r1, #1
1000424e:	490c      	ldr	r1, [pc, #48]	; (10004280 <usbd_edpt_release+0x48>)
10004250:	09ed      	lsrs	r5, r5, #7
10004252:	18c9      	adds	r1, r1, r3
10004254:	1949      	adds	r1, r1, r5
10004256:	3130      	adds	r1, #48	; 0x30
10004258:	78cb      	ldrb	r3, [r1, #3]
1000425a:	2500      	movs	r5, #0
1000425c:	07db      	lsls	r3, r3, #31
1000425e:	d407      	bmi.n	10004270 <usbd_edpt_release+0x38>
10004260:	78cb      	ldrb	r3, [r1, #3]
10004262:	075b      	lsls	r3, r3, #29
10004264:	d504      	bpl.n	10004270 <usbd_edpt_release+0x38>
10004266:	2204      	movs	r2, #4
10004268:	78cb      	ldrb	r3, [r1, #3]
1000426a:	3501      	adds	r5, #1
1000426c:	4393      	bics	r3, r2
1000426e:	70cb      	strb	r3, [r1, #3]
10004270:	6820      	ldr	r0, [r4, #0]
10004272:	f002 fc15 	bl	10006aa0 <__mutex_exit_veneer>
10004276:	0028      	movs	r0, r5
10004278:	bd70      	pop	{r4, r5, r6, pc}
1000427a:	46c0      	nop			; (mov r8, r8)
1000427c:	200032ac 	.word	0x200032ac
10004280:	20003258 	.word	0x20003258

10004284 <usbd_edpt_xfer>:
10004284:	b570      	push	{r4, r5, r6, lr}
10004286:	247f      	movs	r4, #127	; 0x7f
10004288:	400c      	ands	r4, r1
1000428a:	0065      	lsls	r5, r4, #1
1000428c:	4c0e      	ldr	r4, [pc, #56]	; (100042c8 <usbd_edpt_xfer+0x44>)
1000428e:	0006      	movs	r6, r0
10004290:	1964      	adds	r4, r4, r5
10004292:	09c8      	lsrs	r0, r1, #7
10004294:	1824      	adds	r4, r4, r0
10004296:	3430      	adds	r4, #48	; 0x30
10004298:	78e5      	ldrb	r5, [r4, #3]
1000429a:	2000      	movs	r0, #0
1000429c:	07ed      	lsls	r5, r5, #31
1000429e:	d500      	bpl.n	100042a2 <usbd_edpt_xfer+0x1e>
100042a0:	bd70      	pop	{r4, r5, r6, pc}
100042a2:	2501      	movs	r5, #1
100042a4:	78e0      	ldrb	r0, [r4, #3]
100042a6:	4328      	orrs	r0, r5
100042a8:	70e0      	strb	r0, [r4, #3]
100042aa:	0030      	movs	r0, r6
100042ac:	f7fe feca 	bl	10003044 <dcd_edpt_xfer>
100042b0:	2800      	cmp	r0, #0
100042b2:	d1f5      	bne.n	100042a0 <usbd_edpt_xfer+0x1c>
100042b4:	2201      	movs	r2, #1
100042b6:	78e3      	ldrb	r3, [r4, #3]
100042b8:	4393      	bics	r3, r2
100042ba:	70e3      	strb	r3, [r4, #3]
100042bc:	78e3      	ldrb	r3, [r4, #3]
100042be:	3203      	adds	r2, #3
100042c0:	4393      	bics	r3, r2
100042c2:	70e3      	strb	r3, [r4, #3]
100042c4:	e7ec      	b.n	100042a0 <usbd_edpt_xfer+0x1c>
100042c6:	46c0      	nop			; (mov r8, r8)
100042c8:	20003258 	.word	0x20003258

100042cc <usbd_edpt_stall>:
100042cc:	b510      	push	{r4, lr}
100042ce:	000c      	movs	r4, r1
100042d0:	f7fe feca 	bl	10003068 <dcd_edpt_stall>
100042d4:	217f      	movs	r1, #127	; 0x7f
100042d6:	2202      	movs	r2, #2
100042d8:	4021      	ands	r1, r4
100042da:	004b      	lsls	r3, r1, #1
100042dc:	4906      	ldr	r1, [pc, #24]	; (100042f8 <usbd_edpt_stall+0x2c>)
100042de:	09e4      	lsrs	r4, r4, #7
100042e0:	18c9      	adds	r1, r1, r3
100042e2:	1909      	adds	r1, r1, r4
100042e4:	3130      	adds	r1, #48	; 0x30
100042e6:	78cb      	ldrb	r3, [r1, #3]
100042e8:	4313      	orrs	r3, r2
100042ea:	2201      	movs	r2, #1
100042ec:	70cb      	strb	r3, [r1, #3]
100042ee:	78cb      	ldrb	r3, [r1, #3]
100042f0:	4313      	orrs	r3, r2
100042f2:	70cb      	strb	r3, [r1, #3]
100042f4:	bd10      	pop	{r4, pc}
100042f6:	46c0      	nop			; (mov r8, r8)
100042f8:	20003258 	.word	0x20003258

100042fc <usbd_edpt_stalled>:
100042fc:	237f      	movs	r3, #127	; 0x7f
100042fe:	09ca      	lsrs	r2, r1, #7
10004300:	400b      	ands	r3, r1
10004302:	4904      	ldr	r1, [pc, #16]	; (10004314 <usbd_edpt_stalled+0x18>)
10004304:	005b      	lsls	r3, r3, #1
10004306:	18c9      	adds	r1, r1, r3
10004308:	1889      	adds	r1, r1, r2
1000430a:	3130      	adds	r1, #48	; 0x30
1000430c:	78c8      	ldrb	r0, [r1, #3]
1000430e:	0780      	lsls	r0, r0, #30
10004310:	0fc0      	lsrs	r0, r0, #31
10004312:	4770      	bx	lr
10004314:	20003258 	.word	0x20003258

10004318 <tud_control_status>:
10004318:	b570      	push	{r4, r5, r6, lr}
1000431a:	4c0a      	ldr	r4, [pc, #40]	; (10004344 <tud_control_status+0x2c>)
1000431c:	0006      	movs	r6, r0
1000431e:	2208      	movs	r2, #8
10004320:	0020      	movs	r0, r4
10004322:	000d      	movs	r5, r1
10004324:	f7fe fa4e 	bl	100027c4 <__wrap___aeabi_memcpy>
10004328:	2300      	movs	r3, #0
1000432a:	2100      	movs	r1, #0
1000432c:	60a3      	str	r3, [r4, #8]
1000432e:	81e3      	strh	r3, [r4, #14]
10004330:	81a3      	strh	r3, [r4, #12]
10004332:	5669      	ldrsb	r1, [r5, r1]
10004334:	0030      	movs	r0, r6
10004336:	43c9      	mvns	r1, r1
10004338:	0fc9      	lsrs	r1, r1, #31
1000433a:	01c9      	lsls	r1, r1, #7
1000433c:	2200      	movs	r2, #0
1000433e:	f7ff ffa1 	bl	10004284 <usbd_edpt_xfer>
10004342:	bd70      	pop	{r4, r5, r6, pc}
10004344:	20002f7c 	.word	0x20002f7c

10004348 <tud_control_xfer>:
10004348:	b5f0      	push	{r4, r5, r6, r7, lr}
1000434a:	46c6      	mov	lr, r8
1000434c:	4690      	mov	r8, r2
1000434e:	4c27      	ldr	r4, [pc, #156]	; (100043ec <tud_control_xfer+0xa4>)
10004350:	2208      	movs	r2, #8
10004352:	b500      	push	{lr}
10004354:	0006      	movs	r6, r0
10004356:	0020      	movs	r0, r4
10004358:	000d      	movs	r5, r1
1000435a:	001f      	movs	r7, r3
1000435c:	f7fe fa32 	bl	100027c4 <__wrap___aeabi_memcpy>
10004360:	4643      	mov	r3, r8
10004362:	60a3      	str	r3, [r4, #8]
10004364:	2300      	movs	r3, #0
10004366:	81e3      	strh	r3, [r4, #14]
10004368:	79eb      	ldrb	r3, [r5, #7]
1000436a:	79aa      	ldrb	r2, [r5, #6]
1000436c:	021b      	lsls	r3, r3, #8
1000436e:	4313      	orrs	r3, r2
10004370:	1c1a      	adds	r2, r3, #0
10004372:	42bb      	cmp	r3, r7
10004374:	d900      	bls.n	10004378 <tud_control_xfer+0x30>
10004376:	1c3a      	adds	r2, r7, #0
10004378:	b297      	uxth	r7, r2
1000437a:	81a2      	strh	r2, [r4, #12]
1000437c:	2b00      	cmp	r3, #0
1000437e:	d012      	beq.n	100043a6 <tud_control_xfer+0x5e>
10004380:	2f00      	cmp	r7, #0
10004382:	d01f      	beq.n	100043c4 <tud_control_xfer+0x7c>
10004384:	4643      	mov	r3, r8
10004386:	2b00      	cmp	r3, #0
10004388:	d02e      	beq.n	100043e8 <tud_control_xfer+0xa0>
1000438a:	1c3b      	adds	r3, r7, #0
1000438c:	2f40      	cmp	r7, #64	; 0x40
1000438e:	d817      	bhi.n	100043c0 <tud_control_xfer+0x78>
10004390:	b29f      	uxth	r7, r3
10004392:	7823      	ldrb	r3, [r4, #0]
10004394:	2b7f      	cmp	r3, #127	; 0x7f
10004396:	d81e      	bhi.n	100043d6 <tud_control_xfer+0x8e>
10004398:	2100      	movs	r1, #0
1000439a:	4a15      	ldr	r2, [pc, #84]	; (100043f0 <tud_control_xfer+0xa8>)
1000439c:	003b      	movs	r3, r7
1000439e:	0030      	movs	r0, r6
100043a0:	f7ff ff70 	bl	10004284 <usbd_edpt_xfer>
100043a4:	e009      	b.n	100043ba <tud_control_xfer+0x72>
100043a6:	2100      	movs	r1, #0
100043a8:	5669      	ldrsb	r1, [r5, r1]
100043aa:	2300      	movs	r3, #0
100043ac:	43c9      	mvns	r1, r1
100043ae:	0fc9      	lsrs	r1, r1, #31
100043b0:	01c9      	lsls	r1, r1, #7
100043b2:	2200      	movs	r2, #0
100043b4:	0030      	movs	r0, r6
100043b6:	f7ff ff65 	bl	10004284 <usbd_edpt_xfer>
100043ba:	bc04      	pop	{r2}
100043bc:	4690      	mov	r8, r2
100043be:	bdf0      	pop	{r4, r5, r6, r7, pc}
100043c0:	2340      	movs	r3, #64	; 0x40
100043c2:	e7e5      	b.n	10004390 <tud_control_xfer+0x48>
100043c4:	7823      	ldrb	r3, [r4, #0]
100043c6:	2b7f      	cmp	r3, #127	; 0x7f
100043c8:	d802      	bhi.n	100043d0 <tud_control_xfer+0x88>
100043ca:	2100      	movs	r1, #0
100043cc:	2200      	movs	r2, #0
100043ce:	e7e5      	b.n	1000439c <tud_control_xfer+0x54>
100043d0:	2180      	movs	r1, #128	; 0x80
100043d2:	2200      	movs	r2, #0
100043d4:	e7e2      	b.n	1000439c <tud_control_xfer+0x54>
100043d6:	4c06      	ldr	r4, [pc, #24]	; (100043f0 <tud_control_xfer+0xa8>)
100043d8:	003a      	movs	r2, r7
100043da:	4641      	mov	r1, r8
100043dc:	0020      	movs	r0, r4
100043de:	f7fe f9f1 	bl	100027c4 <__wrap___aeabi_memcpy>
100043e2:	2180      	movs	r1, #128	; 0x80
100043e4:	0022      	movs	r2, r4
100043e6:	e7d9      	b.n	1000439c <tud_control_xfer+0x54>
100043e8:	2000      	movs	r0, #0
100043ea:	e7e6      	b.n	100043ba <tud_control_xfer+0x72>
100043ec:	20002f7c 	.word	0x20002f7c
100043f0:	20003218 	.word	0x20003218

100043f4 <usbd_control_reset>:
100043f4:	b510      	push	{r4, lr}
100043f6:	2214      	movs	r2, #20
100043f8:	2100      	movs	r1, #0
100043fa:	4802      	ldr	r0, [pc, #8]	; (10004404 <usbd_control_reset+0x10>)
100043fc:	f7fe f9dc 	bl	100027b8 <__wrap_memset>
10004400:	bd10      	pop	{r4, pc}
10004402:	46c0      	nop			; (mov r8, r8)
10004404:	20002f7c 	.word	0x20002f7c

10004408 <usbd_control_set_complete_callback>:
10004408:	4b01      	ldr	r3, [pc, #4]	; (10004410 <usbd_control_set_complete_callback+0x8>)
1000440a:	6118      	str	r0, [r3, #16]
1000440c:	4770      	bx	lr
1000440e:	46c0      	nop			; (mov r8, r8)
10004410:	20002f7c 	.word	0x20002f7c

10004414 <usbd_control_set_request>:
10004414:	b510      	push	{r4, lr}
10004416:	4c05      	ldr	r4, [pc, #20]	; (1000442c <usbd_control_set_request+0x18>)
10004418:	0001      	movs	r1, r0
1000441a:	2208      	movs	r2, #8
1000441c:	0020      	movs	r0, r4
1000441e:	f7fe f9d1 	bl	100027c4 <__wrap___aeabi_memcpy>
10004422:	2300      	movs	r3, #0
10004424:	60a3      	str	r3, [r4, #8]
10004426:	81e3      	strh	r3, [r4, #14]
10004428:	81a3      	strh	r3, [r4, #12]
1000442a:	bd10      	pop	{r4, pc}
1000442c:	20002f7c 	.word	0x20002f7c

10004430 <usbd_control_xfer_cb>:
10004430:	b570      	push	{r4, r5, r6, lr}
10004432:	4c3a      	ldr	r4, [pc, #232]	; (1000451c <usbd_control_xfer_cb+0xec>)
10004434:	001d      	movs	r5, r3
10004436:	7823      	ldrb	r3, [r4, #0]
10004438:	0006      	movs	r6, r0
1000443a:	09da      	lsrs	r2, r3, #7
1000443c:	09c9      	lsrs	r1, r1, #7
1000443e:	428a      	cmp	r2, r1
10004440:	d012      	beq.n	10004468 <usbd_control_xfer_cb+0x38>
10004442:	2000      	movs	r0, #0
10004444:	2d00      	cmp	r5, #0
10004446:	d10e      	bne.n	10004466 <usbd_control_xfer_cb+0x36>
10004448:	4b35      	ldr	r3, [pc, #212]	; (10004520 <usbd_control_xfer_cb+0xf0>)
1000444a:	2b00      	cmp	r3, #0
1000444c:	d003      	beq.n	10004456 <usbd_control_xfer_cb+0x26>
1000444e:	0021      	movs	r1, r4
10004450:	0030      	movs	r0, r6
10004452:	f7fe fd5f 	bl	10002f14 <dcd_edpt0_status_complete>
10004456:	6923      	ldr	r3, [r4, #16]
10004458:	2b00      	cmp	r3, #0
1000445a:	d02e      	beq.n	100044ba <usbd_control_xfer_cb+0x8a>
1000445c:	0022      	movs	r2, r4
1000445e:	2102      	movs	r1, #2
10004460:	0030      	movs	r0, r6
10004462:	4798      	blx	r3
10004464:	2001      	movs	r0, #1
10004466:	bd70      	pop	{r4, r5, r6, pc}
10004468:	2b7f      	cmp	r3, #127	; 0x7f
1000446a:	d806      	bhi.n	1000447a <usbd_control_xfer_cb+0x4a>
1000446c:	68a0      	ldr	r0, [r4, #8]
1000446e:	2800      	cmp	r0, #0
10004470:	d025      	beq.n	100044be <usbd_control_xfer_cb+0x8e>
10004472:	002a      	movs	r2, r5
10004474:	492b      	ldr	r1, [pc, #172]	; (10004524 <usbd_control_xfer_cb+0xf4>)
10004476:	f7fe f9a5 	bl	100027c4 <__wrap___aeabi_memcpy>
1000447a:	68a2      	ldr	r2, [r4, #8]
1000447c:	89e3      	ldrh	r3, [r4, #14]
1000447e:	1951      	adds	r1, r2, r5
10004480:	195b      	adds	r3, r3, r5
10004482:	88e2      	ldrh	r2, [r4, #6]
10004484:	b29b      	uxth	r3, r3
10004486:	81e3      	strh	r3, [r4, #14]
10004488:	60a1      	str	r1, [r4, #8]
1000448a:	429a      	cmp	r2, r3
1000448c:	d001      	beq.n	10004492 <usbd_control_xfer_cb+0x62>
1000448e:	2d3f      	cmp	r5, #63	; 0x3f
10004490:	d817      	bhi.n	100044c2 <usbd_control_xfer_cb+0x92>
10004492:	6923      	ldr	r3, [r4, #16]
10004494:	2b00      	cmp	r3, #0
10004496:	d005      	beq.n	100044a4 <usbd_control_xfer_cb+0x74>
10004498:	0022      	movs	r2, r4
1000449a:	2101      	movs	r1, #1
1000449c:	0030      	movs	r0, r6
1000449e:	4798      	blx	r3
100044a0:	2800      	cmp	r0, #0
100044a2:	d024      	beq.n	100044ee <usbd_control_xfer_cb+0xbe>
100044a4:	2100      	movs	r1, #0
100044a6:	5661      	ldrsb	r1, [r4, r1]
100044a8:	2300      	movs	r3, #0
100044aa:	43c9      	mvns	r1, r1
100044ac:	0fc9      	lsrs	r1, r1, #31
100044ae:	01c9      	lsls	r1, r1, #7
100044b0:	2200      	movs	r2, #0
100044b2:	0030      	movs	r0, r6
100044b4:	f7ff fee6 	bl	10004284 <usbd_edpt_xfer>
100044b8:	e7d5      	b.n	10004466 <usbd_control_xfer_cb+0x36>
100044ba:	2001      	movs	r0, #1
100044bc:	e7d3      	b.n	10004466 <usbd_control_xfer_cb+0x36>
100044be:	2000      	movs	r0, #0
100044c0:	e7d1      	b.n	10004466 <usbd_control_xfer_cb+0x36>
100044c2:	89a2      	ldrh	r2, [r4, #12]
100044c4:	1ad3      	subs	r3, r2, r3
100044c6:	1c1d      	adds	r5, r3, #0
100044c8:	b29b      	uxth	r3, r3
100044ca:	2b40      	cmp	r3, #64	; 0x40
100044cc:	d900      	bls.n	100044d0 <usbd_control_xfer_cb+0xa0>
100044ce:	2540      	movs	r5, #64	; 0x40
100044d0:	7823      	ldrb	r3, [r4, #0]
100044d2:	b2ad      	uxth	r5, r5
100044d4:	2b7f      	cmp	r3, #127	; 0x7f
100044d6:	d814      	bhi.n	10004502 <usbd_control_xfer_cb+0xd2>
100044d8:	2100      	movs	r1, #0
100044da:	2d00      	cmp	r5, #0
100044dc:	d105      	bne.n	100044ea <usbd_control_xfer_cb+0xba>
100044de:	2200      	movs	r2, #0
100044e0:	002b      	movs	r3, r5
100044e2:	0030      	movs	r0, r6
100044e4:	f7ff fece 	bl	10004284 <usbd_edpt_xfer>
100044e8:	e7bd      	b.n	10004466 <usbd_control_xfer_cb+0x36>
100044ea:	4a0e      	ldr	r2, [pc, #56]	; (10004524 <usbd_control_xfer_cb+0xf4>)
100044ec:	e7f8      	b.n	100044e0 <usbd_control_xfer_cb+0xb0>
100044ee:	2100      	movs	r1, #0
100044f0:	0030      	movs	r0, r6
100044f2:	f7fe fdb9 	bl	10003068 <dcd_edpt_stall>
100044f6:	0030      	movs	r0, r6
100044f8:	2180      	movs	r1, #128	; 0x80
100044fa:	f7fe fdb5 	bl	10003068 <dcd_edpt_stall>
100044fe:	2001      	movs	r0, #1
10004500:	e7b1      	b.n	10004466 <usbd_control_xfer_cb+0x36>
10004502:	2d00      	cmp	r5, #0
10004504:	d101      	bne.n	1000450a <usbd_control_xfer_cb+0xda>
10004506:	2180      	movs	r1, #128	; 0x80
10004508:	e7e9      	b.n	100044de <usbd_control_xfer_cb+0xae>
1000450a:	4c06      	ldr	r4, [pc, #24]	; (10004524 <usbd_control_xfer_cb+0xf4>)
1000450c:	002a      	movs	r2, r5
1000450e:	0020      	movs	r0, r4
10004510:	f7fe f958 	bl	100027c4 <__wrap___aeabi_memcpy>
10004514:	2180      	movs	r1, #128	; 0x80
10004516:	0022      	movs	r2, r4
10004518:	e7e2      	b.n	100044e0 <usbd_control_xfer_cb+0xb0>
1000451a:	46c0      	nop			; (mov r8, r8)
1000451c:	20002f7c 	.word	0x20002f7c
10004520:	10002f15 	.word	0x10002f15
10004524:	20003218 	.word	0x20003218

10004528 <tud_cdc_n_available>:
10004528:	0003      	movs	r3, r0
1000452a:	20ac      	movs	r0, #172	; 0xac
1000452c:	0040      	lsls	r0, r0, #1
1000452e:	4358      	muls	r0, r3
10004530:	b510      	push	{r4, lr}
10004532:	4b03      	ldr	r3, [pc, #12]	; (10004540 <tud_cdc_n_available+0x18>)
10004534:	3010      	adds	r0, #16
10004536:	1818      	adds	r0, r3, r0
10004538:	f000 ff00 	bl	1000533c <tu_fifo_count>
1000453c:	bd10      	pop	{r4, pc}
1000453e:	46c0      	nop			; (mov r8, r8)
10004540:	20002e24 	.word	0x20002e24

10004544 <tud_cdc_n_read>:
10004544:	b5f0      	push	{r4, r5, r6, r7, lr}
10004546:	25ac      	movs	r5, #172	; 0xac
10004548:	006d      	lsls	r5, r5, #1
1000454a:	4345      	muls	r5, r0
1000454c:	002c      	movs	r4, r5
1000454e:	46c6      	mov	lr, r8
10004550:	4e17      	ldr	r6, [pc, #92]	; (100045b0 <tud_cdc_n_read+0x6c>)
10004552:	3410      	adds	r4, #16
10004554:	1934      	adds	r4, r6, r4
10004556:	b500      	push	{lr}
10004558:	b292      	uxth	r2, r2
1000455a:	0020      	movs	r0, r4
1000455c:	f000 ff66 	bl	1000542c <tu_fifo_read_n>
10004560:	0007      	movs	r7, r0
10004562:	0020      	movs	r0, r4
10004564:	f000 ff04 	bl	10005370 <tu_fifo_remaining>
10004568:	283f      	cmp	r0, #63	; 0x3f
1000456a:	d803      	bhi.n	10004574 <tud_cdc_n_read+0x30>
1000456c:	0038      	movs	r0, r7
1000456e:	bc04      	pop	{r2}
10004570:	4690      	mov	r8, r2
10004572:	bdf0      	pop	{r4, r5, r6, r7, pc}
10004574:	1973      	adds	r3, r6, r5
10004576:	78d9      	ldrb	r1, [r3, #3]
10004578:	2000      	movs	r0, #0
1000457a:	4698      	mov	r8, r3
1000457c:	f7ff fe2e 	bl	100041dc <usbd_edpt_claim>
10004580:	2800      	cmp	r0, #0
10004582:	d0f3      	beq.n	1000456c <tud_cdc_n_read+0x28>
10004584:	0020      	movs	r0, r4
10004586:	f000 fef3 	bl	10005370 <tu_fifo_remaining>
1000458a:	283f      	cmp	r0, #63	; 0x3f
1000458c:	d805      	bhi.n	1000459a <tud_cdc_n_read+0x56>
1000458e:	4643      	mov	r3, r8
10004590:	2000      	movs	r0, #0
10004592:	78d9      	ldrb	r1, [r3, #3]
10004594:	f7ff fe50 	bl	10004238 <usbd_edpt_release>
10004598:	e7e8      	b.n	1000456c <tud_cdc_n_read+0x28>
1000459a:	002a      	movs	r2, r5
1000459c:	4643      	mov	r3, r8
1000459e:	32d8      	adds	r2, #216	; 0xd8
100045a0:	78d9      	ldrb	r1, [r3, #3]
100045a2:	18b2      	adds	r2, r6, r2
100045a4:	2340      	movs	r3, #64	; 0x40
100045a6:	2000      	movs	r0, #0
100045a8:	f7ff fe6c 	bl	10004284 <usbd_edpt_xfer>
100045ac:	e7de      	b.n	1000456c <tud_cdc_n_read+0x28>
100045ae:	46c0      	nop			; (mov r8, r8)
100045b0:	20002e24 	.word	0x20002e24

100045b4 <tud_cdc_n_write>:
100045b4:	b5f0      	push	{r4, r5, r6, r7, lr}
100045b6:	25ac      	movs	r5, #172	; 0xac
100045b8:	006d      	lsls	r5, r5, #1
100045ba:	4345      	muls	r5, r0
100045bc:	002c      	movs	r4, r5
100045be:	46c6      	mov	lr, r8
100045c0:	4e1e      	ldr	r6, [pc, #120]	; (1000463c <tud_cdc_n_write+0x88>)
100045c2:	342c      	adds	r4, #44	; 0x2c
100045c4:	1934      	adds	r4, r6, r4
100045c6:	b500      	push	{lr}
100045c8:	b292      	uxth	r2, r2
100045ca:	0020      	movs	r0, r4
100045cc:	f000 fff0 	bl	100055b0 <tu_fifo_write_n>
100045d0:	0007      	movs	r7, r0
100045d2:	0020      	movs	r0, r4
100045d4:	f000 feb2 	bl	1000533c <tu_fifo_count>
100045d8:	283f      	cmp	r0, #63	; 0x3f
100045da:	d803      	bhi.n	100045e4 <tud_cdc_n_write+0x30>
100045dc:	0038      	movs	r0, r7
100045de:	bc04      	pop	{r2}
100045e0:	4690      	mov	r8, r2
100045e2:	bdf0      	pop	{r4, r5, r6, r7, pc}
100045e4:	f7fe ff76 	bl	100034d4 <tud_mounted>
100045e8:	2800      	cmp	r0, #0
100045ea:	d0f7      	beq.n	100045dc <tud_cdc_n_write+0x28>
100045ec:	f7fe ff7a 	bl	100034e4 <tud_suspended>
100045f0:	2800      	cmp	r0, #0
100045f2:	d1f3      	bne.n	100045dc <tud_cdc_n_write+0x28>
100045f4:	0020      	movs	r0, r4
100045f6:	f000 fea1 	bl	1000533c <tu_fifo_count>
100045fa:	2800      	cmp	r0, #0
100045fc:	d0ee      	beq.n	100045dc <tud_cdc_n_write+0x28>
100045fe:	1973      	adds	r3, r6, r5
10004600:	7899      	ldrb	r1, [r3, #2]
10004602:	2000      	movs	r0, #0
10004604:	4698      	mov	r8, r3
10004606:	f7ff fde9 	bl	100041dc <usbd_edpt_claim>
1000460a:	2800      	cmp	r0, #0
1000460c:	d0e6      	beq.n	100045dc <tud_cdc_n_write+0x28>
1000460e:	3519      	adds	r5, #25
10004610:	35ff      	adds	r5, #255	; 0xff
10004612:	1976      	adds	r6, r6, r5
10004614:	0031      	movs	r1, r6
10004616:	2240      	movs	r2, #64	; 0x40
10004618:	0020      	movs	r0, r4
1000461a:	f000 ff07 	bl	1000542c <tu_fifo_read_n>
1000461e:	4643      	mov	r3, r8
10004620:	7899      	ldrb	r1, [r3, #2]
10004622:	2800      	cmp	r0, #0
10004624:	d005      	beq.n	10004632 <tud_cdc_n_write+0x7e>
10004626:	0003      	movs	r3, r0
10004628:	0032      	movs	r2, r6
1000462a:	2000      	movs	r0, #0
1000462c:	f7ff fe2a 	bl	10004284 <usbd_edpt_xfer>
10004630:	e7d4      	b.n	100045dc <tud_cdc_n_write+0x28>
10004632:	2000      	movs	r0, #0
10004634:	f7ff fe00 	bl	10004238 <usbd_edpt_release>
10004638:	e7d0      	b.n	100045dc <tud_cdc_n_write+0x28>
1000463a:	46c0      	nop			; (mov r8, r8)
1000463c:	20002e24 	.word	0x20002e24

10004640 <tud_cdc_n_write_flush>:
10004640:	b5f8      	push	{r3, r4, r5, r6, r7, lr}
10004642:	0005      	movs	r5, r0
10004644:	f7fe ff46 	bl	100034d4 <tud_mounted>
10004648:	2800      	cmp	r0, #0
1000464a:	d101      	bne.n	10004650 <tud_cdc_n_write_flush+0x10>
1000464c:	2000      	movs	r0, #0
1000464e:	bdf8      	pop	{r3, r4, r5, r6, r7, pc}
10004650:	f7fe ff48 	bl	100034e4 <tud_suspended>
10004654:	2800      	cmp	r0, #0
10004656:	d1f9      	bne.n	1000464c <tud_cdc_n_write_flush+0xc>
10004658:	24ac      	movs	r4, #172	; 0xac
1000465a:	0064      	lsls	r4, r4, #1
1000465c:	4365      	muls	r5, r4
1000465e:	002e      	movs	r6, r5
10004660:	4f13      	ldr	r7, [pc, #76]	; (100046b0 <tud_cdc_n_write_flush+0x70>)
10004662:	362c      	adds	r6, #44	; 0x2c
10004664:	19be      	adds	r6, r7, r6
10004666:	0030      	movs	r0, r6
10004668:	f000 fe68 	bl	1000533c <tu_fifo_count>
1000466c:	2800      	cmp	r0, #0
1000466e:	d0ed      	beq.n	1000464c <tud_cdc_n_write_flush+0xc>
10004670:	197c      	adds	r4, r7, r5
10004672:	78a1      	ldrb	r1, [r4, #2]
10004674:	2000      	movs	r0, #0
10004676:	f7ff fdb1 	bl	100041dc <usbd_edpt_claim>
1000467a:	2800      	cmp	r0, #0
1000467c:	d0e6      	beq.n	1000464c <tud_cdc_n_write_flush+0xc>
1000467e:	3519      	adds	r5, #25
10004680:	35ff      	adds	r5, #255	; 0xff
10004682:	197d      	adds	r5, r7, r5
10004684:	0029      	movs	r1, r5
10004686:	0030      	movs	r0, r6
10004688:	2240      	movs	r2, #64	; 0x40
1000468a:	f000 fecf 	bl	1000542c <tu_fifo_read_n>
1000468e:	78a1      	ldrb	r1, [r4, #2]
10004690:	1e06      	subs	r6, r0, #0
10004692:	d008      	beq.n	100046a6 <tud_cdc_n_write_flush+0x66>
10004694:	0003      	movs	r3, r0
10004696:	002a      	movs	r2, r5
10004698:	2000      	movs	r0, #0
1000469a:	f7ff fdf3 	bl	10004284 <usbd_edpt_xfer>
1000469e:	2800      	cmp	r0, #0
100046a0:	d0d4      	beq.n	1000464c <tud_cdc_n_write_flush+0xc>
100046a2:	0030      	movs	r0, r6
100046a4:	e7d3      	b.n	1000464e <tud_cdc_n_write_flush+0xe>
100046a6:	2000      	movs	r0, #0
100046a8:	f7ff fdc6 	bl	10004238 <usbd_edpt_release>
100046ac:	e7ce      	b.n	1000464c <tud_cdc_n_write_flush+0xc>
100046ae:	46c0      	nop			; (mov r8, r8)
100046b0:	20002e24 	.word	0x20002e24

100046b4 <cdcd_init>:
100046b4:	22ac      	movs	r2, #172	; 0xac
100046b6:	b570      	push	{r4, r5, r6, lr}
100046b8:	4c18      	ldr	r4, [pc, #96]	; (1000471c <cdcd_init+0x68>)
100046ba:	b082      	sub	sp, #8
100046bc:	0052      	lsls	r2, r2, #1
100046be:	2100      	movs	r1, #0
100046c0:	0020      	movs	r0, r4
100046c2:	f7fe f879 	bl	100027b8 <__wrap_memset>
100046c6:	23ff      	movs	r3, #255	; 0xff
100046c8:	7163      	strb	r3, [r4, #5]
100046ca:	4b15      	ldr	r3, [pc, #84]	; (10004720 <cdcd_init+0x6c>)
100046cc:	2500      	movs	r5, #0
100046ce:	80e3      	strh	r3, [r4, #6]
100046d0:	2601      	movs	r6, #1
100046d2:	2308      	movs	r3, #8
100046d4:	0021      	movs	r1, r4
100046d6:	0020      	movs	r0, r4
100046d8:	8126      	strh	r6, [r4, #8]
100046da:	7323      	strb	r3, [r4, #12]
100046dc:	3148      	adds	r1, #72	; 0x48
100046de:	9500      	str	r5, [sp, #0]
100046e0:	3b07      	subs	r3, #7
100046e2:	2240      	movs	r2, #64	; 0x40
100046e4:	3010      	adds	r0, #16
100046e6:	f000 fded 	bl	100052c4 <tu_fifo_config>
100046ea:	9600      	str	r6, [sp, #0]
100046ec:	0021      	movs	r1, r4
100046ee:	0020      	movs	r0, r4
100046f0:	0026      	movs	r6, r4
100046f2:	3188      	adds	r1, #136	; 0x88
100046f4:	2301      	movs	r3, #1
100046f6:	2240      	movs	r2, #64	; 0x40
100046f8:	36c8      	adds	r6, #200	; 0xc8
100046fa:	302c      	adds	r0, #44	; 0x2c
100046fc:	f000 fde2 	bl	100052c4 <tu_fifo_config>
10004700:	0030      	movs	r0, r6
10004702:	f7fc fdf5 	bl	100012f0 <mutex_init>
10004706:	62a6      	str	r6, [r4, #40]	; 0x28
10004708:	0026      	movs	r6, r4
1000470a:	36d0      	adds	r6, #208	; 0xd0
1000470c:	6265      	str	r5, [r4, #36]	; 0x24
1000470e:	0030      	movs	r0, r6
10004710:	f7fc fdee 	bl	100012f0 <mutex_init>
10004714:	6426      	str	r6, [r4, #64]	; 0x40
10004716:	6465      	str	r5, [r4, #68]	; 0x44
10004718:	b002      	add	sp, #8
1000471a:	bd70      	pop	{r4, r5, r6, pc}
1000471c:	20002e24 	.word	0x20002e24
10004720:	ffffc200 	.word	0xffffc200

10004724 <cdcd_reset>:
10004724:	b510      	push	{r4, lr}
10004726:	4c09      	ldr	r4, [pc, #36]	; (1000474c <cdcd_reset+0x28>)
10004728:	2205      	movs	r2, #5
1000472a:	2100      	movs	r1, #0
1000472c:	0020      	movs	r0, r4
1000472e:	f7fe f843 	bl	100027b8 <__wrap_memset>
10004732:	0020      	movs	r0, r4
10004734:	342c      	adds	r4, #44	; 0x2c
10004736:	3010      	adds	r0, #16
10004738:	f000 ffb0 	bl	1000569c <tu_fifo_clear>
1000473c:	0020      	movs	r0, r4
1000473e:	f000 ffad 	bl	1000569c <tu_fifo_clear>
10004742:	2101      	movs	r1, #1
10004744:	0020      	movs	r0, r4
10004746:	f000 ffcf 	bl	100056e8 <tu_fifo_set_overwritable>
1000474a:	bd10      	pop	{r4, pc}
1000474c:	20002e24 	.word	0x20002e24

10004750 <cdcd_open>:
10004750:	b5f0      	push	{r4, r5, r6, r7, lr}
10004752:	46c6      	mov	lr, r8
10004754:	b500      	push	{lr}
10004756:	794b      	ldrb	r3, [r1, #5]
10004758:	b082      	sub	sp, #8
1000475a:	0007      	movs	r7, r0
1000475c:	2b02      	cmp	r3, #2
1000475e:	d005      	beq.n	1000476c <cdcd_open+0x1c>
10004760:	2400      	movs	r4, #0
10004762:	0020      	movs	r0, r4
10004764:	b002      	add	sp, #8
10004766:	bc04      	pop	{r2}
10004768:	4690      	mov	r8, r2
1000476a:	bdf0      	pop	{r4, r5, r6, r7, pc}
1000476c:	798b      	ldrb	r3, [r1, #6]
1000476e:	2b02      	cmp	r3, #2
10004770:	d1f6      	bne.n	10004760 <cdcd_open+0x10>
10004772:	4e2f      	ldr	r6, [pc, #188]	; (10004830 <cdcd_open+0xe0>)
10004774:	78b3      	ldrb	r3, [r6, #2]
10004776:	2b00      	cmp	r3, #0
10004778:	d1f2      	bne.n	10004760 <cdcd_open+0x10>
1000477a:	788b      	ldrb	r3, [r1, #2]
1000477c:	2409      	movs	r4, #9
1000477e:	7033      	strb	r3, [r6, #0]
10004780:	780d      	ldrb	r5, [r1, #0]
10004782:	194d      	adds	r5, r1, r5
10004784:	786b      	ldrb	r3, [r5, #1]
10004786:	2b24      	cmp	r3, #36	; 0x24
10004788:	d10b      	bne.n	100047a2 <cdcd_open+0x52>
1000478a:	2a08      	cmp	r2, #8
1000478c:	d802      	bhi.n	10004794 <cdcd_open+0x44>
1000478e:	e00f      	b.n	100047b0 <cdcd_open+0x60>
10004790:	42a2      	cmp	r2, r4
10004792:	d30d      	bcc.n	100047b0 <cdcd_open+0x60>
10004794:	782b      	ldrb	r3, [r5, #0]
10004796:	18ed      	adds	r5, r5, r3
10004798:	18e4      	adds	r4, r4, r3
1000479a:	786b      	ldrb	r3, [r5, #1]
1000479c:	b2a4      	uxth	r4, r4
1000479e:	2b24      	cmp	r3, #36	; 0x24
100047a0:	d0f6      	beq.n	10004790 <cdcd_open+0x40>
100047a2:	2b05      	cmp	r3, #5
100047a4:	d01b      	beq.n	100047de <cdcd_open+0x8e>
100047a6:	2b04      	cmp	r3, #4
100047a8:	d102      	bne.n	100047b0 <cdcd_open+0x60>
100047aa:	796b      	ldrb	r3, [r5, #5]
100047ac:	2b0a      	cmp	r3, #10
100047ae:	d024      	beq.n	100047fa <cdcd_open+0xaa>
100047b0:	0035      	movs	r5, r6
100047b2:	3510      	adds	r5, #16
100047b4:	0028      	movs	r0, r5
100047b6:	f000 fddb 	bl	10005370 <tu_fifo_remaining>
100047ba:	283f      	cmp	r0, #63	; 0x3f
100047bc:	d9d1      	bls.n	10004762 <cdcd_open+0x12>
100047be:	78f1      	ldrb	r1, [r6, #3]
100047c0:	2000      	movs	r0, #0
100047c2:	f7ff fd0b 	bl	100041dc <usbd_edpt_claim>
100047c6:	2800      	cmp	r0, #0
100047c8:	d0cb      	beq.n	10004762 <cdcd_open+0x12>
100047ca:	0028      	movs	r0, r5
100047cc:	f000 fdd0 	bl	10005370 <tu_fifo_remaining>
100047d0:	283f      	cmp	r0, #63	; 0x3f
100047d2:	d825      	bhi.n	10004820 <cdcd_open+0xd0>
100047d4:	78f1      	ldrb	r1, [r6, #3]
100047d6:	2000      	movs	r0, #0
100047d8:	f7ff fd2e 	bl	10004238 <usbd_edpt_release>
100047dc:	e7c1      	b.n	10004762 <cdcd_open+0x12>
100047de:	0029      	movs	r1, r5
100047e0:	0038      	movs	r0, r7
100047e2:	f7ff fce3 	bl	100041ac <usbd_edpt_open>
100047e6:	2800      	cmp	r0, #0
100047e8:	d0ba      	beq.n	10004760 <cdcd_open+0x10>
100047ea:	78ab      	ldrb	r3, [r5, #2]
100047ec:	7073      	strb	r3, [r6, #1]
100047ee:	782b      	ldrb	r3, [r5, #0]
100047f0:	18e4      	adds	r4, r4, r3
100047f2:	18ed      	adds	r5, r5, r3
100047f4:	b2a4      	uxth	r4, r4
100047f6:	786b      	ldrb	r3, [r5, #1]
100047f8:	e7d5      	b.n	100047a6 <cdcd_open+0x56>
100047fa:	782b      	ldrb	r3, [r5, #0]
100047fc:	0029      	movs	r1, r5
100047fe:	4698      	mov	r8, r3
10004800:	1cb3      	adds	r3, r6, #2
10004802:	9301      	str	r3, [sp, #4]
10004804:	1cf3      	adds	r3, r6, #3
10004806:	9300      	str	r3, [sp, #0]
10004808:	4441      	add	r1, r8
1000480a:	2302      	movs	r3, #2
1000480c:	2202      	movs	r2, #2
1000480e:	0038      	movs	r0, r7
10004810:	f7ff fc74 	bl	100040fc <usbd_open_edpt_pair>
10004814:	2800      	cmp	r0, #0
10004816:	d0a3      	beq.n	10004760 <cdcd_open+0x10>
10004818:	340e      	adds	r4, #14
1000481a:	4444      	add	r4, r8
1000481c:	b2a4      	uxth	r4, r4
1000481e:	e7c7      	b.n	100047b0 <cdcd_open+0x60>
10004820:	0032      	movs	r2, r6
10004822:	78f1      	ldrb	r1, [r6, #3]
10004824:	32d8      	adds	r2, #216	; 0xd8
10004826:	2340      	movs	r3, #64	; 0x40
10004828:	2000      	movs	r0, #0
1000482a:	f7ff fd2b 	bl	10004284 <usbd_edpt_xfer>
1000482e:	e798      	b.n	10004762 <cdcd_open+0x12>
10004830:	20002e24 	.word	0x20002e24

10004834 <cdcd_control_xfer_cb>:
10004834:	b5f8      	push	{r3, r4, r5, r6, r7, lr}
10004836:	2360      	movs	r3, #96	; 0x60
10004838:	0014      	movs	r4, r2
1000483a:	7812      	ldrb	r2, [r2, #0]
1000483c:	2700      	movs	r7, #0
1000483e:	4013      	ands	r3, r2
10004840:	2b20      	cmp	r3, #32
10004842:	d001      	beq.n	10004848 <cdcd_control_xfer_cb+0x14>
10004844:	0038      	movs	r0, r7
10004846:	bdf8      	pop	{r3, r4, r5, r6, r7, pc}
10004848:	4a2e      	ldr	r2, [pc, #184]	; (10004904 <cdcd_control_xfer_cb+0xd0>)
1000484a:	7963      	ldrb	r3, [r4, #5]
1000484c:	7926      	ldrb	r6, [r4, #4]
1000484e:	7815      	ldrb	r5, [r2, #0]
10004850:	021b      	lsls	r3, r3, #8
10004852:	4333      	orrs	r3, r6
10004854:	429d      	cmp	r5, r3
10004856:	d1f5      	bne.n	10004844 <cdcd_control_xfer_cb+0x10>
10004858:	7863      	ldrb	r3, [r4, #1]
1000485a:	2b21      	cmp	r3, #33	; 0x21
1000485c:	d043      	beq.n	100048e6 <cdcd_control_xfer_cb+0xb2>
1000485e:	d909      	bls.n	10004874 <cdcd_control_xfer_cb+0x40>
10004860:	2b22      	cmp	r3, #34	; 0x22
10004862:	d024      	beq.n	100048ae <cdcd_control_xfer_cb+0x7a>
10004864:	2b23      	cmp	r3, #35	; 0x23
10004866:	d114      	bne.n	10004892 <cdcd_control_xfer_cb+0x5e>
10004868:	2900      	cmp	r1, #0
1000486a:	d045      	beq.n	100048f8 <cdcd_control_xfer_cb+0xc4>
1000486c:	2902      	cmp	r1, #2
1000486e:	d012      	beq.n	10004896 <cdcd_control_xfer_cb+0x62>
10004870:	2701      	movs	r7, #1
10004872:	e7e7      	b.n	10004844 <cdcd_control_xfer_cb+0x10>
10004874:	2b20      	cmp	r3, #32
10004876:	d10c      	bne.n	10004892 <cdcd_control_xfer_cb+0x5e>
10004878:	2900      	cmp	r1, #0
1000487a:	d036      	beq.n	100048ea <cdcd_control_xfer_cb+0xb6>
1000487c:	2902      	cmp	r1, #2
1000487e:	d1f7      	bne.n	10004870 <cdcd_control_xfer_cb+0x3c>
10004880:	4b21      	ldr	r3, [pc, #132]	; (10004908 <cdcd_control_xfer_cb+0xd4>)
10004882:	2b00      	cmp	r3, #0
10004884:	d0f4      	beq.n	10004870 <cdcd_control_xfer_cb+0x3c>
10004886:	1d91      	adds	r1, r2, #6
10004888:	2000      	movs	r0, #0
1000488a:	e000      	b.n	1000488e <cdcd_control_xfer_cb+0x5a>
1000488c:	bf00      	nop
1000488e:	2701      	movs	r7, #1
10004890:	e7d8      	b.n	10004844 <cdcd_control_xfer_cb+0x10>
10004892:	2700      	movs	r7, #0
10004894:	e7d6      	b.n	10004844 <cdcd_control_xfer_cb+0x10>
10004896:	4b1d      	ldr	r3, [pc, #116]	; (1000490c <cdcd_control_xfer_cb+0xd8>)
10004898:	2b00      	cmp	r3, #0
1000489a:	d0e9      	beq.n	10004870 <cdcd_control_xfer_cb+0x3c>
1000489c:	78e1      	ldrb	r1, [r4, #3]
1000489e:	78a3      	ldrb	r3, [r4, #2]
100048a0:	0209      	lsls	r1, r1, #8
100048a2:	4319      	orrs	r1, r3
100048a4:	2000      	movs	r0, #0
100048a6:	e000      	b.n	100048aa <cdcd_control_xfer_cb+0x76>
100048a8:	bf00      	nop
100048aa:	2701      	movs	r7, #1
100048ac:	e7ca      	b.n	10004844 <cdcd_control_xfer_cb+0x10>
100048ae:	2900      	cmp	r1, #0
100048b0:	d022      	beq.n	100048f8 <cdcd_control_xfer_cb+0xc4>
100048b2:	2902      	cmp	r1, #2
100048b4:	d1dc      	bne.n	10004870 <cdcd_control_xfer_cb+0x3c>
100048b6:	2501      	movs	r5, #1
100048b8:	78a1      	ldrb	r1, [r4, #2]
100048ba:	78e4      	ldrb	r4, [r4, #3]
100048bc:	0224      	lsls	r4, r4, #8
100048be:	430c      	orrs	r4, r1
100048c0:	0029      	movs	r1, r5
100048c2:	7114      	strb	r4, [r2, #4]
100048c4:	322c      	adds	r2, #44	; 0x2c
100048c6:	43a1      	bics	r1, r4
100048c8:	0010      	movs	r0, r2
100048ca:	f000 ff0d 	bl	100056e8 <tu_fifo_set_overwritable>
100048ce:	4b10      	ldr	r3, [pc, #64]	; (10004910 <cdcd_control_xfer_cb+0xdc>)
100048d0:	2b00      	cmp	r3, #0
100048d2:	d0cd      	beq.n	10004870 <cdcd_control_xfer_cb+0x3c>
100048d4:	0029      	movs	r1, r5
100048d6:	0862      	lsrs	r2, r4, #1
100048d8:	402a      	ands	r2, r5
100048da:	4021      	ands	r1, r4
100048dc:	2000      	movs	r0, #0
100048de:	f7fb fdaf 	bl	10000440 <tud_cdc_line_state_cb>
100048e2:	2701      	movs	r7, #1
100048e4:	e7ae      	b.n	10004844 <cdcd_control_xfer_cb+0x10>
100048e6:	2900      	cmp	r1, #0
100048e8:	d1c2      	bne.n	10004870 <cdcd_control_xfer_cb+0x3c>
100048ea:	3206      	adds	r2, #6
100048ec:	2307      	movs	r3, #7
100048ee:	0021      	movs	r1, r4
100048f0:	f7ff fd2a 	bl	10004348 <tud_control_xfer>
100048f4:	2701      	movs	r7, #1
100048f6:	e7a5      	b.n	10004844 <cdcd_control_xfer_cb+0x10>
100048f8:	0021      	movs	r1, r4
100048fa:	f7ff fd0d 	bl	10004318 <tud_control_status>
100048fe:	2701      	movs	r7, #1
10004900:	e7a0      	b.n	10004844 <cdcd_control_xfer_cb+0x10>
10004902:	46c0      	nop			; (mov r8, r8)
10004904:	20002e24 	.word	0x20002e24
	...
10004910:	10000441 	.word	0x10000441

10004914 <cdcd_xfer_cb>:
10004914:	b5f0      	push	{r4, r5, r6, r7, lr}
10004916:	4646      	mov	r6, r8
10004918:	464f      	mov	r7, r9
1000491a:	46d6      	mov	lr, sl
1000491c:	b5c0      	push	{r6, r7, lr}
1000491e:	4d5d      	ldr	r5, [pc, #372]	; (10004a94 <cdcd_xfer_cb+0x180>)
10004920:	4698      	mov	r8, r3
10004922:	78eb      	ldrb	r3, [r5, #3]
10004924:	b082      	sub	sp, #8
10004926:	4681      	mov	r9, r0
10004928:	000e      	movs	r6, r1
1000492a:	428b      	cmp	r3, r1
1000492c:	d100      	bne.n	10004930 <cdcd_xfer_cb+0x1c>
1000492e:	e076      	b.n	10004a1e <cdcd_xfer_cb+0x10a>
10004930:	78ab      	ldrb	r3, [r5, #2]
10004932:	428b      	cmp	r3, r1
10004934:	d02c      	beq.n	10004990 <cdcd_xfer_cb+0x7c>
10004936:	2400      	movs	r4, #0
10004938:	0020      	movs	r0, r4
1000493a:	b002      	add	sp, #8
1000493c:	bc1c      	pop	{r2, r3, r4}
1000493e:	4690      	mov	r8, r2
10004940:	4699      	mov	r9, r3
10004942:	46a2      	mov	sl, r4
10004944:	bdf0      	pop	{r4, r5, r6, r7, pc}
10004946:	4b54      	ldr	r3, [pc, #336]	; (10004a98 <cdcd_xfer_cb+0x184>)
10004948:	2b00      	cmp	r3, #0
1000494a:	d007      	beq.n	1000495c <cdcd_xfer_cb+0x48>
1000494c:	0028      	movs	r0, r5
1000494e:	3010      	adds	r0, #16
10004950:	f000 fd06 	bl	10005360 <tu_fifo_empty>
10004954:	2800      	cmp	r0, #0
10004956:	d101      	bne.n	1000495c <cdcd_xfer_cb+0x48>
10004958:	f7fb fd74 	bl	10000444 <tud_cdc_rx_cb>
1000495c:	002c      	movs	r4, r5
1000495e:	3410      	adds	r4, #16
10004960:	0020      	movs	r0, r4
10004962:	f000 fd05 	bl	10005370 <tu_fifo_remaining>
10004966:	283f      	cmp	r0, #63	; 0x3f
10004968:	d90f      	bls.n	1000498a <cdcd_xfer_cb+0x76>
1000496a:	78e9      	ldrb	r1, [r5, #3]
1000496c:	2000      	movs	r0, #0
1000496e:	f7ff fc35 	bl	100041dc <usbd_edpt_claim>
10004972:	2800      	cmp	r0, #0
10004974:	d009      	beq.n	1000498a <cdcd_xfer_cb+0x76>
10004976:	0020      	movs	r0, r4
10004978:	f000 fcfa 	bl	10005370 <tu_fifo_remaining>
1000497c:	283f      	cmp	r0, #63	; 0x3f
1000497e:	d900      	bls.n	10004982 <cdcd_xfer_cb+0x6e>
10004980:	e07e      	b.n	10004a80 <cdcd_xfer_cb+0x16c>
10004982:	78e9      	ldrb	r1, [r5, #3]
10004984:	2000      	movs	r0, #0
10004986:	f7ff fc57 	bl	10004238 <usbd_edpt_release>
1000498a:	78ab      	ldrb	r3, [r5, #2]
1000498c:	429e      	cmp	r6, r3
1000498e:	d144      	bne.n	10004a1a <cdcd_xfer_cb+0x106>
10004990:	4b42      	ldr	r3, [pc, #264]	; (10004a9c <cdcd_xfer_cb+0x188>)
10004992:	2b00      	cmp	r3, #0
10004994:	d002      	beq.n	1000499c <cdcd_xfer_cb+0x88>
10004996:	2000      	movs	r0, #0
10004998:	e000      	b.n	1000499c <cdcd_xfer_cb+0x88>
1000499a:	bf00      	nop
1000499c:	f7fe fd9a 	bl	100034d4 <tud_mounted>
100049a0:	2800      	cmp	r0, #0
100049a2:	d117      	bne.n	100049d4 <cdcd_xfer_cb+0xc0>
100049a4:	0028      	movs	r0, r5
100049a6:	302c      	adds	r0, #44	; 0x2c
100049a8:	f000 fcc8 	bl	1000533c <tu_fifo_count>
100049ac:	2800      	cmp	r0, #0
100049ae:	d134      	bne.n	10004a1a <cdcd_xfer_cb+0x106>
100049b0:	4643      	mov	r3, r8
100049b2:	2b00      	cmp	r3, #0
100049b4:	d031      	beq.n	10004a1a <cdcd_xfer_cb+0x106>
100049b6:	069b      	lsls	r3, r3, #26
100049b8:	d12f      	bne.n	10004a1a <cdcd_xfer_cb+0x106>
100049ba:	78a9      	ldrb	r1, [r5, #2]
100049bc:	4648      	mov	r0, r9
100049be:	f7ff fc0d 	bl	100041dc <usbd_edpt_claim>
100049c2:	1e04      	subs	r4, r0, #0
100049c4:	d029      	beq.n	10004a1a <cdcd_xfer_cb+0x106>
100049c6:	78a9      	ldrb	r1, [r5, #2]
100049c8:	2300      	movs	r3, #0
100049ca:	2200      	movs	r2, #0
100049cc:	4648      	mov	r0, r9
100049ce:	f7ff fc59 	bl	10004284 <usbd_edpt_xfer>
100049d2:	e7b1      	b.n	10004938 <cdcd_xfer_cb+0x24>
100049d4:	f7fe fd86 	bl	100034e4 <tud_suspended>
100049d8:	2800      	cmp	r0, #0
100049da:	d1e3      	bne.n	100049a4 <cdcd_xfer_cb+0x90>
100049dc:	002c      	movs	r4, r5
100049de:	342c      	adds	r4, #44	; 0x2c
100049e0:	0020      	movs	r0, r4
100049e2:	f000 fcab 	bl	1000533c <tu_fifo_count>
100049e6:	2800      	cmp	r0, #0
100049e8:	d0dc      	beq.n	100049a4 <cdcd_xfer_cb+0x90>
100049ea:	78a9      	ldrb	r1, [r5, #2]
100049ec:	2000      	movs	r0, #0
100049ee:	f7ff fbf5 	bl	100041dc <usbd_edpt_claim>
100049f2:	2800      	cmp	r0, #0
100049f4:	d0d6      	beq.n	100049a4 <cdcd_xfer_cb+0x90>
100049f6:	002e      	movs	r6, r5
100049f8:	3619      	adds	r6, #25
100049fa:	36ff      	adds	r6, #255	; 0xff
100049fc:	0031      	movs	r1, r6
100049fe:	2240      	movs	r2, #64	; 0x40
10004a00:	0020      	movs	r0, r4
10004a02:	f000 fd13 	bl	1000542c <tu_fifo_read_n>
10004a06:	78a9      	ldrb	r1, [r5, #2]
10004a08:	2800      	cmp	r0, #0
10004a0a:	d035      	beq.n	10004a78 <cdcd_xfer_cb+0x164>
10004a0c:	0003      	movs	r3, r0
10004a0e:	0032      	movs	r2, r6
10004a10:	2000      	movs	r0, #0
10004a12:	f7ff fc37 	bl	10004284 <usbd_edpt_xfer>
10004a16:	2800      	cmp	r0, #0
10004a18:	d0c4      	beq.n	100049a4 <cdcd_xfer_cb+0x90>
10004a1a:	2401      	movs	r4, #1
10004a1c:	e78c      	b.n	10004938 <cdcd_xfer_cb+0x24>
10004a1e:	4643      	mov	r3, r8
10004a20:	466a      	mov	r2, sp
10004a22:	80d3      	strh	r3, [r2, #6]
10004a24:	2310      	movs	r3, #16
10004a26:	002c      	movs	r4, r5
10004a28:	469a      	mov	sl, r3
10004a2a:	34d8      	adds	r4, #216	; 0xd8
10004a2c:	44aa      	add	sl, r5
10004a2e:	88d2      	ldrh	r2, [r2, #6]
10004a30:	0021      	movs	r1, r4
10004a32:	4650      	mov	r0, sl
10004a34:	f000 fdbc 	bl	100055b0 <tu_fifo_write_n>
10004a38:	4b19      	ldr	r3, [pc, #100]	; (10004aa0 <cdcd_xfer_cb+0x18c>)
10004a3a:	2b00      	cmp	r3, #0
10004a3c:	d083      	beq.n	10004946 <cdcd_xfer_cb+0x32>
10004a3e:	796b      	ldrb	r3, [r5, #5]
10004a40:	2bff      	cmp	r3, #255	; 0xff
10004a42:	d100      	bne.n	10004a46 <cdcd_xfer_cb+0x132>
10004a44:	e77f      	b.n	10004946 <cdcd_xfer_cb+0x32>
10004a46:	4642      	mov	r2, r8
10004a48:	2a00      	cmp	r2, #0
10004a4a:	d100      	bne.n	10004a4e <cdcd_xfer_cb+0x13a>
10004a4c:	e77b      	b.n	10004946 <cdcd_xfer_cb+0x32>
10004a4e:	4647      	mov	r7, r8
10004a50:	37d8      	adds	r7, #216	; 0xd8
10004a52:	19ef      	adds	r7, r5, r7
10004a54:	e004      	b.n	10004a60 <cdcd_xfer_cb+0x14c>
10004a56:	3401      	adds	r4, #1
10004a58:	42bc      	cmp	r4, r7
10004a5a:	d100      	bne.n	10004a5e <cdcd_xfer_cb+0x14a>
10004a5c:	e773      	b.n	10004946 <cdcd_xfer_cb+0x32>
10004a5e:	796b      	ldrb	r3, [r5, #5]
10004a60:	7822      	ldrb	r2, [r4, #0]
10004a62:	429a      	cmp	r2, r3
10004a64:	d1f7      	bne.n	10004a56 <cdcd_xfer_cb+0x142>
10004a66:	4650      	mov	r0, sl
10004a68:	f000 fc7a 	bl	10005360 <tu_fifo_empty>
10004a6c:	2800      	cmp	r0, #0
10004a6e:	d1f2      	bne.n	10004a56 <cdcd_xfer_cb+0x142>
10004a70:	7969      	ldrb	r1, [r5, #5]
10004a72:	e000      	b.n	10004a76 <cdcd_xfer_cb+0x162>
10004a74:	bf00      	nop
10004a76:	e7ee      	b.n	10004a56 <cdcd_xfer_cb+0x142>
10004a78:	2000      	movs	r0, #0
10004a7a:	f7ff fbdd 	bl	10004238 <usbd_edpt_release>
10004a7e:	e791      	b.n	100049a4 <cdcd_xfer_cb+0x90>
10004a80:	002a      	movs	r2, r5
10004a82:	2340      	movs	r3, #64	; 0x40
10004a84:	32d8      	adds	r2, #216	; 0xd8
10004a86:	78e9      	ldrb	r1, [r5, #3]
10004a88:	2000      	movs	r0, #0
10004a8a:	f7ff fbfb 	bl	10004284 <usbd_edpt_xfer>
10004a8e:	78ab      	ldrb	r3, [r5, #2]
10004a90:	e77c      	b.n	1000498c <cdcd_xfer_cb+0x78>
10004a92:	46c0      	nop			; (mov r8, r8)
10004a94:	20002e24 	.word	0x20002e24
10004a98:	10000445 	.word	0x10000445
	...

10004aa4 <proc_read10_cmd.constprop.2>:
10004aa4:	b5f0      	push	{r4, r5, r6, r7, lr}
10004aa6:	464e      	mov	r6, r9
10004aa8:	46de      	mov	lr, fp
10004aaa:	4657      	mov	r7, sl
10004aac:	4645      	mov	r5, r8
10004aae:	b5e0      	push	{r5, r6, r7, lr}
10004ab0:	4c32      	ldr	r4, [pc, #200]	; (10004b7c <proc_read10_cmd.constprop.2+0xd8>)
10004ab2:	b083      	sub	sp, #12
10004ab4:	8ae1      	ldrh	r1, [r4, #22]
10004ab6:	0006      	movs	r6, r0
10004ab8:	ba49      	rev16	r1, r1
10004aba:	b289      	uxth	r1, r1
10004abc:	2900      	cmp	r1, #0
10004abe:	d006      	beq.n	10004ace <proc_read10_cmd.constprop.2+0x2a>
10004ac0:	68a7      	ldr	r7, [r4, #8]
10004ac2:	0038      	movs	r0, r7
10004ac4:	f7fd fb92 	bl	100021ec <__wrap___aeabi_uidiv>
10004ac8:	b283      	uxth	r3, r0
10004aca:	2b00      	cmp	r3, #0
10004acc:	d106      	bne.n	10004adc <proc_read10_cmd.constprop.2+0x38>
10004ace:	b003      	add	sp, #12
10004ad0:	bc3c      	pop	{r2, r3, r4, r5}
10004ad2:	4690      	mov	r8, r2
10004ad4:	4699      	mov	r9, r3
10004ad6:	46a2      	mov	sl, r4
10004ad8:	46ab      	mov	fp, r5
10004ada:	bdf0      	pop	{r4, r5, r6, r7, pc}
10004adc:	6923      	ldr	r3, [r4, #16]
10004ade:	7d21      	ldrb	r1, [r4, #20]
10004ae0:	0a1b      	lsrs	r3, r3, #8
10004ae2:	0609      	lsls	r1, r1, #24
10004ae4:	4319      	orrs	r1, r3
10004ae6:	ba0b      	rev	r3, r1
10004ae8:	4698      	mov	r8, r3
10004aea:	6ba3      	ldr	r3, [r4, #56]	; 0x38
10004aec:	0400      	lsls	r0, r0, #16
10004aee:	4699      	mov	r9, r3
10004af0:	0c05      	lsrs	r5, r0, #16
10004af2:	4b23      	ldr	r3, [pc, #140]	; (10004b80 <proc_read10_cmd.constprop.2+0xdc>)
10004af4:	0029      	movs	r1, r5
10004af6:	4648      	mov	r0, r9
10004af8:	469a      	mov	sl, r3
10004afa:	f7fd fb77 	bl	100021ec <__wrap___aeabi_uidiv>
10004afe:	4648      	mov	r0, r9
10004b00:	468b      	mov	fp, r1
10004b02:	0029      	movs	r1, r5
10004b04:	f7fd fb72 	bl	100021ec <__wrap___aeabi_uidiv>
10004b08:	464b      	mov	r3, r9
10004b0a:	0001      	movs	r1, r0
10004b0c:	1aff      	subs	r7, r7, r3
10004b0e:	2380      	movs	r3, #128	; 0x80
10004b10:	4441      	add	r1, r8
10004b12:	7b60      	ldrb	r0, [r4, #13]
10004b14:	009b      	lsls	r3, r3, #2
10004b16:	429f      	cmp	r7, r3
10004b18:	d80f      	bhi.n	10004b3a <proc_read10_cmd.constprop.2+0x96>
10004b1a:	9700      	str	r7, [sp, #0]
10004b1c:	4653      	mov	r3, sl
10004b1e:	465a      	mov	r2, fp
10004b20:	f7fb fce2 	bl	100004e8 <tud_msc_read10_cb>
10004b24:	2800      	cmp	r0, #0
10004b26:	db13      	blt.n	10004b50 <proc_read10_cmd.constprop.2+0xac>
10004b28:	d009      	beq.n	10004b3e <proc_read10_cmd.constprop.2+0x9a>
10004b2a:	222e      	movs	r2, #46	; 0x2e
10004b2c:	b283      	uxth	r3, r0
10004b2e:	5ca1      	ldrb	r1, [r4, r2]
10004b30:	0030      	movs	r0, r6
10004b32:	4652      	mov	r2, sl
10004b34:	f7ff fba6 	bl	10004284 <usbd_edpt_xfer>
10004b38:	e7c9      	b.n	10004ace <proc_read10_cmd.constprop.2+0x2a>
10004b3a:	001f      	movs	r7, r3
10004b3c:	e7ed      	b.n	10004b1a <proc_read10_cmd.constprop.2+0x76>
10004b3e:	232e      	movs	r3, #46	; 0x2e
10004b40:	2200      	movs	r2, #0
10004b42:	5ce1      	ldrb	r1, [r4, r3]
10004b44:	9000      	str	r0, [sp, #0]
10004b46:	2300      	movs	r3, #0
10004b48:	0030      	movs	r0, r6
10004b4a:	f7ff faa3 	bl	10004094 <dcd_event_xfer_complete>
10004b4e:	e7be      	b.n	10004ace <proc_read10_cmd.constprop.2+0x2a>
10004b50:	6ba2      	ldr	r2, [r4, #56]	; 0x38
10004b52:	68a3      	ldr	r3, [r4, #8]
10004b54:	0030      	movs	r0, r6
10004b56:	1a9b      	subs	r3, r3, r2
10004b58:	62a3      	str	r3, [r4, #40]	; 0x28
10004b5a:	2201      	movs	r2, #1
10004b5c:	232c      	movs	r3, #44	; 0x2c
10004b5e:	54e2      	strb	r2, [r4, r3]
10004b60:	3204      	adds	r2, #4
10004b62:	3310      	adds	r3, #16
10004b64:	54e2      	strb	r2, [r4, r3]
10004b66:	321b      	adds	r2, #27
10004b68:	3301      	adds	r3, #1
10004b6a:	54e2      	strb	r2, [r4, r3]
10004b6c:	2200      	movs	r2, #0
10004b6e:	3301      	adds	r3, #1
10004b70:	54e2      	strb	r2, [r4, r3]
10004b72:	3b10      	subs	r3, #16
10004b74:	5ce1      	ldrb	r1, [r4, r3]
10004b76:	f7ff fba9 	bl	100042cc <usbd_edpt_stall>
10004b7a:	e7a8      	b.n	10004ace <proc_read10_cmd.constprop.2+0x2a>
10004b7c:	200031d0 	.word	0x200031d0
10004b80:	20002fd0 	.word	0x20002fd0

10004b84 <tud_msc_set_sense>:
10004b84:	b510      	push	{r4, lr}
10004b86:	243c      	movs	r4, #60	; 0x3c
10004b88:	4803      	ldr	r0, [pc, #12]	; (10004b98 <tud_msc_set_sense+0x14>)
10004b8a:	5501      	strb	r1, [r0, r4]
10004b8c:	213d      	movs	r1, #61	; 0x3d
10004b8e:	5442      	strb	r2, [r0, r1]
10004b90:	223e      	movs	r2, #62	; 0x3e
10004b92:	5483      	strb	r3, [r0, r2]
10004b94:	2001      	movs	r0, #1
10004b96:	bd10      	pop	{r4, pc}
10004b98:	200031d0 	.word	0x200031d0

10004b9c <mscd_init>:
10004b9c:	b510      	push	{r4, lr}
10004b9e:	2240      	movs	r2, #64	; 0x40
10004ba0:	2100      	movs	r1, #0
10004ba2:	4802      	ldr	r0, [pc, #8]	; (10004bac <mscd_init+0x10>)
10004ba4:	f7fd fe08 	bl	100027b8 <__wrap_memset>
10004ba8:	bd10      	pop	{r4, pc}
10004baa:	46c0      	nop			; (mov r8, r8)
10004bac:	200031d0 	.word	0x200031d0

10004bb0 <mscd_reset>:
10004bb0:	b510      	push	{r4, lr}
10004bb2:	2240      	movs	r2, #64	; 0x40
10004bb4:	2100      	movs	r1, #0
10004bb6:	4802      	ldr	r0, [pc, #8]	; (10004bc0 <mscd_reset+0x10>)
10004bb8:	f7fd fdfe 	bl	100027b8 <__wrap_memset>
10004bbc:	bd10      	pop	{r4, pc}
10004bbe:	46c0      	nop			; (mov r8, r8)
10004bc0:	200031d0 	.word	0x200031d0

10004bc4 <mscd_open>:
10004bc4:	b530      	push	{r4, r5, lr}
10004bc6:	794b      	ldrb	r3, [r1, #5]
10004bc8:	b083      	sub	sp, #12
10004bca:	0004      	movs	r4, r0
10004bcc:	2b08      	cmp	r3, #8
10004bce:	d002      	beq.n	10004bd6 <mscd_open+0x12>
10004bd0:	2000      	movs	r0, #0
10004bd2:	b003      	add	sp, #12
10004bd4:	bd30      	pop	{r4, r5, pc}
10004bd6:	798b      	ldrb	r3, [r1, #6]
10004bd8:	2b06      	cmp	r3, #6
10004bda:	d1f9      	bne.n	10004bd0 <mscd_open+0xc>
10004bdc:	79cb      	ldrb	r3, [r1, #7]
10004bde:	2b50      	cmp	r3, #80	; 0x50
10004be0:	d1f6      	bne.n	10004bd0 <mscd_open+0xc>
10004be2:	2a16      	cmp	r2, #22
10004be4:	d9f4      	bls.n	10004bd0 <mscd_open+0xc>
10004be6:	788a      	ldrb	r2, [r1, #2]
10004be8:	4d0c      	ldr	r5, [pc, #48]	; (10004c1c <mscd_open+0x58>)
10004bea:	3b23      	subs	r3, #35	; 0x23
10004bec:	54ea      	strb	r2, [r5, r3]
10004bee:	780b      	ldrb	r3, [r1, #0]
10004bf0:	2202      	movs	r2, #2
10004bf2:	18c9      	adds	r1, r1, r3
10004bf4:	002b      	movs	r3, r5
10004bf6:	332e      	adds	r3, #46	; 0x2e
10004bf8:	9301      	str	r3, [sp, #4]
10004bfa:	002b      	movs	r3, r5
10004bfc:	332f      	adds	r3, #47	; 0x2f
10004bfe:	9300      	str	r3, [sp, #0]
10004c00:	2302      	movs	r3, #2
10004c02:	f7ff fa7b 	bl	100040fc <usbd_open_edpt_pair>
10004c06:	2800      	cmp	r0, #0
10004c08:	d0e2      	beq.n	10004bd0 <mscd_open+0xc>
10004c0a:	232f      	movs	r3, #47	; 0x2f
10004c0c:	002a      	movs	r2, r5
10004c0e:	5ce9      	ldrb	r1, [r5, r3]
10004c10:	0020      	movs	r0, r4
10004c12:	3b10      	subs	r3, #16
10004c14:	f7ff fb36 	bl	10004284 <usbd_edpt_xfer>
10004c18:	2017      	movs	r0, #23
10004c1a:	e7da      	b.n	10004bd2 <mscd_open+0xe>
10004c1c:	200031d0 	.word	0x200031d0

10004c20 <mscd_control_xfer_cb>:
10004c20:	b570      	push	{r4, r5, r6, lr}
10004c22:	0006      	movs	r6, r0
10004c24:	b082      	sub	sp, #8
10004c26:	0015      	movs	r5, r2
10004c28:	2401      	movs	r4, #1
10004c2a:	2900      	cmp	r1, #0
10004c2c:	d105      	bne.n	10004c3a <mscd_control_xfer_cb+0x1a>
10004c2e:	2360      	movs	r3, #96	; 0x60
10004c30:	7812      	ldrb	r2, [r2, #0]
10004c32:	2400      	movs	r4, #0
10004c34:	4013      	ands	r3, r2
10004c36:	2b20      	cmp	r3, #32
10004c38:	d002      	beq.n	10004c40 <mscd_control_xfer_cb+0x20>
10004c3a:	0020      	movs	r0, r4
10004c3c:	b002      	add	sp, #8
10004c3e:	bd70      	pop	{r4, r5, r6, pc}
10004c40:	786b      	ldrb	r3, [r5, #1]
10004c42:	2bfe      	cmp	r3, #254	; 0xfe
10004c44:	d006      	beq.n	10004c54 <mscd_control_xfer_cb+0x34>
10004c46:	2bff      	cmp	r3, #255	; 0xff
10004c48:	d1f7      	bne.n	10004c3a <mscd_control_xfer_cb+0x1a>
10004c4a:	0029      	movs	r1, r5
10004c4c:	f7ff fb64 	bl	10004318 <tud_control_status>
10004c50:	3401      	adds	r4, #1
10004c52:	e7f2      	b.n	10004c3a <mscd_control_xfer_cb+0x1a>
10004c54:	2301      	movs	r3, #1
10004c56:	466a      	mov	r2, sp
10004c58:	71d3      	strb	r3, [r2, #7]
10004c5a:	4b0b      	ldr	r3, [pc, #44]	; (10004c88 <mscd_control_xfer_cb+0x68>)
10004c5c:	2b00      	cmp	r3, #0
10004c5e:	d010      	beq.n	10004c82 <mscd_control_xfer_cb+0x62>
10004c60:	e000      	b.n	10004c64 <mscd_control_xfer_cb+0x44>
10004c62:	bf00      	nop
10004c64:	2800      	cmp	r0, #0
10004c66:	d0e8      	beq.n	10004c3a <mscd_control_xfer_cb+0x1a>
10004c68:	3801      	subs	r0, #1
10004c6a:	b2c0      	uxtb	r0, r0
10004c6c:	466b      	mov	r3, sp
10004c6e:	466a      	mov	r2, sp
10004c70:	71d8      	strb	r0, [r3, #7]
10004c72:	3207      	adds	r2, #7
10004c74:	2301      	movs	r3, #1
10004c76:	0029      	movs	r1, r5
10004c78:	0030      	movs	r0, r6
10004c7a:	f7ff fb65 	bl	10004348 <tud_control_xfer>
10004c7e:	2401      	movs	r4, #1
10004c80:	e7db      	b.n	10004c3a <mscd_control_xfer_cb+0x1a>
10004c82:	2000      	movs	r0, #0
10004c84:	e7f2      	b.n	10004c6c <mscd_control_xfer_cb+0x4c>
10004c86:	46c0      	nop			; (mov r8, r8)
10004c88:	00000000 	.word	0x00000000

10004c8c <mscd_xfer_cb>:
10004c8c:	b5f0      	push	{r4, r5, r6, r7, lr}
10004c8e:	4645      	mov	r5, r8
10004c90:	4657      	mov	r7, sl
10004c92:	464e      	mov	r6, r9
10004c94:	46de      	mov	lr, fp
10004c96:	b5e0      	push	{r5, r6, r7, lr}
10004c98:	2630      	movs	r6, #48	; 0x30
10004c9a:	4cc3      	ldr	r4, [pc, #780]	; (10004fa8 <mscd_xfer_cb+0x31c>)
10004c9c:	b091      	sub	sp, #68	; 0x44
10004c9e:	5da5      	ldrb	r5, [r4, r6]
10004ca0:	4680      	mov	r8, r0
10004ca2:	001f      	movs	r7, r3
10004ca4:	2d01      	cmp	r5, #1
10004ca6:	d038      	beq.n	10004d1a <mscd_xfer_cb+0x8e>
10004ca8:	2d00      	cmp	r5, #0
10004caa:	d02c      	beq.n	10004d06 <mscd_xfer_cb+0x7a>
10004cac:	2d03      	cmp	r5, #3
10004cae:	d127      	bne.n	10004d00 <mscd_xfer_cb+0x74>
10004cb0:	232e      	movs	r3, #46	; 0x2e
10004cb2:	5ce3      	ldrb	r3, [r4, r3]
10004cb4:	428b      	cmp	r3, r1
10004cb6:	d007      	beq.n	10004cc8 <mscd_xfer_cb+0x3c>
10004cb8:	2001      	movs	r0, #1
10004cba:	b011      	add	sp, #68	; 0x44
10004cbc:	bc3c      	pop	{r2, r3, r4, r5}
10004cbe:	4690      	mov	r8, r2
10004cc0:	4699      	mov	r9, r3
10004cc2:	46a2      	mov	sl, r4
10004cc4:	46ab      	mov	fp, r5
10004cc6:	bdf0      	pop	{r4, r5, r6, r7, pc}
10004cc8:	2f0d      	cmp	r7, #13
10004cca:	d1f5      	bne.n	10004cb8 <mscd_xfer_cb+0x2c>
10004ccc:	7be3      	ldrb	r3, [r4, #15]
10004cce:	2b28      	cmp	r3, #40	; 0x28
10004cd0:	d100      	bne.n	10004cd4 <mscd_xfer_cb+0x48>
10004cd2:	e23f      	b.n	10005154 <mscd_xfer_cb+0x4c8>
10004cd4:	2b2a      	cmp	r3, #42	; 0x2a
10004cd6:	d000      	beq.n	10004cda <mscd_xfer_cb+0x4e>
10004cd8:	e232      	b.n	10005140 <mscd_xfer_cb+0x4b4>
10004cda:	4bb4      	ldr	r3, [pc, #720]	; (10004fac <mscd_xfer_cb+0x320>)
10004cdc:	2b00      	cmp	r3, #0
10004cde:	d002      	beq.n	10004ce6 <mscd_xfer_cb+0x5a>
10004ce0:	7b60      	ldrb	r0, [r4, #13]
10004ce2:	e000      	b.n	10004ce6 <mscd_xfer_cb+0x5a>
10004ce4:	bf00      	nop
10004ce6:	2300      	movs	r3, #0
10004ce8:	2530      	movs	r5, #48	; 0x30
10004cea:	5563      	strb	r3, [r4, r5]
10004cec:	332f      	adds	r3, #47	; 0x2f
10004cee:	5ce1      	ldrb	r1, [r4, r3]
10004cf0:	0022      	movs	r2, r4
10004cf2:	3b10      	subs	r3, #16
10004cf4:	4640      	mov	r0, r8
10004cf6:	f7ff fac5 	bl	10004284 <usbd_edpt_xfer>
10004cfa:	2800      	cmp	r0, #0
10004cfc:	d00b      	beq.n	10004d16 <mscd_xfer_cb+0x8a>
10004cfe:	5d65      	ldrb	r5, [r4, r5]
10004d00:	2d02      	cmp	r5, #2
10004d02:	d1d9      	bne.n	10004cb8 <mscd_xfer_cb+0x2c>
10004d04:	e028      	b.n	10004d58 <mscd_xfer_cb+0xcc>
10004d06:	232f      	movs	r3, #47	; 0x2f
10004d08:	5ce0      	ldrb	r0, [r4, r3]
10004d0a:	4288      	cmp	r0, r1
10004d0c:	d1d4      	bne.n	10004cb8 <mscd_xfer_cb+0x2c>
10004d0e:	2a00      	cmp	r2, #0
10004d10:	d101      	bne.n	10004d16 <mscd_xfer_cb+0x8a>
10004d12:	2f1f      	cmp	r7, #31
10004d14:	d045      	beq.n	10004da2 <mscd_xfer_cb+0x116>
10004d16:	2000      	movs	r0, #0
10004d18:	e7cf      	b.n	10004cba <mscd_xfer_cb+0x2e>
10004d1a:	7b23      	ldrb	r3, [r4, #12]
10004d1c:	09db      	lsrs	r3, r3, #7
10004d1e:	4699      	mov	r9, r3
10004d20:	d110      	bne.n	10004d44 <mscd_xfer_cb+0xb8>
10004d22:	7be3      	ldrb	r3, [r4, #15]
10004d24:	2b2a      	cmp	r3, #42	; 0x2a
10004d26:	d100      	bne.n	10004d2a <mscd_xfer_cb+0x9e>
10004d28:	e177      	b.n	1000501a <mscd_xfer_cb+0x38e>
10004d2a:	0021      	movs	r1, r4
10004d2c:	8ea3      	ldrh	r3, [r4, #52]	; 0x34
10004d2e:	310f      	adds	r1, #15
10004d30:	7b60      	ldrb	r0, [r4, #13]
10004d32:	4a9f      	ldr	r2, [pc, #636]	; (10004fb0 <mscd_xfer_cb+0x324>)
10004d34:	f7fb fbf4 	bl	10000520 <tud_msc_scsi_cb>
10004d38:	232c      	movs	r3, #44	; 0x2c
10004d3a:	2800      	cmp	r0, #0
10004d3c:	da00      	bge.n	10004d40 <mscd_xfer_cb+0xb4>
10004d3e:	e1b5      	b.n	100050ac <mscd_xfer_cb+0x420>
10004d40:	464a      	mov	r2, r9
10004d42:	54e2      	strb	r2, [r4, r3]
10004d44:	6ba3      	ldr	r3, [r4, #56]	; 0x38
10004d46:	469c      	mov	ip, r3
10004d48:	6b63      	ldr	r3, [r4, #52]	; 0x34
10004d4a:	4467      	add	r7, ip
10004d4c:	63a7      	str	r7, [r4, #56]	; 0x38
10004d4e:	429f      	cmp	r7, r3
10004d50:	d31a      	bcc.n	10004d88 <mscd_xfer_cb+0xfc>
10004d52:	2202      	movs	r2, #2
10004d54:	2330      	movs	r3, #48	; 0x30
10004d56:	54e2      	strb	r2, [r4, r3]
10004d58:	252e      	movs	r5, #46	; 0x2e
10004d5a:	4640      	mov	r0, r8
10004d5c:	5d61      	ldrb	r1, [r4, r5]
10004d5e:	f7ff facd 	bl	100042fc <usbd_edpt_stalled>
10004d62:	2800      	cmp	r0, #0
10004d64:	d107      	bne.n	10004d76 <mscd_xfer_cb+0xea>
10004d66:	232f      	movs	r3, #47	; 0x2f
10004d68:	4640      	mov	r0, r8
10004d6a:	5ce1      	ldrb	r1, [r4, r3]
10004d6c:	f7ff fac6 	bl	100042fc <usbd_edpt_stalled>
10004d70:	2800      	cmp	r0, #0
10004d72:	d100      	bne.n	10004d76 <mscd_xfer_cb+0xea>
10004d74:	e18f      	b.n	10005096 <mscd_xfer_cb+0x40a>
10004d76:	232f      	movs	r3, #47	; 0x2f
10004d78:	5ce1      	ldrb	r1, [r4, r3]
10004d7a:	2300      	movs	r3, #0
10004d7c:	2200      	movs	r2, #0
10004d7e:	9300      	str	r3, [sp, #0]
10004d80:	4640      	mov	r0, r8
10004d82:	f7ff f987 	bl	10004094 <dcd_event_xfer_complete>
10004d86:	e797      	b.n	10004cb8 <mscd_xfer_cb+0x2c>
10004d88:	7be3      	ldrb	r3, [r4, #15]
10004d8a:	2b28      	cmp	r3, #40	; 0x28
10004d8c:	d100      	bne.n	10004d90 <mscd_xfer_cb+0x104>
10004d8e:	e198      	b.n	100050c2 <mscd_xfer_cb+0x436>
10004d90:	2b2a      	cmp	r3, #42	; 0x2a
10004d92:	d100      	bne.n	10004d96 <mscd_xfer_cb+0x10a>
10004d94:	e19b      	b.n	100050ce <mscd_xfer_cb+0x442>
10004d96:	2330      	movs	r3, #48	; 0x30
10004d98:	5ce5      	ldrb	r5, [r4, r3]
10004d9a:	2d02      	cmp	r5, #2
10004d9c:	d000      	beq.n	10004da0 <mscd_xfer_cb+0x114>
10004d9e:	e78b      	b.n	10004cb8 <mscd_xfer_cb+0x2c>
10004da0:	e7da      	b.n	10004d58 <mscd_xfer_cb+0xcc>
10004da2:	4b84      	ldr	r3, [pc, #528]	; (10004fb4 <mscd_xfer_cb+0x328>)
10004da4:	6822      	ldr	r2, [r4, #0]
10004da6:	429a      	cmp	r2, r3
10004da8:	d1b5      	bne.n	10004d16 <mscd_xfer_cb+0x8a>
10004daa:	4b83      	ldr	r3, [pc, #524]	; (10004fb8 <mscd_xfer_cb+0x32c>)
10004dac:	62a5      	str	r5, [r4, #40]	; 0x28
10004dae:	6223      	str	r3, [r4, #32]
10004db0:	6863      	ldr	r3, [r4, #4]
10004db2:	63a5      	str	r5, [r4, #56]	; 0x38
10004db4:	6263      	str	r3, [r4, #36]	; 0x24
10004db6:	2301      	movs	r3, #1
10004db8:	55a3      	strb	r3, [r4, r6]
10004dba:	7be2      	ldrb	r2, [r4, #15]
10004dbc:	68a3      	ldr	r3, [r4, #8]
10004dbe:	6363      	str	r3, [r4, #52]	; 0x34
10004dc0:	2a28      	cmp	r2, #40	; 0x28
10004dc2:	d100      	bne.n	10004dc6 <mscd_xfer_cb+0x13a>
10004dc4:	e1db      	b.n	1000517e <mscd_xfer_cb+0x4f2>
10004dc6:	2a2a      	cmp	r2, #42	; 0x2a
10004dc8:	d100      	bne.n	10004dcc <mscd_xfer_cb+0x140>
10004dca:	e1dd      	b.n	10005188 <mscd_xfer_cb+0x4fc>
10004dcc:	2b00      	cmp	r3, #0
10004dce:	d003      	beq.n	10004dd8 <mscd_xfer_cb+0x14c>
10004dd0:	7b21      	ldrb	r1, [r4, #12]
10004dd2:	09c9      	lsrs	r1, r1, #7
10004dd4:	d100      	bne.n	10004dd8 <mscd_xfer_cb+0x14c>
10004dd6:	e1c7      	b.n	10005168 <mscd_xfer_cb+0x4dc>
10004dd8:	7b65      	ldrb	r5, [r4, #13]
10004dda:	2a25      	cmp	r2, #37	; 0x25
10004ddc:	d81b      	bhi.n	10004e16 <mscd_xfer_cb+0x18a>
10004dde:	4b77      	ldr	r3, [pc, #476]	; (10004fbc <mscd_xfer_cb+0x330>)
10004de0:	0092      	lsls	r2, r2, #2
10004de2:	589b      	ldr	r3, [r3, r2]
10004de4:	469f      	mov	pc, r3
10004de6:	ae06      	add	r6, sp, #24
10004de8:	0032      	movs	r2, r6
10004dea:	a907      	add	r1, sp, #28
10004dec:	0028      	movs	r0, r5
10004dee:	f7fb fb69 	bl	100004c4 <tud_msc_capacity_cb>
10004df2:	9b07      	ldr	r3, [sp, #28]
10004df4:	2b00      	cmp	r3, #0
10004df6:	d003      	beq.n	10004e00 <mscd_xfer_cb+0x174>
10004df8:	8832      	ldrh	r2, [r6, #0]
10004dfa:	2a00      	cmp	r2, #0
10004dfc:	d000      	beq.n	10004e00 <mscd_xfer_cb+0x174>
10004dfe:	e1ed      	b.n	100051dc <mscd_xfer_cb+0x550>
10004e00:	223c      	movs	r2, #60	; 0x3c
10004e02:	5ca3      	ldrb	r3, [r4, r2]
10004e04:	2b00      	cmp	r3, #0
10004e06:	d106      	bne.n	10004e16 <mscd_xfer_cb+0x18a>
10004e08:	2102      	movs	r1, #2
10004e0a:	54a1      	strb	r1, [r4, r2]
10004e0c:	3201      	adds	r2, #1
10004e0e:	1849      	adds	r1, r1, r1
10004e10:	54a1      	strb	r1, [r4, r2]
10004e12:	3201      	adds	r2, #1
10004e14:	54a3      	strb	r3, [r4, r2]
10004e16:	233c      	movs	r3, #60	; 0x3c
10004e18:	5ce3      	ldrb	r3, [r4, r3]
10004e1a:	2b00      	cmp	r3, #0
10004e1c:	d109      	bne.n	10004e32 <mscd_xfer_cb+0x1a6>
10004e1e:	0021      	movs	r1, r4
10004e20:	4d63      	ldr	r5, [pc, #396]	; (10004fb0 <mscd_xfer_cb+0x324>)
10004e22:	8ea3      	ldrh	r3, [r4, #52]	; 0x34
10004e24:	310f      	adds	r1, #15
10004e26:	7b60      	ldrb	r0, [r4, #13]
10004e28:	002a      	movs	r2, r5
10004e2a:	f7fb fb79 	bl	10000520 <tud_msc_scsi_cb>
10004e2e:	2800      	cmp	r0, #0
10004e30:	da3e      	bge.n	10004eb0 <mscd_xfer_cb+0x224>
10004e32:	2300      	movs	r3, #0
10004e34:	2201      	movs	r2, #1
10004e36:	6363      	str	r3, [r4, #52]	; 0x34
10004e38:	332c      	adds	r3, #44	; 0x2c
10004e3a:	54e2      	strb	r2, [r4, r3]
10004e3c:	3201      	adds	r2, #1
10004e3e:	3304      	adds	r3, #4
10004e40:	54e2      	strb	r2, [r4, r3]
10004e42:	323a      	adds	r2, #58	; 0x3a
10004e44:	5ca3      	ldrb	r3, [r4, r2]
10004e46:	2b00      	cmp	r3, #0
10004e48:	d106      	bne.n	10004e58 <mscd_xfer_cb+0x1cc>
10004e4a:	2105      	movs	r1, #5
10004e4c:	54a1      	strb	r1, [r4, r2]
10004e4e:	223d      	movs	r2, #61	; 0x3d
10004e50:	311b      	adds	r1, #27
10004e52:	54a1      	strb	r1, [r4, r2]
10004e54:	3201      	adds	r2, #1
10004e56:	54a3      	strb	r3, [r4, r2]
10004e58:	68a3      	ldr	r3, [r4, #8]
10004e5a:	2b00      	cmp	r3, #0
10004e5c:	d100      	bne.n	10004e60 <mscd_xfer_cb+0x1d4>
10004e5e:	e77b      	b.n	10004d58 <mscd_xfer_cb+0xcc>
10004e60:	232e      	movs	r3, #46	; 0x2e
10004e62:	5ce1      	ldrb	r1, [r4, r3]
10004e64:	4640      	mov	r0, r8
10004e66:	f7ff fa31 	bl	100042cc <usbd_edpt_stall>
10004e6a:	e794      	b.n	10004d96 <mscd_xfer_cb+0x10a>
10004e6c:	ae07      	add	r6, sp, #28
10004e6e:	220c      	movs	r2, #12
10004e70:	2100      	movs	r1, #0
10004e72:	0030      	movs	r0, r6
10004e74:	f7fd fca0 	bl	100027b8 <__wrap_memset>
10004e78:	ab02      	add	r3, sp, #8
10004e7a:	469c      	mov	ip, r3
10004e7c:	270e      	movs	r7, #14
10004e7e:	4467      	add	r7, ip
10004e80:	003a      	movs	r2, r7
10004e82:	a906      	add	r1, sp, #24
10004e84:	0028      	movs	r0, r5
10004e86:	f7fb fb1d 	bl	100004c4 <tud_msc_capacity_cb>
10004e8a:	9a06      	ldr	r2, [sp, #24]
10004e8c:	2a00      	cmp	r2, #0
10004e8e:	d0b7      	beq.n	10004e00 <mscd_xfer_cb+0x174>
10004e90:	883b      	ldrh	r3, [r7, #0]
10004e92:	2b00      	cmp	r3, #0
10004e94:	d0b4      	beq.n	10004e00 <mscd_xfer_cb+0x174>
10004e96:	2108      	movs	r1, #8
10004e98:	ba12      	rev	r2, r2
10004e9a:	4d45      	ldr	r5, [pc, #276]	; (10004fb0 <mscd_xfer_cb+0x324>)
10004e9c:	ba5b      	rev16	r3, r3
10004e9e:	70f1      	strb	r1, [r6, #3]
10004ea0:	9208      	str	r2, [sp, #32]
10004ea2:	2202      	movs	r2, #2
10004ea4:	8173      	strh	r3, [r6, #10]
10004ea6:	002b      	movs	r3, r5
10004ea8:	7232      	strb	r2, [r6, #8]
10004eaa:	ce07      	ldmia	r6!, {r0, r1, r2}
10004eac:	c307      	stmia	r3!, {r0, r1, r2}
10004eae:	200c      	movs	r0, #12
10004eb0:	2200      	movs	r2, #0
10004eb2:	232c      	movs	r3, #44	; 0x2c
10004eb4:	6360      	str	r0, [r4, #52]	; 0x34
10004eb6:	54e2      	strb	r2, [r4, r3]
10004eb8:	2800      	cmp	r0, #0
10004eba:	d100      	bne.n	10004ebe <mscd_xfer_cb+0x232>
10004ebc:	e749      	b.n	10004d52 <mscd_xfer_cb+0xc6>
10004ebe:	68a3      	ldr	r3, [r4, #8]
10004ec0:	4283      	cmp	r3, r0
10004ec2:	d200      	bcs.n	10004ec6 <mscd_xfer_cb+0x23a>
10004ec4:	e727      	b.n	10004d16 <mscd_xfer_cb+0x8a>
10004ec6:	222e      	movs	r2, #46	; 0x2e
10004ec8:	b283      	uxth	r3, r0
10004eca:	5ca1      	ldrb	r1, [r4, r2]
10004ecc:	4640      	mov	r0, r8
10004ece:	002a      	movs	r2, r5
10004ed0:	f7ff f9d8 	bl	10004284 <usbd_edpt_xfer>
10004ed4:	2800      	cmp	r0, #0
10004ed6:	d000      	beq.n	10004eda <mscd_xfer_cb+0x24e>
10004ed8:	e75d      	b.n	10004d96 <mscd_xfer_cb+0x10a>
10004eda:	2000      	movs	r0, #0
10004edc:	e6ed      	b.n	10004cba <mscd_xfer_cb+0x2e>
10004ede:	4b38      	ldr	r3, [pc, #224]	; (10004fc0 <mscd_xfer_cb+0x334>)
10004ee0:	2b00      	cmp	r3, #0
10004ee2:	d05c      	beq.n	10004f9e <mscd_xfer_cb+0x312>
10004ee4:	7ce1      	ldrb	r1, [r4, #19]
10004ee6:	0028      	movs	r0, r5
10004ee8:	078b      	lsls	r3, r1, #30
10004eea:	07ca      	lsls	r2, r1, #31
10004eec:	0fdb      	lsrs	r3, r3, #31
10004eee:	0fd2      	lsrs	r2, r2, #31
10004ef0:	0909      	lsrs	r1, r1, #4
10004ef2:	f7fb faed 	bl	100004d0 <tud_msc_start_stop_cb>
10004ef6:	2800      	cmp	r0, #0
10004ef8:	d151      	bne.n	10004f9e <mscd_xfer_cb+0x312>
10004efa:	233c      	movs	r3, #60	; 0x3c
10004efc:	5ce3      	ldrb	r3, [r4, r3]
10004efe:	2b00      	cmp	r3, #0
10004f00:	d197      	bne.n	10004e32 <mscd_xfer_cb+0x1a6>
10004f02:	2202      	movs	r2, #2
10004f04:	233c      	movs	r3, #60	; 0x3c
10004f06:	54e2      	strb	r2, [r4, r3]
10004f08:	1892      	adds	r2, r2, r2
10004f0a:	3301      	adds	r3, #1
10004f0c:	54e2      	strb	r2, [r4, r3]
10004f0e:	2200      	movs	r2, #0
10004f10:	3301      	adds	r3, #1
10004f12:	54e2      	strb	r2, [r4, r3]
10004f14:	e78d      	b.n	10004e32 <mscd_xfer_cb+0x1a6>
10004f16:	4b2b      	ldr	r3, [pc, #172]	; (10004fc4 <mscd_xfer_cb+0x338>)
10004f18:	2b00      	cmp	r3, #0
10004f1a:	d100      	bne.n	10004f1e <mscd_xfer_cb+0x292>
10004f1c:	e166      	b.n	100051ec <mscd_xfer_cb+0x560>
10004f1e:	0028      	movs	r0, r5
10004f20:	e000      	b.n	10004f24 <mscd_xfer_cb+0x298>
10004f22:	bf00      	nop
10004f24:	2303      	movs	r3, #3
10004f26:	4d22      	ldr	r5, [pc, #136]	; (10004fb0 <mscd_xfer_cb+0x324>)
10004f28:	2200      	movs	r2, #0
10004f2a:	702b      	strb	r3, [r5, #0]
10004f2c:	3b02      	subs	r3, #2
10004f2e:	4043      	eors	r3, r0
10004f30:	2004      	movs	r0, #4
10004f32:	01db      	lsls	r3, r3, #7
10004f34:	706a      	strb	r2, [r5, #1]
10004f36:	70ab      	strb	r3, [r5, #2]
10004f38:	70ea      	strb	r2, [r5, #3]
10004f3a:	2200      	movs	r2, #0
10004f3c:	232c      	movs	r3, #44	; 0x2c
10004f3e:	6360      	str	r0, [r4, #52]	; 0x34
10004f40:	54e2      	strb	r2, [r4, r3]
10004f42:	e7bc      	b.n	10004ebe <mscd_xfer_cb+0x232>
10004f44:	ae07      	add	r6, sp, #28
10004f46:	2224      	movs	r2, #36	; 0x24
10004f48:	2100      	movs	r1, #0
10004f4a:	0030      	movs	r0, r6
10004f4c:	f7fd fc34 	bl	100027b8 <__wrap_memset>
10004f50:	2380      	movs	r3, #128	; 0x80
10004f52:	425b      	negs	r3, r3
10004f54:	7073      	strb	r3, [r6, #1]
10004f56:	2208      	movs	r2, #8
10004f58:	3382      	adds	r3, #130	; 0x82
10004f5a:	2120      	movs	r1, #32
10004f5c:	a809      	add	r0, sp, #36	; 0x24
10004f5e:	70b3      	strb	r3, [r6, #2]
10004f60:	70f3      	strb	r3, [r6, #3]
10004f62:	f7fd fc29 	bl	100027b8 <__wrap_memset>
10004f66:	2210      	movs	r2, #16
10004f68:	2120      	movs	r1, #32
10004f6a:	a80b      	add	r0, sp, #44	; 0x2c
10004f6c:	f7fd fc24 	bl	100027b8 <__wrap_memset>
10004f70:	4b15      	ldr	r3, [pc, #84]	; (10004fc8 <mscd_xfer_cb+0x33c>)
10004f72:	0028      	movs	r0, r5
10004f74:	a909      	add	r1, sp, #36	; 0x24
10004f76:	930f      	str	r3, [sp, #60]	; 0x3c
10004f78:	aa0b      	add	r2, sp, #44	; 0x2c
10004f7a:	ab0f      	add	r3, sp, #60	; 0x3c
10004f7c:	f7fb fa64 	bl	10000448 <tud_msc_inquiry_cb>
10004f80:	4d0b      	ldr	r5, [pc, #44]	; (10004fb0 <mscd_xfer_cb+0x324>)
10004f82:	002a      	movs	r2, r5
10004f84:	ce0b      	ldmia	r6!, {r0, r1, r3}
10004f86:	c20b      	stmia	r2!, {r0, r1, r3}
10004f88:	ce0b      	ldmia	r6!, {r0, r1, r3}
10004f8a:	c20b      	stmia	r2!, {r0, r1, r3}
10004f8c:	ce0b      	ldmia	r6!, {r0, r1, r3}
10004f8e:	c20b      	stmia	r2!, {r0, r1, r3}
10004f90:	2024      	movs	r0, #36	; 0x24
10004f92:	e7d2      	b.n	10004f3a <mscd_xfer_cb+0x2ae>
10004f94:	0028      	movs	r0, r5
10004f96:	f7fb fa85 	bl	100004a4 <tud_msc_test_unit_ready_cb>
10004f9a:	2800      	cmp	r0, #0
10004f9c:	d0ad      	beq.n	10004efa <mscd_xfer_cb+0x26e>
10004f9e:	2300      	movs	r3, #0
10004fa0:	222c      	movs	r2, #44	; 0x2c
10004fa2:	6363      	str	r3, [r4, #52]	; 0x34
10004fa4:	54a3      	strb	r3, [r4, r2]
10004fa6:	e6d4      	b.n	10004d52 <mscd_xfer_cb+0xc6>
10004fa8:	200031d0 	.word	0x200031d0
10004fac:	00000000 	.word	0x00000000
10004fb0:	20002fd0 	.word	0x20002fd0
10004fb4:	43425355 	.word	0x43425355
10004fb8:	53425355 	.word	0x53425355
10004fbc:	10006e00 	.word	0x10006e00
10004fc0:	100004d1 	.word	0x100004d1
10004fc4:	00000000 	.word	0x00000000
10004fc8:	20202020 	.word	0x20202020
10004fcc:	ae07      	add	r6, sp, #28
10004fce:	2212      	movs	r2, #18
10004fd0:	2100      	movs	r1, #0
10004fd2:	0030      	movs	r0, r6
10004fd4:	f7fd fbf0 	bl	100027b8 <__wrap_memset>
10004fd8:	233d      	movs	r3, #61	; 0x3d
10004fda:	203c      	movs	r0, #60	; 0x3c
10004fdc:	5ce7      	ldrb	r7, [r4, r3]
10004fde:	4699      	mov	r9, r3
10004fe0:	3301      	adds	r3, #1
10004fe2:	5ce5      	ldrb	r5, [r4, r3]
10004fe4:	469a      	mov	sl, r3
10004fe6:	3b4e      	subs	r3, #78	; 0x4e
10004fe8:	5c22      	ldrb	r2, [r4, r0]
10004fea:	7033      	strb	r3, [r6, #0]
10004fec:	230f      	movs	r3, #15
10004fee:	4013      	ands	r3, r2
10004ff0:	70b3      	strb	r3, [r6, #2]
10004ff2:	230a      	movs	r3, #10
10004ff4:	7375      	strb	r5, [r6, #13]
10004ff6:	4d7e      	ldr	r5, [pc, #504]	; (100051f0 <mscd_xfer_cb+0x564>)
10004ff8:	71f3      	strb	r3, [r6, #7]
10004ffa:	002b      	movs	r3, r5
10004ffc:	7337      	strb	r7, [r6, #12]
10004ffe:	ce86      	ldmia	r6!, {r1, r2, r7}
10005000:	c386      	stmia	r3!, {r1, r2, r7}
10005002:	6837      	ldr	r7, [r6, #0]
10005004:	464a      	mov	r2, r9
10005006:	601f      	str	r7, [r3, #0]
10005008:	88b6      	ldrh	r6, [r6, #4]
1000500a:	809e      	strh	r6, [r3, #4]
1000500c:	2300      	movs	r3, #0
1000500e:	54a3      	strb	r3, [r4, r2]
10005010:	4652      	mov	r2, sl
10005012:	5423      	strb	r3, [r4, r0]
10005014:	54a3      	strb	r3, [r4, r2]
10005016:	382a      	subs	r0, #42	; 0x2a
10005018:	e78f      	b.n	10004f3a <mscd_xfer_cb+0x2ae>
1000501a:	6923      	ldr	r3, [r4, #16]
1000501c:	7d20      	ldrb	r0, [r4, #20]
1000501e:	8ae1      	ldrh	r1, [r4, #22]
10005020:	0a1b      	lsrs	r3, r3, #8
10005022:	0600      	lsls	r0, r0, #24
10005024:	6ba2      	ldr	r2, [r4, #56]	; 0x38
10005026:	4318      	orrs	r0, r3
10005028:	ba49      	rev16	r1, r1
1000502a:	ba03      	rev	r3, r0
1000502c:	b289      	uxth	r1, r1
1000502e:	68a0      	ldr	r0, [r4, #8]
10005030:	9302      	str	r3, [sp, #8]
10005032:	4693      	mov	fp, r2
10005034:	f7fd f8da 	bl	100021ec <__wrap___aeabi_uidiv>
10005038:	0400      	lsls	r0, r0, #16
1000503a:	0c02      	lsrs	r2, r0, #16
1000503c:	0011      	movs	r1, r2
1000503e:	4658      	mov	r0, fp
10005040:	4692      	mov	sl, r2
10005042:	f7fd f8d3 	bl	100021ec <__wrap___aeabi_uidiv>
10005046:	4658      	mov	r0, fp
10005048:	9103      	str	r1, [sp, #12]
1000504a:	4651      	mov	r1, sl
1000504c:	f7fd f8ce 	bl	100021ec <__wrap___aeabi_uidiv>
10005050:	9b02      	ldr	r3, [sp, #8]
10005052:	9a03      	ldr	r2, [sp, #12]
10005054:	18c1      	adds	r1, r0, r3
10005056:	7b60      	ldrb	r0, [r4, #13]
10005058:	4b65      	ldr	r3, [pc, #404]	; (100051f0 <mscd_xfer_cb+0x564>)
1000505a:	9700      	str	r7, [sp, #0]
1000505c:	f7fb fa52 	bl	10000504 <tud_msc_write10_cb>
10005060:	2800      	cmp	r0, #0
10005062:	db4b      	blt.n	100050fc <mscd_xfer_cb+0x470>
10005064:	42b8      	cmp	r0, r7
10005066:	db00      	blt.n	1000506a <mscd_xfer_cb+0x3de>
10005068:	e66c      	b.n	10004d44 <mscd_xfer_cb+0xb8>
1000506a:	2800      	cmp	r0, #0
1000506c:	dd7a      	ble.n	10005164 <mscd_xfer_cb+0x4d8>
1000506e:	6ba3      	ldr	r3, [r4, #56]	; 0x38
10005070:	1a3f      	subs	r7, r7, r0
10005072:	181b      	adds	r3, r3, r0
10005074:	63a3      	str	r3, [r4, #56]	; 0x38
10005076:	4b5e      	ldr	r3, [pc, #376]	; (100051f0 <mscd_xfer_cb+0x564>)
10005078:	003a      	movs	r2, r7
1000507a:	1819      	adds	r1, r3, r0
1000507c:	0018      	movs	r0, r3
1000507e:	f001 fd3f 	bl	10006b00 <__memmove_veneer>
10005082:	232f      	movs	r3, #47	; 0x2f
10005084:	5ce1      	ldrb	r1, [r4, r3]
10005086:	2300      	movs	r3, #0
10005088:	4640      	mov	r0, r8
1000508a:	9300      	str	r3, [sp, #0]
1000508c:	003a      	movs	r2, r7
1000508e:	f7ff f801 	bl	10004094 <dcd_event_xfer_complete>
10005092:	2001      	movs	r0, #1
10005094:	e611      	b.n	10004cba <mscd_xfer_cb+0x2e>
10005096:	2203      	movs	r2, #3
10005098:	2330      	movs	r3, #48	; 0x30
1000509a:	54e2      	strb	r2, [r4, r3]
1000509c:	0022      	movs	r2, r4
1000509e:	5d61      	ldrb	r1, [r4, r5]
100050a0:	3220      	adds	r2, #32
100050a2:	3b23      	subs	r3, #35	; 0x23
100050a4:	4640      	mov	r0, r8
100050a6:	f7ff f8ed 	bl	10004284 <usbd_edpt_xfer>
100050aa:	e606      	b.n	10004cba <mscd_xfer_cb+0x2e>
100050ac:	2205      	movs	r2, #5
100050ae:	54e5      	strb	r5, [r4, r3]
100050b0:	3310      	adds	r3, #16
100050b2:	54e2      	strb	r2, [r4, r3]
100050b4:	321b      	adds	r2, #27
100050b6:	3301      	adds	r3, #1
100050b8:	54e2      	strb	r2, [r4, r3]
100050ba:	464a      	mov	r2, r9
100050bc:	3301      	adds	r3, #1
100050be:	54e2      	strb	r2, [r4, r3]
100050c0:	e640      	b.n	10004d44 <mscd_xfer_cb+0xb8>
100050c2:	4640      	mov	r0, r8
100050c4:	f7ff fcee 	bl	10004aa4 <proc_read10_cmd.constprop.2>
100050c8:	2330      	movs	r3, #48	; 0x30
100050ca:	5ce5      	ldrb	r5, [r4, r3]
100050cc:	e618      	b.n	10004d00 <mscd_xfer_cb+0x74>
100050ce:	4b49      	ldr	r3, [pc, #292]	; (100051f4 <mscd_xfer_cb+0x568>)
100050d0:	2b00      	cmp	r3, #0
100050d2:	d026      	beq.n	10005122 <mscd_xfer_cb+0x496>
100050d4:	7b60      	ldrb	r0, [r4, #13]
100050d6:	e000      	b.n	100050da <mscd_xfer_cb+0x44e>
100050d8:	bf00      	nop
100050da:	2800      	cmp	r0, #0
100050dc:	d120      	bne.n	10005120 <mscd_xfer_cb+0x494>
100050de:	68a3      	ldr	r3, [r4, #8]
100050e0:	2201      	movs	r2, #1
100050e2:	62a3      	str	r3, [r4, #40]	; 0x28
100050e4:	232c      	movs	r3, #44	; 0x2c
100050e6:	54e2      	strb	r2, [r4, r3]
100050e8:	3206      	adds	r2, #6
100050ea:	3310      	adds	r3, #16
100050ec:	54e2      	strb	r2, [r4, r3]
100050ee:	3301      	adds	r3, #1
100050f0:	3220      	adds	r2, #32
100050f2:	54e2      	strb	r2, [r4, r3]
100050f4:	3301      	adds	r3, #1
100050f6:	54e0      	strb	r0, [r4, r3]
100050f8:	3b0f      	subs	r3, #15
100050fa:	e6b2      	b.n	10004e62 <mscd_xfer_cb+0x1d6>
100050fc:	6ba2      	ldr	r2, [r4, #56]	; 0x38
100050fe:	68a3      	ldr	r3, [r4, #8]
10005100:	1a9b      	subs	r3, r3, r2
10005102:	62a3      	str	r3, [r4, #40]	; 0x28
10005104:	232c      	movs	r3, #44	; 0x2c
10005106:	2205      	movs	r2, #5
10005108:	54e5      	strb	r5, [r4, r3]
1000510a:	3b2a      	subs	r3, #42	; 0x2a
1000510c:	55a3      	strb	r3, [r4, r6]
1000510e:	333a      	adds	r3, #58	; 0x3a
10005110:	54e2      	strb	r2, [r4, r3]
10005112:	321b      	adds	r2, #27
10005114:	3301      	adds	r3, #1
10005116:	54e2      	strb	r2, [r4, r3]
10005118:	464a      	mov	r2, r9
1000511a:	3301      	adds	r3, #1
1000511c:	54e2      	strb	r2, [r4, r3]
1000511e:	e61b      	b.n	10004d58 <mscd_xfer_cb+0xcc>
10005120:	6ba7      	ldr	r7, [r4, #56]	; 0x38
10005122:	68a3      	ldr	r3, [r4, #8]
10005124:	1bdf      	subs	r7, r3, r7
10005126:	2380      	movs	r3, #128	; 0x80
10005128:	009b      	lsls	r3, r3, #2
1000512a:	429f      	cmp	r7, r3
1000512c:	d900      	bls.n	10005130 <mscd_xfer_cb+0x4a4>
1000512e:	001f      	movs	r7, r3
10005130:	222f      	movs	r2, #47	; 0x2f
10005132:	b2bb      	uxth	r3, r7
10005134:	5ca1      	ldrb	r1, [r4, r2]
10005136:	4640      	mov	r0, r8
10005138:	4a2d      	ldr	r2, [pc, #180]	; (100051f0 <mscd_xfer_cb+0x564>)
1000513a:	f7ff f8a3 	bl	10004284 <usbd_edpt_xfer>
1000513e:	e62a      	b.n	10004d96 <mscd_xfer_cb+0x10a>
10005140:	4b2d      	ldr	r3, [pc, #180]	; (100051f8 <mscd_xfer_cb+0x56c>)
10005142:	2b00      	cmp	r3, #0
10005144:	d100      	bne.n	10005148 <mscd_xfer_cb+0x4bc>
10005146:	e5ce      	b.n	10004ce6 <mscd_xfer_cb+0x5a>
10005148:	0021      	movs	r1, r4
1000514a:	7b60      	ldrb	r0, [r4, #13]
1000514c:	310f      	adds	r1, #15
1000514e:	e000      	b.n	10005152 <mscd_xfer_cb+0x4c6>
10005150:	bf00      	nop
10005152:	e5c8      	b.n	10004ce6 <mscd_xfer_cb+0x5a>
10005154:	4b29      	ldr	r3, [pc, #164]	; (100051fc <mscd_xfer_cb+0x570>)
10005156:	2b00      	cmp	r3, #0
10005158:	d100      	bne.n	1000515c <mscd_xfer_cb+0x4d0>
1000515a:	e5c4      	b.n	10004ce6 <mscd_xfer_cb+0x5a>
1000515c:	7b60      	ldrb	r0, [r4, #13]
1000515e:	e000      	b.n	10005162 <mscd_xfer_cb+0x4d6>
10005160:	bf00      	nop
10005162:	e5c0      	b.n	10004ce6 <mscd_xfer_cb+0x5a>
10005164:	1a3f      	subs	r7, r7, r0
10005166:	e78c      	b.n	10005082 <mscd_xfer_cb+0x3f6>
10005168:	0001      	movs	r1, r0
1000516a:	b29b      	uxth	r3, r3
1000516c:	4a20      	ldr	r2, [pc, #128]	; (100051f0 <mscd_xfer_cb+0x564>)
1000516e:	4640      	mov	r0, r8
10005170:	f7ff f888 	bl	10004284 <usbd_edpt_xfer>
10005174:	2800      	cmp	r0, #0
10005176:	d000      	beq.n	1000517a <mscd_xfer_cb+0x4ee>
10005178:	e60d      	b.n	10004d96 <mscd_xfer_cb+0x10a>
1000517a:	2000      	movs	r0, #0
1000517c:	e59d      	b.n	10004cba <mscd_xfer_cb+0x2e>
1000517e:	4640      	mov	r0, r8
10005180:	f7ff fc90 	bl	10004aa4 <proc_read10_cmd.constprop.2>
10005184:	5da5      	ldrb	r5, [r4, r6]
10005186:	e5bb      	b.n	10004d00 <mscd_xfer_cb+0x74>
10005188:	4b1a      	ldr	r3, [pc, #104]	; (100051f4 <mscd_xfer_cb+0x568>)
1000518a:	2b00      	cmp	r3, #0
1000518c:	d014      	beq.n	100051b8 <mscd_xfer_cb+0x52c>
1000518e:	7b60      	ldrb	r0, [r4, #13]
10005190:	e000      	b.n	10005194 <mscd_xfer_cb+0x508>
10005192:	bf00      	nop
10005194:	2800      	cmp	r0, #0
10005196:	d10f      	bne.n	100051b8 <mscd_xfer_cb+0x52c>
10005198:	68a3      	ldr	r3, [r4, #8]
1000519a:	2201      	movs	r2, #1
1000519c:	62a3      	str	r3, [r4, #40]	; 0x28
1000519e:	232c      	movs	r3, #44	; 0x2c
100051a0:	54e2      	strb	r2, [r4, r3]
100051a2:	3206      	adds	r2, #6
100051a4:	3310      	adds	r3, #16
100051a6:	54e2      	strb	r2, [r4, r3]
100051a8:	3220      	adds	r2, #32
100051aa:	3301      	adds	r3, #1
100051ac:	54e2      	strb	r2, [r4, r3]
100051ae:	2200      	movs	r2, #0
100051b0:	3301      	adds	r3, #1
100051b2:	54e2      	strb	r2, [r4, r3]
100051b4:	3b0f      	subs	r3, #15
100051b6:	e654      	b.n	10004e62 <mscd_xfer_cb+0x1d6>
100051b8:	6ba2      	ldr	r2, [r4, #56]	; 0x38
100051ba:	68a3      	ldr	r3, [r4, #8]
100051bc:	1a9b      	subs	r3, r3, r2
100051be:	2280      	movs	r2, #128	; 0x80
100051c0:	0092      	lsls	r2, r2, #2
100051c2:	4293      	cmp	r3, r2
100051c4:	d900      	bls.n	100051c8 <mscd_xfer_cb+0x53c>
100051c6:	0013      	movs	r3, r2
100051c8:	222f      	movs	r2, #47	; 0x2f
100051ca:	b29b      	uxth	r3, r3
100051cc:	5ca1      	ldrb	r1, [r4, r2]
100051ce:	4640      	mov	r0, r8
100051d0:	4a07      	ldr	r2, [pc, #28]	; (100051f0 <mscd_xfer_cb+0x564>)
100051d2:	f7ff f857 	bl	10004284 <usbd_edpt_xfer>
100051d6:	2330      	movs	r3, #48	; 0x30
100051d8:	5ce5      	ldrb	r5, [r4, r3]
100051da:	e591      	b.n	10004d00 <mscd_xfer_cb+0x74>
100051dc:	4d04      	ldr	r5, [pc, #16]	; (100051f0 <mscd_xfer_cb+0x564>)
100051de:	3b01      	subs	r3, #1
100051e0:	ba1b      	rev	r3, r3
100051e2:	ba12      	rev	r2, r2
100051e4:	602b      	str	r3, [r5, #0]
100051e6:	606a      	str	r2, [r5, #4]
100051e8:	2008      	movs	r0, #8
100051ea:	e661      	b.n	10004eb0 <mscd_xfer_cb+0x224>
100051ec:	2001      	movs	r0, #1
100051ee:	e699      	b.n	10004f24 <mscd_xfer_cb+0x298>
100051f0:	20002fd0 	.word	0x20002fd0
	...

10005200 <tusb_init>:
10005200:	b510      	push	{r4, lr}
10005202:	2000      	movs	r0, #0
10005204:	f7fe f97c 	bl	10003500 <tud_init>
10005208:	bd10      	pop	{r4, pc}
1000520a:	46c0      	nop			; (mov r8, r8)

1000520c <tusb_inited>:
1000520c:	b510      	push	{r4, lr}
1000520e:	f7fe f971 	bl	100034f4 <tud_inited>
10005212:	bd10      	pop	{r4, pc}

10005214 <tu_edpt_validate>:
10005214:	2307      	movs	r3, #7
10005216:	b510      	push	{r4, lr}
10005218:	7944      	ldrb	r4, [r0, #5]
1000521a:	7902      	ldrb	r2, [r0, #4]
1000521c:	4023      	ands	r3, r4
1000521e:	021b      	lsls	r3, r3, #8
10005220:	431a      	orrs	r2, r3
10005222:	78c3      	ldrb	r3, [r0, #3]
10005224:	079b      	lsls	r3, r3, #30
10005226:	0f9b      	lsrs	r3, r3, #30
10005228:	2b02      	cmp	r3, #2
1000522a:	d016      	beq.n	1000525a <tu_edpt_validate+0x46>
1000522c:	d80d      	bhi.n	1000524a <tu_edpt_validate+0x36>
1000522e:	2000      	movs	r0, #0
10005230:	2b01      	cmp	r3, #1
10005232:	d109      	bne.n	10005248 <tu_edpt_validate+0x34>
10005234:	3902      	subs	r1, #2
10005236:	424b      	negs	r3, r1
10005238:	4159      	adcs	r1, r3
1000523a:	4b11      	ldr	r3, [pc, #68]	; (10005280 <tu_edpt_validate+0x6c>)
1000523c:	2000      	movs	r0, #0
1000523e:	469c      	mov	ip, r3
10005240:	4461      	add	r1, ip
10005242:	4291      	cmp	r1, r2
10005244:	4140      	adcs	r0, r0
10005246:	b2c0      	uxtb	r0, r0
10005248:	bd10      	pop	{r4, pc}
1000524a:	2902      	cmp	r1, #2
1000524c:	d014      	beq.n	10005278 <tu_edpt_validate+0x64>
1000524e:	2340      	movs	r3, #64	; 0x40
10005250:	2000      	movs	r0, #0
10005252:	4293      	cmp	r3, r2
10005254:	4140      	adcs	r0, r0
10005256:	b2c0      	uxtb	r0, r0
10005258:	e7f6      	b.n	10005248 <tu_edpt_validate+0x34>
1000525a:	2902      	cmp	r1, #2
1000525c:	d005      	beq.n	1000526a <tu_edpt_validate+0x56>
1000525e:	2000      	movs	r0, #0
10005260:	2340      	movs	r3, #64	; 0x40
10005262:	4293      	cmp	r3, r2
10005264:	4140      	adcs	r0, r0
10005266:	b2c0      	uxtb	r0, r0
10005268:	e7ee      	b.n	10005248 <tu_edpt_validate+0x34>
1000526a:	4b06      	ldr	r3, [pc, #24]	; (10005284 <tu_edpt_validate+0x70>)
1000526c:	469c      	mov	ip, r3
1000526e:	4462      	add	r2, ip
10005270:	4250      	negs	r0, r2
10005272:	4150      	adcs	r0, r2
10005274:	b2c0      	uxtb	r0, r0
10005276:	e7e7      	b.n	10005248 <tu_edpt_validate+0x34>
10005278:	2380      	movs	r3, #128	; 0x80
1000527a:	00db      	lsls	r3, r3, #3
1000527c:	e7e8      	b.n	10005250 <tu_edpt_validate+0x3c>
1000527e:	46c0      	nop			; (mov r8, r8)
10005280:	000003ff 	.word	0x000003ff
10005284:	fffffe00 	.word	0xfffffe00

10005288 <tu_edpt_bind_driver>:
10005288:	b5f0      	push	{r4, r5, r6, r7, lr}
1000528a:	2400      	movs	r4, #0
1000528c:	277f      	movs	r7, #127	; 0x7f
1000528e:	2a00      	cmp	r2, #0
10005290:	d106      	bne.n	100052a0 <tu_edpt_bind_driver+0x18>
10005292:	e015      	b.n	100052c0 <tu_edpt_bind_driver+0x38>
10005294:	780d      	ldrb	r5, [r1, #0]
10005296:	1964      	adds	r4, r4, r5
10005298:	b2a4      	uxth	r4, r4
1000529a:	1949      	adds	r1, r1, r5
1000529c:	42a2      	cmp	r2, r4
1000529e:	d90f      	bls.n	100052c0 <tu_edpt_bind_driver+0x38>
100052a0:	784d      	ldrb	r5, [r1, #1]
100052a2:	2d05      	cmp	r5, #5
100052a4:	d1f6      	bne.n	10005294 <tu_edpt_bind_driver+0xc>
100052a6:	003d      	movs	r5, r7
100052a8:	788e      	ldrb	r6, [r1, #2]
100052aa:	4035      	ands	r5, r6
100052ac:	006d      	lsls	r5, r5, #1
100052ae:	1945      	adds	r5, r0, r5
100052b0:	09f6      	lsrs	r6, r6, #7
100052b2:	55ab      	strb	r3, [r5, r6]
100052b4:	780d      	ldrb	r5, [r1, #0]
100052b6:	1964      	adds	r4, r4, r5
100052b8:	b2a4      	uxth	r4, r4
100052ba:	1949      	adds	r1, r1, r5
100052bc:	42a2      	cmp	r2, r4
100052be:	d8ef      	bhi.n	100052a0 <tu_edpt_bind_driver+0x18>
100052c0:	bdf0      	pop	{r4, r5, r6, r7, pc}
100052c2:	46c0      	nop			; (mov r8, r8)

100052c4 <tu_fifo_config>:
100052c4:	b5f0      	push	{r4, r5, r6, r7, lr}
100052c6:	46c6      	mov	lr, r8
100052c8:	b500      	push	{lr}
100052ca:	001e      	movs	r6, r3
100052cc:	ab06      	add	r3, sp, #24
100052ce:	781b      	ldrb	r3, [r3, #0]
100052d0:	0004      	movs	r4, r0
100052d2:	4698      	mov	r8, r3
100052d4:	2380      	movs	r3, #128	; 0x80
100052d6:	000f      	movs	r7, r1
100052d8:	0015      	movs	r5, r2
100052da:	021b      	lsls	r3, r3, #8
100052dc:	2000      	movs	r0, #0
100052de:	429a      	cmp	r2, r3
100052e0:	d826      	bhi.n	10005330 <tu_fifo_config+0x6c>
100052e2:	6960      	ldr	r0, [r4, #20]
100052e4:	2800      	cmp	r0, #0
100052e6:	d003      	beq.n	100052f0 <tu_fifo_config+0x2c>
100052e8:	2101      	movs	r1, #1
100052ea:	4249      	negs	r1, r1
100052ec:	f001 fbf8 	bl	10006ae0 <__mutex_enter_timeout_ms_veneer>
100052f0:	69a0      	ldr	r0, [r4, #24]
100052f2:	2800      	cmp	r0, #0
100052f4:	d003      	beq.n	100052fe <tu_fifo_config+0x3a>
100052f6:	2101      	movs	r1, #1
100052f8:	4249      	negs	r1, r1
100052fa:	f001 fbf1 	bl	10006ae0 <__mutex_enter_timeout_ms_veneer>
100052fe:	4643      	mov	r3, r8
10005300:	80a5      	strh	r5, [r4, #4]
10005302:	006d      	lsls	r5, r5, #1
10005304:	b2ad      	uxth	r5, r5
10005306:	7223      	strb	r3, [r4, #8]
10005308:	1e6b      	subs	r3, r5, #1
1000530a:	81a3      	strh	r3, [r4, #12]
1000530c:	2300      	movs	r3, #0
1000530e:	6960      	ldr	r0, [r4, #20]
10005310:	426d      	negs	r5, r5
10005312:	81e3      	strh	r3, [r4, #14]
10005314:	6027      	str	r7, [r4, #0]
10005316:	80e6      	strh	r6, [r4, #6]
10005318:	8165      	strh	r5, [r4, #10]
1000531a:	8223      	strh	r3, [r4, #16]
1000531c:	2800      	cmp	r0, #0
1000531e:	d001      	beq.n	10005324 <tu_fifo_config+0x60>
10005320:	f001 fbbe 	bl	10006aa0 <__mutex_exit_veneer>
10005324:	69a0      	ldr	r0, [r4, #24]
10005326:	2800      	cmp	r0, #0
10005328:	d005      	beq.n	10005336 <tu_fifo_config+0x72>
1000532a:	f001 fbb9 	bl	10006aa0 <__mutex_exit_veneer>
1000532e:	2001      	movs	r0, #1
10005330:	bc04      	pop	{r2}
10005332:	4690      	mov	r8, r2
10005334:	bdf0      	pop	{r4, r5, r6, r7, pc}
10005336:	2001      	movs	r0, #1
10005338:	e7fa      	b.n	10005330 <tu_fifo_config+0x6c>
1000533a:	46c0      	nop			; (mov r8, r8)

1000533c <tu_fifo_count>:
1000533c:	89c1      	ldrh	r1, [r0, #14]
1000533e:	8a02      	ldrh	r2, [r0, #16]
10005340:	b289      	uxth	r1, r1
10005342:	b292      	uxth	r2, r2
10005344:	1a8b      	subs	r3, r1, r2
10005346:	b29b      	uxth	r3, r3
10005348:	4291      	cmp	r1, r2
1000534a:	d202      	bcs.n	10005352 <tu_fifo_count+0x16>
1000534c:	8942      	ldrh	r2, [r0, #10]
1000534e:	1a9b      	subs	r3, r3, r2
10005350:	b29b      	uxth	r3, r3
10005352:	8882      	ldrh	r2, [r0, #4]
10005354:	1c10      	adds	r0, r2, #0
10005356:	429a      	cmp	r2, r3
10005358:	d900      	bls.n	1000535c <tu_fifo_count+0x20>
1000535a:	1c18      	adds	r0, r3, #0
1000535c:	b280      	uxth	r0, r0
1000535e:	4770      	bx	lr

10005360 <tu_fifo_empty>:
10005360:	89c3      	ldrh	r3, [r0, #14]
10005362:	8a00      	ldrh	r0, [r0, #16]
10005364:	1a18      	subs	r0, r3, r0
10005366:	4243      	negs	r3, r0
10005368:	4158      	adcs	r0, r3
1000536a:	b2c0      	uxtb	r0, r0
1000536c:	4770      	bx	lr
1000536e:	46c0      	nop			; (mov r8, r8)

10005370 <tu_fifo_remaining>:
10005370:	b510      	push	{r4, lr}
10005372:	89c4      	ldrh	r4, [r0, #14]
10005374:	8a01      	ldrh	r1, [r0, #16]
10005376:	b2a4      	uxth	r4, r4
10005378:	b289      	uxth	r1, r1
1000537a:	1a63      	subs	r3, r4, r1
1000537c:	8882      	ldrh	r2, [r0, #4]
1000537e:	b29b      	uxth	r3, r3
10005380:	428c      	cmp	r4, r1
10005382:	d202      	bcs.n	1000538a <tu_fifo_remaining+0x1a>
10005384:	8940      	ldrh	r0, [r0, #10]
10005386:	1a1b      	subs	r3, r3, r0
10005388:	b29b      	uxth	r3, r3
1000538a:	1ad0      	subs	r0, r2, r3
1000538c:	b280      	uxth	r0, r0
1000538e:	bd10      	pop	{r4, pc}

10005390 <tu_fifo_read>:
10005390:	b570      	push	{r4, r5, r6, lr}
10005392:	0004      	movs	r4, r0
10005394:	6980      	ldr	r0, [r0, #24]
10005396:	000d      	movs	r5, r1
10005398:	2800      	cmp	r0, #0
1000539a:	d003      	beq.n	100053a4 <tu_fifo_read+0x14>
1000539c:	2101      	movs	r1, #1
1000539e:	4249      	negs	r1, r1
100053a0:	f001 fb9e 	bl	10006ae0 <__mutex_enter_timeout_ms_veneer>
100053a4:	89e0      	ldrh	r0, [r4, #14]
100053a6:	8a21      	ldrh	r1, [r4, #16]
100053a8:	b280      	uxth	r0, r0
100053aa:	b289      	uxth	r1, r1
100053ac:	1a42      	subs	r2, r0, r1
100053ae:	b292      	uxth	r2, r2
100053b0:	4288      	cmp	r0, r1
100053b2:	d202      	bcs.n	100053ba <tu_fifo_read+0x2a>
100053b4:	8963      	ldrh	r3, [r4, #10]
100053b6:	1ad2      	subs	r2, r2, r3
100053b8:	b292      	uxth	r2, r2
100053ba:	88a3      	ldrh	r3, [r4, #4]
100053bc:	4293      	cmp	r3, r2
100053be:	d208      	bcs.n	100053d2 <tu_fifo_read+0x42>
100053c0:	1ac2      	subs	r2, r0, r3
100053c2:	b292      	uxth	r2, r2
100053c4:	4290      	cmp	r0, r2
100053c6:	d22c      	bcs.n	10005422 <tu_fifo_read+0x92>
100053c8:	8960      	ldrh	r0, [r4, #10]
100053ca:	1a12      	subs	r2, r2, r0
100053cc:	b292      	uxth	r2, r2
100053ce:	8222      	strh	r2, [r4, #16]
100053d0:	001a      	movs	r2, r3
100053d2:	2a00      	cmp	r2, #0
100053d4:	d102      	bne.n	100053dc <tu_fifo_read+0x4c>
100053d6:	e01d      	b.n	10005414 <tu_fifo_read+0x84>
100053d8:	1ac9      	subs	r1, r1, r3
100053da:	b289      	uxth	r1, r1
100053dc:	428b      	cmp	r3, r1
100053de:	d9fb      	bls.n	100053d8 <tu_fifo_read+0x48>
100053e0:	6823      	ldr	r3, [r4, #0]
100053e2:	88e2      	ldrh	r2, [r4, #6]
100053e4:	469c      	mov	ip, r3
100053e6:	4351      	muls	r1, r2
100053e8:	0028      	movs	r0, r5
100053ea:	4461      	add	r1, ip
100053ec:	f7fd f9ea 	bl	100027c4 <__wrap___aeabi_memcpy>
100053f0:	8a22      	ldrh	r2, [r4, #16]
100053f2:	2501      	movs	r5, #1
100053f4:	b292      	uxth	r2, r2
100053f6:	1c53      	adds	r3, r2, #1
100053f8:	b29b      	uxth	r3, r3
100053fa:	429a      	cmp	r2, r3
100053fc:	d90d      	bls.n	1000541a <tu_fifo_read+0x8a>
100053fe:	8962      	ldrh	r2, [r4, #10]
10005400:	189b      	adds	r3, r3, r2
10005402:	b29b      	uxth	r3, r3
10005404:	69a0      	ldr	r0, [r4, #24]
10005406:	8223      	strh	r3, [r4, #16]
10005408:	2800      	cmp	r0, #0
1000540a:	d001      	beq.n	10005410 <tu_fifo_read+0x80>
1000540c:	f001 fb48 	bl	10006aa0 <__mutex_exit_veneer>
10005410:	0028      	movs	r0, r5
10005412:	bd70      	pop	{r4, r5, r6, pc}
10005414:	2500      	movs	r5, #0
10005416:	8a23      	ldrh	r3, [r4, #16]
10005418:	b29b      	uxth	r3, r3
1000541a:	89a2      	ldrh	r2, [r4, #12]
1000541c:	429a      	cmp	r2, r3
1000541e:	d2f1      	bcs.n	10005404 <tu_fifo_read+0x74>
10005420:	e7ed      	b.n	100053fe <tu_fifo_read+0x6e>
10005422:	89a0      	ldrh	r0, [r4, #12]
10005424:	4290      	cmp	r0, r2
10005426:	d2d2      	bcs.n	100053ce <tu_fifo_read+0x3e>
10005428:	e7ce      	b.n	100053c8 <tu_fifo_read+0x38>
1000542a:	46c0      	nop			; (mov r8, r8)

1000542c <tu_fifo_read_n>:
1000542c:	b5f8      	push	{r3, r4, r5, r6, r7, lr}
1000542e:	4647      	mov	r7, r8
10005430:	46ce      	mov	lr, r9
10005432:	0004      	movs	r4, r0
10005434:	6980      	ldr	r0, [r0, #24]
10005436:	b580      	push	{r7, lr}
10005438:	000e      	movs	r6, r1
1000543a:	0017      	movs	r7, r2
1000543c:	2800      	cmp	r0, #0
1000543e:	d003      	beq.n	10005448 <tu_fifo_read_n+0x1c>
10005440:	2101      	movs	r1, #1
10005442:	4249      	negs	r1, r1
10005444:	f001 fb4c 	bl	10006ae0 <__mutex_enter_timeout_ms_veneer>
10005448:	89e2      	ldrh	r2, [r4, #14]
1000544a:	8a21      	ldrh	r1, [r4, #16]
1000544c:	b292      	uxth	r2, r2
1000544e:	b289      	uxth	r1, r1
10005450:	1a55      	subs	r5, r2, r1
10005452:	b2ad      	uxth	r5, r5
10005454:	428a      	cmp	r2, r1
10005456:	d202      	bcs.n	1000545e <tu_fifo_read_n+0x32>
10005458:	8963      	ldrh	r3, [r4, #10]
1000545a:	1aed      	subs	r5, r5, r3
1000545c:	b2ad      	uxth	r5, r5
1000545e:	88a3      	ldrh	r3, [r4, #4]
10005460:	42ab      	cmp	r3, r5
10005462:	d20a      	bcs.n	1000547a <tu_fifo_read_n+0x4e>
10005464:	1ad1      	subs	r1, r2, r3
10005466:	b289      	uxth	r1, r1
10005468:	428a      	cmp	r2, r1
1000546a:	d252      	bcs.n	10005512 <tu_fifo_read_n+0xe6>
1000546c:	8962      	ldrh	r2, [r4, #10]
1000546e:	1a89      	subs	r1, r1, r2
10005470:	b289      	uxth	r1, r1
10005472:	001d      	movs	r5, r3
10005474:	8221      	strh	r1, [r4, #16]
10005476:	8a21      	ldrh	r1, [r4, #16]
10005478:	b289      	uxth	r1, r1
1000547a:	2d00      	cmp	r5, #0
1000547c:	d04d      	beq.n	1000551a <tu_fifo_read_n+0xee>
1000547e:	1c3a      	adds	r2, r7, #0
10005480:	42af      	cmp	r7, r5
10005482:	d844      	bhi.n	1000550e <tu_fifo_read_n+0xe2>
10005484:	b295      	uxth	r5, r2
10005486:	428b      	cmp	r3, r1
10005488:	d803      	bhi.n	10005492 <tu_fifo_read_n+0x66>
1000548a:	1ac9      	subs	r1, r1, r3
1000548c:	b289      	uxth	r1, r1
1000548e:	428b      	cmp	r3, r1
10005490:	d9fb      	bls.n	1000548a <tu_fifo_read_n+0x5e>
10005492:	1a5b      	subs	r3, r3, r1
10005494:	b29f      	uxth	r7, r3
10005496:	88e3      	ldrh	r3, [r4, #6]
10005498:	4359      	muls	r1, r3
1000549a:	4698      	mov	r8, r3
1000549c:	6823      	ldr	r3, [r4, #0]
1000549e:	469c      	mov	ip, r3
100054a0:	4461      	add	r1, ip
100054a2:	42bd      	cmp	r5, r7
100054a4:	d924      	bls.n	100054f0 <tu_fifo_read_n+0xc4>
100054a6:	4640      	mov	r0, r8
100054a8:	4378      	muls	r0, r7
100054aa:	b283      	uxth	r3, r0
100054ac:	001a      	movs	r2, r3
100054ae:	0030      	movs	r0, r6
100054b0:	4699      	mov	r9, r3
100054b2:	f7fd f987 	bl	100027c4 <__wrap___aeabi_memcpy>
100054b6:	4643      	mov	r3, r8
100054b8:	0030      	movs	r0, r6
100054ba:	1bea      	subs	r2, r5, r7
100054bc:	435a      	muls	r2, r3
100054be:	4448      	add	r0, r9
100054c0:	b292      	uxth	r2, r2
100054c2:	6821      	ldr	r1, [r4, #0]
100054c4:	f7fd f97e 	bl	100027c4 <__wrap___aeabi_memcpy>
100054c8:	8a22      	ldrh	r2, [r4, #16]
100054ca:	b292      	uxth	r2, r2
100054cc:	1953      	adds	r3, r2, r5
100054ce:	b29b      	uxth	r3, r3
100054d0:	429a      	cmp	r2, r3
100054d2:	d918      	bls.n	10005506 <tu_fifo_read_n+0xda>
100054d4:	8962      	ldrh	r2, [r4, #10]
100054d6:	189b      	adds	r3, r3, r2
100054d8:	b29b      	uxth	r3, r3
100054da:	69a0      	ldr	r0, [r4, #24]
100054dc:	8223      	strh	r3, [r4, #16]
100054de:	2800      	cmp	r0, #0
100054e0:	d001      	beq.n	100054e6 <tu_fifo_read_n+0xba>
100054e2:	f001 fadd 	bl	10006aa0 <__mutex_exit_veneer>
100054e6:	0028      	movs	r0, r5
100054e8:	bc0c      	pop	{r2, r3}
100054ea:	4690      	mov	r8, r2
100054ec:	4699      	mov	r9, r3
100054ee:	bdf8      	pop	{r3, r4, r5, r6, r7, pc}
100054f0:	4642      	mov	r2, r8
100054f2:	0030      	movs	r0, r6
100054f4:	436a      	muls	r2, r5
100054f6:	f7fd f965 	bl	100027c4 <__wrap___aeabi_memcpy>
100054fa:	8a22      	ldrh	r2, [r4, #16]
100054fc:	b292      	uxth	r2, r2
100054fe:	1953      	adds	r3, r2, r5
10005500:	b29b      	uxth	r3, r3
10005502:	429a      	cmp	r2, r3
10005504:	d8e6      	bhi.n	100054d4 <tu_fifo_read_n+0xa8>
10005506:	89a2      	ldrh	r2, [r4, #12]
10005508:	429a      	cmp	r2, r3
1000550a:	d2e6      	bcs.n	100054da <tu_fifo_read_n+0xae>
1000550c:	e7e2      	b.n	100054d4 <tu_fifo_read_n+0xa8>
1000550e:	1c2a      	adds	r2, r5, #0
10005510:	e7b8      	b.n	10005484 <tu_fifo_read_n+0x58>
10005512:	89a2      	ldrh	r2, [r4, #12]
10005514:	428a      	cmp	r2, r1
10005516:	d2ac      	bcs.n	10005472 <tu_fifo_read_n+0x46>
10005518:	e7a8      	b.n	1000546c <tu_fifo_read_n+0x40>
1000551a:	8a23      	ldrh	r3, [r4, #16]
1000551c:	89a2      	ldrh	r2, [r4, #12]
1000551e:	b29b      	uxth	r3, r3
10005520:	429a      	cmp	r2, r3
10005522:	d2da      	bcs.n	100054da <tu_fifo_read_n+0xae>
10005524:	e7d6      	b.n	100054d4 <tu_fifo_read_n+0xa8>
10005526:	46c0      	nop			; (mov r8, r8)

10005528 <tu_fifo_write>:
10005528:	b570      	push	{r4, r5, r6, lr}
1000552a:	0004      	movs	r4, r0
1000552c:	6940      	ldr	r0, [r0, #20]
1000552e:	000e      	movs	r6, r1
10005530:	2800      	cmp	r0, #0
10005532:	d003      	beq.n	1000553c <tu_fifo_write+0x14>
10005534:	2101      	movs	r1, #1
10005536:	4249      	negs	r1, r1
10005538:	f001 fad2 	bl	10006ae0 <__mutex_enter_timeout_ms_veneer>
1000553c:	89e5      	ldrh	r5, [r4, #14]
1000553e:	8a23      	ldrh	r3, [r4, #16]
10005540:	b2ad      	uxth	r5, r5
10005542:	b29b      	uxth	r3, r3
10005544:	1aea      	subs	r2, r5, r3
10005546:	b292      	uxth	r2, r2
10005548:	429d      	cmp	r5, r3
1000554a:	d202      	bcs.n	10005552 <tu_fifo_write+0x2a>
1000554c:	8963      	ldrh	r3, [r4, #10]
1000554e:	1ad2      	subs	r2, r2, r3
10005550:	b292      	uxth	r2, r2
10005552:	88a3      	ldrh	r3, [r4, #4]
10005554:	4293      	cmp	r3, r2
10005556:	d026      	beq.n	100055a6 <tu_fifo_write+0x7e>
10005558:	0028      	movs	r0, r5
1000555a:	429d      	cmp	r5, r3
1000555c:	d303      	bcc.n	10005566 <tu_fifo_write+0x3e>
1000555e:	1ac0      	subs	r0, r0, r3
10005560:	b280      	uxth	r0, r0
10005562:	4283      	cmp	r3, r0
10005564:	d9fb      	bls.n	1000555e <tu_fifo_write+0x36>
10005566:	6823      	ldr	r3, [r4, #0]
10005568:	88e2      	ldrh	r2, [r4, #6]
1000556a:	469c      	mov	ip, r3
1000556c:	4350      	muls	r0, r2
1000556e:	0031      	movs	r1, r6
10005570:	4460      	add	r0, ip
10005572:	f7fd f927 	bl	100027c4 <__wrap___aeabi_memcpy>
10005576:	1c6b      	adds	r3, r5, #1
10005578:	b29b      	uxth	r3, r3
1000557a:	429d      	cmp	r5, r3
1000557c:	d90a      	bls.n	10005594 <tu_fifo_write+0x6c>
1000557e:	8962      	ldrh	r2, [r4, #10]
10005580:	6960      	ldr	r0, [r4, #20]
10005582:	189b      	adds	r3, r3, r2
10005584:	b29b      	uxth	r3, r3
10005586:	81e3      	strh	r3, [r4, #14]
10005588:	2800      	cmp	r0, #0
1000558a:	d00a      	beq.n	100055a2 <tu_fifo_write+0x7a>
1000558c:	f001 fa88 	bl	10006aa0 <__mutex_exit_veneer>
10005590:	2001      	movs	r0, #1
10005592:	bd70      	pop	{r4, r5, r6, pc}
10005594:	89a2      	ldrh	r2, [r4, #12]
10005596:	429a      	cmp	r2, r3
10005598:	d3f1      	bcc.n	1000557e <tu_fifo_write+0x56>
1000559a:	6960      	ldr	r0, [r4, #20]
1000559c:	81e3      	strh	r3, [r4, #14]
1000559e:	2800      	cmp	r0, #0
100055a0:	d1f4      	bne.n	1000558c <tu_fifo_write+0x64>
100055a2:	2001      	movs	r0, #1
100055a4:	e7f5      	b.n	10005592 <tu_fifo_write+0x6a>
100055a6:	7a20      	ldrb	r0, [r4, #8]
100055a8:	2800      	cmp	r0, #0
100055aa:	d1d5      	bne.n	10005558 <tu_fifo_write+0x30>
100055ac:	e7f1      	b.n	10005592 <tu_fifo_write+0x6a>
100055ae:	46c0      	nop			; (mov r8, r8)

100055b0 <tu_fifo_write_n>:
100055b0:	b5f0      	push	{r4, r5, r6, r7, lr}
100055b2:	464f      	mov	r7, r9
100055b4:	46d6      	mov	lr, sl
100055b6:	4646      	mov	r6, r8
100055b8:	0005      	movs	r5, r0
100055ba:	b5c0      	push	{r6, r7, lr}
100055bc:	0014      	movs	r4, r2
100055be:	000f      	movs	r7, r1
100055c0:	2a00      	cmp	r2, #0
100055c2:	d105      	bne.n	100055d0 <tu_fifo_write_n+0x20>
100055c4:	0020      	movs	r0, r4
100055c6:	bc1c      	pop	{r2, r3, r4}
100055c8:	4690      	mov	r8, r2
100055ca:	4699      	mov	r9, r3
100055cc:	46a2      	mov	sl, r4
100055ce:	bdf0      	pop	{r4, r5, r6, r7, pc}
100055d0:	6940      	ldr	r0, [r0, #20]
100055d2:	2800      	cmp	r0, #0
100055d4:	d003      	beq.n	100055de <tu_fifo_write_n+0x2e>
100055d6:	2101      	movs	r1, #1
100055d8:	4249      	negs	r1, r1
100055da:	f001 fa81 	bl	10006ae0 <__mutex_enter_timeout_ms_veneer>
100055de:	89ee      	ldrh	r6, [r5, #14]
100055e0:	7a2b      	ldrb	r3, [r5, #8]
100055e2:	8a28      	ldrh	r0, [r5, #16]
100055e4:	b2b6      	uxth	r6, r6
100055e6:	b280      	uxth	r0, r0
100055e8:	2b00      	cmp	r3, #0
100055ea:	d111      	bne.n	10005610 <tu_fifo_write_n+0x60>
100055ec:	1a32      	subs	r2, r6, r0
100055ee:	88ab      	ldrh	r3, [r5, #4]
100055f0:	b292      	uxth	r2, r2
100055f2:	4286      	cmp	r6, r0
100055f4:	d202      	bcs.n	100055fc <tu_fifo_write_n+0x4c>
100055f6:	8969      	ldrh	r1, [r5, #10]
100055f8:	1a52      	subs	r2, r2, r1
100055fa:	b292      	uxth	r2, r2
100055fc:	1a9a      	subs	r2, r3, r2
100055fe:	1c11      	adds	r1, r2, #0
10005600:	b292      	uxth	r2, r2
10005602:	42a2      	cmp	r2, r4
10005604:	d900      	bls.n	10005608 <tu_fifo_write_n+0x58>
10005606:	1c21      	adds	r1, r4, #0
10005608:	88ea      	ldrh	r2, [r5, #6]
1000560a:	b28c      	uxth	r4, r1
1000560c:	4690      	mov	r8, r2
1000560e:	e009      	b.n	10005624 <tu_fifo_write_n+0x74>
10005610:	88ea      	ldrh	r2, [r5, #6]
10005612:	88ab      	ldrh	r3, [r5, #4]
10005614:	4690      	mov	r8, r2
10005616:	429c      	cmp	r4, r3
10005618:	d304      	bcc.n	10005624 <tu_fifo_write_n+0x74>
1000561a:	1ae4      	subs	r4, r4, r3
1000561c:	4354      	muls	r4, r2
1000561e:	0006      	movs	r6, r0
10005620:	193f      	adds	r7, r7, r4
10005622:	001c      	movs	r4, r3
10005624:	0030      	movs	r0, r6
10005626:	429e      	cmp	r6, r3
10005628:	d303      	bcc.n	10005632 <tu_fifo_write_n+0x82>
1000562a:	1ac0      	subs	r0, r0, r3
1000562c:	b280      	uxth	r0, r0
1000562e:	4298      	cmp	r0, r3
10005630:	d2fb      	bcs.n	1000562a <tu_fifo_write_n+0x7a>
10005632:	1a1b      	subs	r3, r3, r0
10005634:	b29b      	uxth	r3, r3
10005636:	4699      	mov	r9, r3
10005638:	4643      	mov	r3, r8
1000563a:	4358      	muls	r0, r3
1000563c:	682b      	ldr	r3, [r5, #0]
1000563e:	469c      	mov	ip, r3
10005640:	4460      	add	r0, ip
10005642:	454c      	cmp	r4, r9
10005644:	d815      	bhi.n	10005672 <tu_fifo_write_n+0xc2>
10005646:	4642      	mov	r2, r8
10005648:	0039      	movs	r1, r7
1000564a:	4362      	muls	r2, r4
1000564c:	f7fd f8ba 	bl	100027c4 <__wrap___aeabi_memcpy>
10005650:	19a3      	adds	r3, r4, r6
10005652:	b29b      	uxth	r3, r3
10005654:	429e      	cmp	r6, r3
10005656:	d802      	bhi.n	1000565e <tu_fifo_write_n+0xae>
10005658:	89aa      	ldrh	r2, [r5, #12]
1000565a:	429a      	cmp	r2, r3
1000565c:	d202      	bcs.n	10005664 <tu_fifo_write_n+0xb4>
1000565e:	896a      	ldrh	r2, [r5, #10]
10005660:	189b      	adds	r3, r3, r2
10005662:	b29b      	uxth	r3, r3
10005664:	6968      	ldr	r0, [r5, #20]
10005666:	81eb      	strh	r3, [r5, #14]
10005668:	2800      	cmp	r0, #0
1000566a:	d0ab      	beq.n	100055c4 <tu_fifo_write_n+0x14>
1000566c:	f001 fa18 	bl	10006aa0 <__mutex_exit_veneer>
10005670:	e7a8      	b.n	100055c4 <tu_fifo_write_n+0x14>
10005672:	464b      	mov	r3, r9
10005674:	4641      	mov	r1, r8
10005676:	4359      	muls	r1, r3
10005678:	b28b      	uxth	r3, r1
1000567a:	001a      	movs	r2, r3
1000567c:	0039      	movs	r1, r7
1000567e:	469a      	mov	sl, r3
10005680:	f7fd f8a0 	bl	100027c4 <__wrap___aeabi_memcpy>
10005684:	464b      	mov	r3, r9
10005686:	1ae2      	subs	r2, r4, r3
10005688:	4643      	mov	r3, r8
1000568a:	0039      	movs	r1, r7
1000568c:	435a      	muls	r2, r3
1000568e:	4451      	add	r1, sl
10005690:	b292      	uxth	r2, r2
10005692:	6828      	ldr	r0, [r5, #0]
10005694:	f7fd f896 	bl	100027c4 <__wrap___aeabi_memcpy>
10005698:	e7da      	b.n	10005650 <tu_fifo_write_n+0xa0>
1000569a:	46c0      	nop			; (mov r8, r8)

1000569c <tu_fifo_clear>:
1000569c:	b510      	push	{r4, lr}
1000569e:	0004      	movs	r4, r0
100056a0:	6940      	ldr	r0, [r0, #20]
100056a2:	2800      	cmp	r0, #0
100056a4:	d003      	beq.n	100056ae <tu_fifo_clear+0x12>
100056a6:	2101      	movs	r1, #1
100056a8:	4249      	negs	r1, r1
100056aa:	f001 fa19 	bl	10006ae0 <__mutex_enter_timeout_ms_veneer>
100056ae:	69a0      	ldr	r0, [r4, #24]
100056b0:	2800      	cmp	r0, #0
100056b2:	d003      	beq.n	100056bc <tu_fifo_clear+0x20>
100056b4:	2101      	movs	r1, #1
100056b6:	4249      	negs	r1, r1
100056b8:	f001 fa12 	bl	10006ae0 <__mutex_enter_timeout_ms_veneer>
100056bc:	2300      	movs	r3, #0
100056be:	81e3      	strh	r3, [r4, #14]
100056c0:	8223      	strh	r3, [r4, #16]
100056c2:	88a3      	ldrh	r3, [r4, #4]
100056c4:	6960      	ldr	r0, [r4, #20]
100056c6:	005b      	lsls	r3, r3, #1
100056c8:	b29b      	uxth	r3, r3
100056ca:	1e5a      	subs	r2, r3, #1
100056cc:	425b      	negs	r3, r3
100056ce:	81a2      	strh	r2, [r4, #12]
100056d0:	8163      	strh	r3, [r4, #10]
100056d2:	2800      	cmp	r0, #0
100056d4:	d001      	beq.n	100056da <tu_fifo_clear+0x3e>
100056d6:	f001 f9e3 	bl	10006aa0 <__mutex_exit_veneer>
100056da:	69a0      	ldr	r0, [r4, #24]
100056dc:	2800      	cmp	r0, #0
100056de:	d001      	beq.n	100056e4 <tu_fifo_clear+0x48>
100056e0:	f001 f9de 	bl	10006aa0 <__mutex_exit_veneer>
100056e4:	2001      	movs	r0, #1
100056e6:	bd10      	pop	{r4, pc}

100056e8 <tu_fifo_set_overwritable>:
100056e8:	b570      	push	{r4, r5, r6, lr}
100056ea:	0004      	movs	r4, r0
100056ec:	6940      	ldr	r0, [r0, #20]
100056ee:	000d      	movs	r5, r1
100056f0:	2800      	cmp	r0, #0
100056f2:	d003      	beq.n	100056fc <tu_fifo_set_overwritable+0x14>
100056f4:	2101      	movs	r1, #1
100056f6:	4249      	negs	r1, r1
100056f8:	f001 f9f2 	bl	10006ae0 <__mutex_enter_timeout_ms_veneer>
100056fc:	69a0      	ldr	r0, [r4, #24]
100056fe:	2800      	cmp	r0, #0
10005700:	d003      	beq.n	1000570a <tu_fifo_set_overwritable+0x22>
10005702:	2101      	movs	r1, #1
10005704:	4249      	negs	r1, r1
10005706:	f001 f9eb 	bl	10006ae0 <__mutex_enter_timeout_ms_veneer>
1000570a:	6960      	ldr	r0, [r4, #20]
1000570c:	7225      	strb	r5, [r4, #8]
1000570e:	2800      	cmp	r0, #0
10005710:	d001      	beq.n	10005716 <tu_fifo_set_overwritable+0x2e>
10005712:	f001 f9c5 	bl	10006aa0 <__mutex_exit_veneer>
10005716:	69a0      	ldr	r0, [r4, #24]
10005718:	2800      	cmp	r0, #0
1000571a:	d001      	beq.n	10005720 <tu_fifo_set_overwritable+0x38>
1000571c:	f001 f9c0 	bl	10006aa0 <__mutex_exit_veneer>
10005720:	2001      	movs	r0, #1
10005722:	bd70      	pop	{r4, r5, r6, pc}

10005724 <hw_enumeration_fix_force_ls_j_done>:
10005724:	2180      	movs	r1, #128	; 0x80
10005726:	4a0b      	ldr	r2, [pc, #44]	; (10005754 <hw_enumeration_fix_force_ls_j_done+0x30>)
10005728:	0249      	lsls	r1, r1, #9
1000572a:	6d13      	ldr	r3, [r2, #80]	; 0x50
1000572c:	420b      	tst	r3, r1
1000572e:	d0fc      	beq.n	1000572a <hw_enumeration_fix_force_ls_j_done+0x6>
10005730:	2309      	movs	r3, #9
10005732:	2104      	movs	r1, #4
10005734:	6753      	str	r3, [r2, #116]	; 0x74
10005736:	4a08      	ldr	r2, [pc, #32]	; (10005758 <hw_enumeration_fix_force_ls_j_done+0x34>)
10005738:	3377      	adds	r3, #119	; 0x77
1000573a:	50d1      	str	r1, [r2, r3]
1000573c:	4b07      	ldr	r3, [pc, #28]	; (1000575c <hw_enumeration_fix_force_ls_j_done+0x38>)
1000573e:	2000      	movs	r0, #0
10005740:	681a      	ldr	r2, [r3, #0]
10005742:	4b07      	ldr	r3, [pc, #28]	; (10005760 <hw_enumeration_fix_force_ls_j_done+0x3c>)
10005744:	2100      	movs	r1, #0
10005746:	67da      	str	r2, [r3, #124]	; 0x7c
10005748:	4b06      	ldr	r3, [pc, #24]	; (10005764 <hw_enumeration_fix_force_ls_j_done+0x40>)
1000574a:	681a      	ldr	r2, [r3, #0]
1000574c:	4b06      	ldr	r3, [pc, #24]	; (10005768 <hw_enumeration_fix_force_ls_j_done+0x44>)
1000574e:	641a      	str	r2, [r3, #64]	; 0x40
10005750:	4770      	bx	lr
10005752:	46c0      	nop			; (mov r8, r8)
10005754:	50110000 	.word	0x50110000
10005758:	50113000 	.word	0x50113000
1000575c:	20003338 	.word	0x20003338
10005760:	40014000 	.word	0x40014000
10005764:	20003748 	.word	0x20003748
10005768:	4001c000 	.word	0x4001c000

1000576c <hw_enumeration_fix_force_ls_j>:
1000576c:	b570      	push	{r4, r5, r6, lr}
1000576e:	2010      	movs	r0, #16
10005770:	b084      	sub	sp, #16
10005772:	f7fa ff41 	bl	100005f8 <gpio_get_function>
10005776:	2808      	cmp	r0, #8
10005778:	d065      	beq.n	10005846 <hw_enumeration_fix_force_ls_j+0xda>
1000577a:	4b34      	ldr	r3, [pc, #208]	; (1000584c <hw_enumeration_fix_force_ls_j+0xe0>)
1000577c:	4d34      	ldr	r5, [pc, #208]	; (10005850 <hw_enumeration_fix_force_ls_j+0xe4>)
1000577e:	6fdb      	ldr	r3, [r3, #124]	; 0x7c
10005780:	4c34      	ldr	r4, [pc, #208]	; (10005854 <hw_enumeration_fix_force_ls_j+0xe8>)
10005782:	602b      	str	r3, [r5, #0]
10005784:	4b34      	ldr	r3, [pc, #208]	; (10005858 <hw_enumeration_fix_force_ls_j+0xec>)
10005786:	2201      	movs	r2, #1
10005788:	6c1b      	ldr	r3, [r3, #64]	; 0x40
1000578a:	2101      	movs	r1, #1
1000578c:	200f      	movs	r0, #15
1000578e:	6023      	str	r3, [r4, #0]
10005790:	f7fa ff3c 	bl	1000060c <gpio_set_pulls>
10005794:	2102      	movs	r1, #2
10005796:	200f      	movs	r0, #15
10005798:	f7fa ff64 	bl	10000664 <gpio_set_oeover>
1000579c:	2208      	movs	r2, #8
1000579e:	4b2f      	ldr	r3, [pc, #188]	; (1000585c <hw_enumeration_fix_force_ls_j+0xf0>)
100057a0:	2103      	movs	r1, #3
100057a2:	681b      	ldr	r3, [r3, #0]
100057a4:	200f      	movs	r0, #15
100057a6:	405a      	eors	r2, r3
100057a8:	231f      	movs	r3, #31
100057aa:	4013      	ands	r3, r2
100057ac:	4a2c      	ldr	r2, [pc, #176]	; (10005860 <hw_enumeration_fix_force_ls_j+0xf4>)
100057ae:	6013      	str	r3, [r2, #0]
100057b0:	f7fa ff46 	bl	10000640 <gpio_set_inover>
100057b4:	2202      	movs	r2, #2
100057b6:	2104      	movs	r1, #4
100057b8:	4b2a      	ldr	r3, [pc, #168]	; (10005864 <hw_enumeration_fix_force_ls_j+0xf8>)
100057ba:	67da      	str	r2, [r3, #124]	; 0x7c
100057bc:	327e      	adds	r2, #126	; 0x7e
100057be:	5099      	str	r1, [r3, r2]
100057c0:	4b29      	ldr	r3, [pc, #164]	; (10005868 <hw_enumeration_fix_force_ls_j+0xfc>)
100057c2:	3a74      	subs	r2, #116	; 0x74
100057c4:	675a      	str	r2, [r3, #116]	; 0x74
100057c6:	6d1b      	ldr	r3, [r3, #80]	; 0x50
100057c8:	071b      	lsls	r3, r3, #28
100057ca:	0f9b      	lsrs	r3, r3, #30
100057cc:	2b01      	cmp	r3, #1
100057ce:	d001      	beq.n	100057d4 <hw_enumeration_fix_force_ls_j+0x68>
100057d0:	f7fc f92c 	bl	10001a2c <hard_assertion_failure>
100057d4:	f7fb fa66 	bl	10000ca4 <alarm_pool_get_default>
100057d8:	0006      	movs	r6, r0
100057da:	f7fb fc77 	bl	100010cc <time_us_64>
100057de:	22fa      	movs	r2, #250	; 0xfa
100057e0:	2300      	movs	r3, #0
100057e2:	0092      	lsls	r2, r2, #2
100057e4:	1812      	adds	r2, r2, r0
100057e6:	414b      	adcs	r3, r1
100057e8:	4299      	cmp	r1, r3
100057ea:	d90f      	bls.n	1000580c <hw_enumeration_fix_force_ls_j+0xa0>
100057ec:	2201      	movs	r2, #1
100057ee:	4252      	negs	r2, r2
100057f0:	17d3      	asrs	r3, r2, #31
100057f2:	2101      	movs	r1, #1
100057f4:	9102      	str	r1, [sp, #8]
100057f6:	2100      	movs	r1, #0
100057f8:	9101      	str	r1, [sp, #4]
100057fa:	491c      	ldr	r1, [pc, #112]	; (1000586c <hw_enumeration_fix_force_ls_j+0x100>)
100057fc:	0030      	movs	r0, r6
100057fe:	9100      	str	r1, [sp, #0]
10005800:	f7fb fa54 	bl	10000cac <alarm_pool_add_alarm_at>
10005804:	2800      	cmp	r0, #0
10005806:	db06      	blt.n	10005816 <hw_enumeration_fix_force_ls_j+0xaa>
10005808:	b004      	add	sp, #16
1000580a:	bd70      	pop	{r4, r5, r6, pc}
1000580c:	4299      	cmp	r1, r3
1000580e:	d1f0      	bne.n	100057f2 <hw_enumeration_fix_force_ls_j+0x86>
10005810:	4290      	cmp	r0, r2
10005812:	d8eb      	bhi.n	100057ec <hw_enumeration_fix_force_ls_j+0x80>
10005814:	e7ed      	b.n	100057f2 <hw_enumeration_fix_force_ls_j+0x86>
10005816:	20fa      	movs	r0, #250	; 0xfa
10005818:	2100      	movs	r1, #0
1000581a:	0080      	lsls	r0, r0, #2
1000581c:	f7fb fc62 	bl	100010e4 <busy_wait_us>
10005820:	2180      	movs	r1, #128	; 0x80
10005822:	4a11      	ldr	r2, [pc, #68]	; (10005868 <hw_enumeration_fix_force_ls_j+0xfc>)
10005824:	0249      	lsls	r1, r1, #9
10005826:	6d13      	ldr	r3, [r2, #80]	; 0x50
10005828:	420b      	tst	r3, r1
1000582a:	d0fc      	beq.n	10005826 <hw_enumeration_fix_force_ls_j+0xba>
1000582c:	2309      	movs	r3, #9
1000582e:	2104      	movs	r1, #4
10005830:	6753      	str	r3, [r2, #116]	; 0x74
10005832:	4a0f      	ldr	r2, [pc, #60]	; (10005870 <hw_enumeration_fix_force_ls_j+0x104>)
10005834:	3377      	adds	r3, #119	; 0x77
10005836:	50d1      	str	r1, [r2, r3]
10005838:	682a      	ldr	r2, [r5, #0]
1000583a:	4b04      	ldr	r3, [pc, #16]	; (1000584c <hw_enumeration_fix_force_ls_j+0xe0>)
1000583c:	67da      	str	r2, [r3, #124]	; 0x7c
1000583e:	6822      	ldr	r2, [r4, #0]
10005840:	4b05      	ldr	r3, [pc, #20]	; (10005858 <hw_enumeration_fix_force_ls_j+0xec>)
10005842:	641a      	str	r2, [r3, #64]	; 0x40
10005844:	e7e0      	b.n	10005808 <hw_enumeration_fix_force_ls_j+0x9c>
10005846:	480b      	ldr	r0, [pc, #44]	; (10005874 <hw_enumeration_fix_force_ls_j+0x108>)
10005848:	f7fc f8d8 	bl	100019fc <panic>
1000584c:	40014000 	.word	0x40014000
10005850:	20003338 	.word	0x20003338
10005854:	20003748 	.word	0x20003748
10005858:	4001c000 	.word	0x4001c000
1000585c:	4001407c 	.word	0x4001407c
10005860:	4001507c 	.word	0x4001507c
10005864:	50112000 	.word	0x50112000
10005868:	50110000 	.word	0x50110000
1000586c:	10005725 	.word	0x10005725
10005870:	50113000 	.word	0x50113000
10005874:	10006e98 	.word	0x10006e98

10005878 <hw_enumeration_fix_wait_se0_callback>:
10005878:	4b07      	ldr	r3, [pc, #28]	; (10005898 <hw_enumeration_fix_wait_se0_callback+0x20>)
1000587a:	b510      	push	{r4, lr}
1000587c:	6d1b      	ldr	r3, [r3, #80]	; 0x50
1000587e:	071b      	lsls	r3, r3, #28
10005880:	0f9b      	lsrs	r3, r3, #30
10005882:	d103      	bne.n	1000588c <hw_enumeration_fix_wait_se0_callback+0x14>
10005884:	20fa      	movs	r0, #250	; 0xfa
10005886:	2100      	movs	r1, #0
10005888:	0080      	lsls	r0, r0, #2
1000588a:	bd10      	pop	{r4, pc}
1000588c:	f7ff ff6e 	bl	1000576c <hw_enumeration_fix_force_ls_j>
10005890:	2000      	movs	r0, #0
10005892:	2100      	movs	r1, #0
10005894:	e7f9      	b.n	1000588a <hw_enumeration_fix_wait_se0_callback+0x12>
10005896:	46c0      	nop			; (mov r8, r8)
10005898:	50110000 	.word	0x50110000

1000589c <rp2040_usb_device_enumeration_fix>:
1000589c:	b510      	push	{r4, lr}
1000589e:	b084      	sub	sp, #16
100058a0:	f7fb fa00 	bl	10000ca4 <alarm_pool_get_default>
100058a4:	0004      	movs	r4, r0
100058a6:	f7fb fc11 	bl	100010cc <time_us_64>
100058aa:	22fa      	movs	r2, #250	; 0xfa
100058ac:	2300      	movs	r3, #0
100058ae:	0092      	lsls	r2, r2, #2
100058b0:	1812      	adds	r2, r2, r0
100058b2:	414b      	adcs	r3, r1
100058b4:	4299      	cmp	r1, r3
100058b6:	d90f      	bls.n	100058d8 <rp2040_usb_device_enumeration_fix+0x3c>
100058b8:	2201      	movs	r2, #1
100058ba:	4252      	negs	r2, r2
100058bc:	17d3      	asrs	r3, r2, #31
100058be:	2101      	movs	r1, #1
100058c0:	9102      	str	r1, [sp, #8]
100058c2:	2100      	movs	r1, #0
100058c4:	9101      	str	r1, [sp, #4]
100058c6:	490b      	ldr	r1, [pc, #44]	; (100058f4 <rp2040_usb_device_enumeration_fix+0x58>)
100058c8:	0020      	movs	r0, r4
100058ca:	9100      	str	r1, [sp, #0]
100058cc:	f7fb f9ee 	bl	10000cac <alarm_pool_add_alarm_at>
100058d0:	2800      	cmp	r0, #0
100058d2:	db06      	blt.n	100058e2 <rp2040_usb_device_enumeration_fix+0x46>
100058d4:	b004      	add	sp, #16
100058d6:	bd10      	pop	{r4, pc}
100058d8:	4299      	cmp	r1, r3
100058da:	d1f0      	bne.n	100058be <rp2040_usb_device_enumeration_fix+0x22>
100058dc:	4290      	cmp	r0, r2
100058de:	d8eb      	bhi.n	100058b8 <rp2040_usb_device_enumeration_fix+0x1c>
100058e0:	e7ed      	b.n	100058be <rp2040_usb_device_enumeration_fix+0x22>
100058e2:	2203      	movs	r2, #3
100058e4:	4904      	ldr	r1, [pc, #16]	; (100058f8 <rp2040_usb_device_enumeration_fix+0x5c>)
100058e6:	6d0b      	ldr	r3, [r1, #80]	; 0x50
100058e8:	089b      	lsrs	r3, r3, #2
100058ea:	421a      	tst	r2, r3
100058ec:	d0fb      	beq.n	100058e6 <rp2040_usb_device_enumeration_fix+0x4a>
100058ee:	f7ff ff3d 	bl	1000576c <hw_enumeration_fix_force_ls_j>
100058f2:	e7ef      	b.n	100058d4 <rp2040_usb_device_enumeration_fix+0x38>
100058f4:	10005879 	.word	0x10005879
100058f8:	50110000 	.word	0x50110000

100058fc <_malloc_r>:
100058fc:	b5f0      	push	{r4, r5, r6, r7, lr}
100058fe:	4657      	mov	r7, sl
10005900:	4645      	mov	r5, r8
10005902:	46de      	mov	lr, fp
10005904:	464e      	mov	r6, r9
10005906:	b5e0      	push	{r5, r6, r7, lr}
10005908:	000d      	movs	r5, r1
1000590a:	350b      	adds	r5, #11
1000590c:	b083      	sub	sp, #12
1000590e:	0007      	movs	r7, r0
10005910:	2d16      	cmp	r5, #22
10005912:	d800      	bhi.n	10005916 <_malloc_r+0x1a>
10005914:	e09f      	b.n	10005a56 <_malloc_r+0x15a>
10005916:	2307      	movs	r3, #7
10005918:	439d      	bics	r5, r3
1000591a:	d500      	bpl.n	1000591e <_malloc_r+0x22>
1000591c:	e0c4      	b.n	10005aa8 <_malloc_r+0x1ac>
1000591e:	42a9      	cmp	r1, r5
10005920:	d900      	bls.n	10005924 <_malloc_r+0x28>
10005922:	e0c1      	b.n	10005aa8 <_malloc_r+0x1ac>
10005924:	f000 fa96 	bl	10005e54 <__malloc_lock>
10005928:	23f8      	movs	r3, #248	; 0xf8
1000592a:	33ff      	adds	r3, #255	; 0xff
1000592c:	429d      	cmp	r5, r3
1000592e:	d800      	bhi.n	10005932 <_malloc_r+0x36>
10005930:	e289      	b.n	10005e46 <_malloc_r+0x54a>
10005932:	0a68      	lsrs	r0, r5, #9
10005934:	d100      	bne.n	10005938 <_malloc_r+0x3c>
10005936:	e0bb      	b.n	10005ab0 <_malloc_r+0x1b4>
10005938:	2804      	cmp	r0, #4
1000593a:	d900      	bls.n	1000593e <_malloc_r+0x42>
1000593c:	e164      	b.n	10005c08 <_malloc_r+0x30c>
1000593e:	2338      	movs	r3, #56	; 0x38
10005940:	4698      	mov	r8, r3
10005942:	09a8      	lsrs	r0, r5, #6
10005944:	4480      	add	r8, r0
10005946:	3039      	adds	r0, #57	; 0x39
10005948:	00c1      	lsls	r1, r0, #3
1000594a:	4ec9      	ldr	r6, [pc, #804]	; (10005c70 <_malloc_r+0x374>)
1000594c:	1871      	adds	r1, r6, r1
1000594e:	3908      	subs	r1, #8
10005950:	68cc      	ldr	r4, [r1, #12]
10005952:	42a1      	cmp	r1, r4
10005954:	d019      	beq.n	1000598a <_malloc_r+0x8e>
10005956:	2303      	movs	r3, #3
10005958:	6862      	ldr	r2, [r4, #4]
1000595a:	439a      	bics	r2, r3
1000595c:	0013      	movs	r3, r2
1000595e:	1b52      	subs	r2, r2, r5
10005960:	2a0f      	cmp	r2, #15
10005962:	dd00      	ble.n	10005966 <_malloc_r+0x6a>
10005964:	e0aa      	b.n	10005abc <_malloc_r+0x1c0>
10005966:	2a00      	cmp	r2, #0
10005968:	db00      	blt.n	1000596c <_malloc_r+0x70>
1000596a:	e088      	b.n	10005a7e <_malloc_r+0x182>
1000596c:	2303      	movs	r3, #3
1000596e:	469c      	mov	ip, r3
10005970:	e008      	b.n	10005984 <_malloc_r+0x88>
10005972:	4662      	mov	r2, ip
10005974:	6863      	ldr	r3, [r4, #4]
10005976:	4393      	bics	r3, r2
10005978:	1b5a      	subs	r2, r3, r5
1000597a:	2a0f      	cmp	r2, #15
1000597c:	dd00      	ble.n	10005980 <_malloc_r+0x84>
1000597e:	e09d      	b.n	10005abc <_malloc_r+0x1c0>
10005980:	2a00      	cmp	r2, #0
10005982:	da7c      	bge.n	10005a7e <_malloc_r+0x182>
10005984:	68e4      	ldr	r4, [r4, #12]
10005986:	42a1      	cmp	r1, r4
10005988:	d1f3      	bne.n	10005972 <_malloc_r+0x76>
1000598a:	0032      	movs	r2, r6
1000598c:	6934      	ldr	r4, [r6, #16]
1000598e:	3208      	adds	r2, #8
10005990:	4294      	cmp	r4, r2
10005992:	d100      	bne.n	10005996 <_malloc_r+0x9a>
10005994:	e18b      	b.n	10005cae <_malloc_r+0x3b2>
10005996:	2303      	movs	r3, #3
10005998:	6861      	ldr	r1, [r4, #4]
1000599a:	4399      	bics	r1, r3
1000599c:	4689      	mov	r9, r1
1000599e:	1b49      	subs	r1, r1, r5
100059a0:	290f      	cmp	r1, #15
100059a2:	dd00      	ble.n	100059a6 <_malloc_r+0xaa>
100059a4:	e170      	b.n	10005c88 <_malloc_r+0x38c>
100059a6:	6172      	str	r2, [r6, #20]
100059a8:	6132      	str	r2, [r6, #16]
100059aa:	2900      	cmp	r1, #0
100059ac:	db00      	blt.n	100059b0 <_malloc_r+0xb4>
100059ae:	e087      	b.n	10005ac0 <_malloc_r+0x1c4>
100059b0:	4ab0      	ldr	r2, [pc, #704]	; (10005c74 <_malloc_r+0x378>)
100059b2:	464b      	mov	r3, r9
100059b4:	4591      	cmp	r9, r2
100059b6:	d900      	bls.n	100059ba <_malloc_r+0xbe>
100059b8:	e132      	b.n	10005c20 <_malloc_r+0x324>
100059ba:	08db      	lsrs	r3, r3, #3
100059bc:	3aff      	subs	r2, #255	; 0xff
100059be:	1099      	asrs	r1, r3, #2
100059c0:	3aff      	subs	r2, #255	; 0xff
100059c2:	408a      	lsls	r2, r1
100059c4:	00db      	lsls	r3, r3, #3
100059c6:	6871      	ldr	r1, [r6, #4]
100059c8:	199b      	adds	r3, r3, r6
100059ca:	430a      	orrs	r2, r1
100059cc:	6899      	ldr	r1, [r3, #8]
100059ce:	6072      	str	r2, [r6, #4]
100059d0:	60e3      	str	r3, [r4, #12]
100059d2:	60a1      	str	r1, [r4, #8]
100059d4:	609c      	str	r4, [r3, #8]
100059d6:	0013      	movs	r3, r2
100059d8:	60cc      	str	r4, [r1, #12]
100059da:	2101      	movs	r1, #1
100059dc:	1082      	asrs	r2, r0, #2
100059de:	4091      	lsls	r1, r2
100059e0:	4299      	cmp	r1, r3
100059e2:	d86f      	bhi.n	10005ac4 <_malloc_r+0x1c8>
100059e4:	420b      	tst	r3, r1
100059e6:	d105      	bne.n	100059f4 <_malloc_r+0xf8>
100059e8:	2203      	movs	r2, #3
100059ea:	4390      	bics	r0, r2
100059ec:	0049      	lsls	r1, r1, #1
100059ee:	3004      	adds	r0, #4
100059f0:	420b      	tst	r3, r1
100059f2:	d0fb      	beq.n	100059ec <_malloc_r+0xf0>
100059f4:	2303      	movs	r3, #3
100059f6:	4698      	mov	r8, r3
100059f8:	00c3      	lsls	r3, r0, #3
100059fa:	4699      	mov	r9, r3
100059fc:	44b1      	add	r9, r6
100059fe:	46cc      	mov	ip, r9
10005a00:	4682      	mov	sl, r0
10005a02:	4663      	mov	r3, ip
10005a04:	68dc      	ldr	r4, [r3, #12]
10005a06:	45a4      	cmp	ip, r4
10005a08:	d107      	bne.n	10005a1a <_malloc_r+0x11e>
10005a0a:	e152      	b.n	10005cb2 <_malloc_r+0x3b6>
10005a0c:	2a00      	cmp	r2, #0
10005a0e:	db00      	blt.n	10005a12 <_malloc_r+0x116>
10005a10:	e161      	b.n	10005cd6 <_malloc_r+0x3da>
10005a12:	68e4      	ldr	r4, [r4, #12]
10005a14:	45a4      	cmp	ip, r4
10005a16:	d100      	bne.n	10005a1a <_malloc_r+0x11e>
10005a18:	e14b      	b.n	10005cb2 <_malloc_r+0x3b6>
10005a1a:	4642      	mov	r2, r8
10005a1c:	6863      	ldr	r3, [r4, #4]
10005a1e:	4393      	bics	r3, r2
10005a20:	1b5a      	subs	r2, r3, r5
10005a22:	2a0f      	cmp	r2, #15
10005a24:	ddf2      	ble.n	10005a0c <_malloc_r+0x110>
10005a26:	2001      	movs	r0, #1
10005a28:	4680      	mov	r8, r0
10005a2a:	1961      	adds	r1, r4, r5
10005a2c:	4305      	orrs	r5, r0
10005a2e:	6065      	str	r5, [r4, #4]
10005a30:	68a0      	ldr	r0, [r4, #8]
10005a32:	68e5      	ldr	r5, [r4, #12]
10005a34:	3608      	adds	r6, #8
10005a36:	60c5      	str	r5, [r0, #12]
10005a38:	60a8      	str	r0, [r5, #8]
10005a3a:	4640      	mov	r0, r8
10005a3c:	60f1      	str	r1, [r6, #12]
10005a3e:	60b1      	str	r1, [r6, #8]
10005a40:	4310      	orrs	r0, r2
10005a42:	6048      	str	r0, [r1, #4]
10005a44:	60ce      	str	r6, [r1, #12]
10005a46:	608e      	str	r6, [r1, #8]
10005a48:	0038      	movs	r0, r7
10005a4a:	50e2      	str	r2, [r4, r3]
10005a4c:	f000 fa04 	bl	10005e58 <__malloc_unlock>
10005a50:	0020      	movs	r0, r4
10005a52:	3008      	adds	r0, #8
10005a54:	e021      	b.n	10005a9a <_malloc_r+0x19e>
10005a56:	2910      	cmp	r1, #16
10005a58:	d826      	bhi.n	10005aa8 <_malloc_r+0x1ac>
10005a5a:	0038      	movs	r0, r7
10005a5c:	f000 f9fa 	bl	10005e54 <__malloc_lock>
10005a60:	2510      	movs	r5, #16
10005a62:	2318      	movs	r3, #24
10005a64:	2002      	movs	r0, #2
10005a66:	4e82      	ldr	r6, [pc, #520]	; (10005c70 <_malloc_r+0x374>)
10005a68:	18f3      	adds	r3, r6, r3
10005a6a:	001a      	movs	r2, r3
10005a6c:	685c      	ldr	r4, [r3, #4]
10005a6e:	3a08      	subs	r2, #8
10005a70:	4294      	cmp	r4, r2
10005a72:	d100      	bne.n	10005a76 <_malloc_r+0x17a>
10005a74:	e129      	b.n	10005cca <_malloc_r+0x3ce>
10005a76:	2303      	movs	r3, #3
10005a78:	6862      	ldr	r2, [r4, #4]
10005a7a:	439a      	bics	r2, r3
10005a7c:	0013      	movs	r3, r2
10005a7e:	68e2      	ldr	r2, [r4, #12]
10005a80:	68a1      	ldr	r1, [r4, #8]
10005a82:	60ca      	str	r2, [r1, #12]
10005a84:	6091      	str	r1, [r2, #8]
10005a86:	2201      	movs	r2, #1
10005a88:	18e3      	adds	r3, r4, r3
10005a8a:	6859      	ldr	r1, [r3, #4]
10005a8c:	0038      	movs	r0, r7
10005a8e:	430a      	orrs	r2, r1
10005a90:	605a      	str	r2, [r3, #4]
10005a92:	f000 f9e1 	bl	10005e58 <__malloc_unlock>
10005a96:	0020      	movs	r0, r4
10005a98:	3008      	adds	r0, #8
10005a9a:	b003      	add	sp, #12
10005a9c:	bc3c      	pop	{r2, r3, r4, r5}
10005a9e:	4690      	mov	r8, r2
10005aa0:	4699      	mov	r9, r3
10005aa2:	46a2      	mov	sl, r4
10005aa4:	46ab      	mov	fp, r5
10005aa6:	bdf0      	pop	{r4, r5, r6, r7, pc}
10005aa8:	230c      	movs	r3, #12
10005aaa:	2000      	movs	r0, #0
10005aac:	603b      	str	r3, [r7, #0]
10005aae:	e7f4      	b.n	10005a9a <_malloc_r+0x19e>
10005ab0:	2180      	movs	r1, #128	; 0x80
10005ab2:	233f      	movs	r3, #63	; 0x3f
10005ab4:	2040      	movs	r0, #64	; 0x40
10005ab6:	0089      	lsls	r1, r1, #2
10005ab8:	4698      	mov	r8, r3
10005aba:	e746      	b.n	1000594a <_malloc_r+0x4e>
10005abc:	4640      	mov	r0, r8
10005abe:	e764      	b.n	1000598a <_malloc_r+0x8e>
10005ac0:	464b      	mov	r3, r9
10005ac2:	e7e0      	b.n	10005a86 <_malloc_r+0x18a>
10005ac4:	2303      	movs	r3, #3
10005ac6:	68b4      	ldr	r4, [r6, #8]
10005ac8:	6862      	ldr	r2, [r4, #4]
10005aca:	439a      	bics	r2, r3
10005acc:	4690      	mov	r8, r2
10005ace:	42aa      	cmp	r2, r5
10005ad0:	d303      	bcc.n	10005ada <_malloc_r+0x1de>
10005ad2:	1b53      	subs	r3, r2, r5
10005ad4:	2b0f      	cmp	r3, #15
10005ad6:	dd00      	ble.n	10005ada <_malloc_r+0x1de>
10005ad8:	e088      	b.n	10005bec <_malloc_r+0x2f0>
10005ada:	0023      	movs	r3, r4
10005adc:	4443      	add	r3, r8
10005ade:	4a66      	ldr	r2, [pc, #408]	; (10005c78 <_malloc_r+0x37c>)
10005ae0:	9301      	str	r3, [sp, #4]
10005ae2:	4b66      	ldr	r3, [pc, #408]	; (10005c7c <_malloc_r+0x380>)
10005ae4:	4693      	mov	fp, r2
10005ae6:	469a      	mov	sl, r3
10005ae8:	6892      	ldr	r2, [r2, #8]
10005aea:	681b      	ldr	r3, [r3, #0]
10005aec:	18eb      	adds	r3, r5, r3
10005aee:	3201      	adds	r2, #1
10005af0:	d100      	bne.n	10005af4 <_malloc_r+0x1f8>
10005af2:	e161      	b.n	10005db8 <_malloc_r+0x4bc>
10005af4:	4a62      	ldr	r2, [pc, #392]	; (10005c80 <_malloc_r+0x384>)
10005af6:	4694      	mov	ip, r2
10005af8:	4463      	add	r3, ip
10005afa:	0b1b      	lsrs	r3, r3, #12
10005afc:	031b      	lsls	r3, r3, #12
10005afe:	9300      	str	r3, [sp, #0]
10005b00:	9900      	ldr	r1, [sp, #0]
10005b02:	0038      	movs	r0, r7
10005b04:	f000 f9aa 	bl	10005e5c <_sbrk_r>
10005b08:	0003      	movs	r3, r0
10005b0a:	4681      	mov	r9, r0
10005b0c:	3301      	adds	r3, #1
10005b0e:	d062      	beq.n	10005bd6 <_malloc_r+0x2da>
10005b10:	9b01      	ldr	r3, [sp, #4]
10005b12:	4283      	cmp	r3, r0
10005b14:	d900      	bls.n	10005b18 <_malloc_r+0x21c>
10005b16:	e0f9      	b.n	10005d0c <_malloc_r+0x410>
10005b18:	4653      	mov	r3, sl
10005b1a:	685b      	ldr	r3, [r3, #4]
10005b1c:	9a00      	ldr	r2, [sp, #0]
10005b1e:	469c      	mov	ip, r3
10005b20:	4653      	mov	r3, sl
10005b22:	4462      	add	r2, ip
10005b24:	605a      	str	r2, [r3, #4]
10005b26:	9b01      	ldr	r3, [sp, #4]
10005b28:	0011      	movs	r1, r2
10005b2a:	4283      	cmp	r3, r0
10005b2c:	d100      	bne.n	10005b30 <_malloc_r+0x234>
10005b2e:	e14f      	b.n	10005dd0 <_malloc_r+0x4d4>
10005b30:	465b      	mov	r3, fp
10005b32:	689b      	ldr	r3, [r3, #8]
10005b34:	3301      	adds	r3, #1
10005b36:	d100      	bne.n	10005b3a <_malloc_r+0x23e>
10005b38:	e166      	b.n	10005e08 <_malloc_r+0x50c>
10005b3a:	464b      	mov	r3, r9
10005b3c:	9a01      	ldr	r2, [sp, #4]
10005b3e:	1a9b      	subs	r3, r3, r2
10005b40:	1859      	adds	r1, r3, r1
10005b42:	4653      	mov	r3, sl
10005b44:	6059      	str	r1, [r3, #4]
10005b46:	2307      	movs	r3, #7
10005b48:	464a      	mov	r2, r9
10005b4a:	4013      	ands	r3, r2
10005b4c:	d100      	bne.n	10005b50 <_malloc_r+0x254>
10005b4e:	e11e      	b.n	10005d8e <_malloc_r+0x492>
10005b50:	2108      	movs	r1, #8
10005b52:	4689      	mov	r9, r1
10005b54:	494b      	ldr	r1, [pc, #300]	; (10005c84 <_malloc_r+0x388>)
10005b56:	1ad2      	subs	r2, r2, r3
10005b58:	4491      	add	r9, r2
10005b5a:	1acb      	subs	r3, r1, r3
10005b5c:	9a00      	ldr	r2, [sp, #0]
10005b5e:	0038      	movs	r0, r7
10005b60:	444a      	add	r2, r9
10005b62:	0511      	lsls	r1, r2, #20
10005b64:	0d09      	lsrs	r1, r1, #20
10005b66:	1a5b      	subs	r3, r3, r1
10005b68:	0019      	movs	r1, r3
10005b6a:	469b      	mov	fp, r3
10005b6c:	f000 f976 	bl	10005e5c <_sbrk_r>
10005b70:	1c43      	adds	r3, r0, #1
10005b72:	d100      	bne.n	10005b76 <_malloc_r+0x27a>
10005b74:	e13c      	b.n	10005df0 <_malloc_r+0x4f4>
10005b76:	464b      	mov	r3, r9
10005b78:	1ac0      	subs	r0, r0, r3
10005b7a:	2301      	movs	r3, #1
10005b7c:	4458      	add	r0, fp
10005b7e:	4318      	orrs	r0, r3
10005b80:	4653      	mov	r3, sl
10005b82:	685b      	ldr	r3, [r3, #4]
10005b84:	445b      	add	r3, fp
10005b86:	0019      	movs	r1, r3
10005b88:	4653      	mov	r3, sl
10005b8a:	6059      	str	r1, [r3, #4]
10005b8c:	464b      	mov	r3, r9
10005b8e:	60b3      	str	r3, [r6, #8]
10005b90:	6058      	str	r0, [r3, #4]
10005b92:	42b4      	cmp	r4, r6
10005b94:	d013      	beq.n	10005bbe <_malloc_r+0x2c2>
10005b96:	4643      	mov	r3, r8
10005b98:	2b0f      	cmp	r3, #15
10005b9a:	d800      	bhi.n	10005b9e <_malloc_r+0x2a2>
10005b9c:	e0e2      	b.n	10005d64 <_malloc_r+0x468>
10005b9e:	4643      	mov	r3, r8
10005ba0:	2207      	movs	r2, #7
10005ba2:	6860      	ldr	r0, [r4, #4]
10005ba4:	3b0c      	subs	r3, #12
10005ba6:	4393      	bics	r3, r2
10005ba8:	3a06      	subs	r2, #6
10005baa:	4002      	ands	r2, r0
10005bac:	2005      	movs	r0, #5
10005bae:	431a      	orrs	r2, r3
10005bb0:	6062      	str	r2, [r4, #4]
10005bb2:	18e2      	adds	r2, r4, r3
10005bb4:	6050      	str	r0, [r2, #4]
10005bb6:	6090      	str	r0, [r2, #8]
10005bb8:	2b0f      	cmp	r3, #15
10005bba:	d900      	bls.n	10005bbe <_malloc_r+0x2c2>
10005bbc:	e11c      	b.n	10005df8 <_malloc_r+0x4fc>
10005bbe:	4653      	mov	r3, sl
10005bc0:	6adb      	ldr	r3, [r3, #44]	; 0x2c
10005bc2:	4299      	cmp	r1, r3
10005bc4:	d901      	bls.n	10005bca <_malloc_r+0x2ce>
10005bc6:	4653      	mov	r3, sl
10005bc8:	62d9      	str	r1, [r3, #44]	; 0x2c
10005bca:	4653      	mov	r3, sl
10005bcc:	6b1b      	ldr	r3, [r3, #48]	; 0x30
10005bce:	4299      	cmp	r1, r3
10005bd0:	d901      	bls.n	10005bd6 <_malloc_r+0x2da>
10005bd2:	4653      	mov	r3, sl
10005bd4:	6319      	str	r1, [r3, #48]	; 0x30
10005bd6:	2303      	movs	r3, #3
10005bd8:	68b4      	ldr	r4, [r6, #8]
10005bda:	6862      	ldr	r2, [r4, #4]
10005bdc:	439a      	bics	r2, r3
10005bde:	1b53      	subs	r3, r2, r5
10005be0:	4295      	cmp	r5, r2
10005be2:	d900      	bls.n	10005be6 <_malloc_r+0x2ea>
10005be4:	e0c1      	b.n	10005d6a <_malloc_r+0x46e>
10005be6:	2b0f      	cmp	r3, #15
10005be8:	dc00      	bgt.n	10005bec <_malloc_r+0x2f0>
10005bea:	e0be      	b.n	10005d6a <_malloc_r+0x46e>
10005bec:	2201      	movs	r2, #1
10005bee:	0029      	movs	r1, r5
10005bf0:	4313      	orrs	r3, r2
10005bf2:	4311      	orrs	r1, r2
10005bf4:	1965      	adds	r5, r4, r5
10005bf6:	6061      	str	r1, [r4, #4]
10005bf8:	0038      	movs	r0, r7
10005bfa:	60b5      	str	r5, [r6, #8]
10005bfc:	606b      	str	r3, [r5, #4]
10005bfe:	f000 f92b 	bl	10005e58 <__malloc_unlock>
10005c02:	0020      	movs	r0, r4
10005c04:	3008      	adds	r0, #8
10005c06:	e748      	b.n	10005a9a <_malloc_r+0x19e>
10005c08:	2814      	cmp	r0, #20
10005c0a:	d973      	bls.n	10005cf4 <_malloc_r+0x3f8>
10005c0c:	2854      	cmp	r0, #84	; 0x54
10005c0e:	d900      	bls.n	10005c12 <_malloc_r+0x316>
10005c10:	e0b2      	b.n	10005d78 <_malloc_r+0x47c>
10005c12:	236e      	movs	r3, #110	; 0x6e
10005c14:	4698      	mov	r8, r3
10005c16:	0b28      	lsrs	r0, r5, #12
10005c18:	4480      	add	r8, r0
10005c1a:	306f      	adds	r0, #111	; 0x6f
10005c1c:	00c1      	lsls	r1, r0, #3
10005c1e:	e694      	b.n	1000594a <_malloc_r+0x4e>
10005c20:	0a5a      	lsrs	r2, r3, #9
10005c22:	2a04      	cmp	r2, #4
10005c24:	d96c      	bls.n	10005d00 <_malloc_r+0x404>
10005c26:	2a14      	cmp	r2, #20
10005c28:	d900      	bls.n	10005c2c <_malloc_r+0x330>
10005c2a:	e0c8      	b.n	10005dbe <_malloc_r+0x4c2>
10005c2c:	0011      	movs	r1, r2
10005c2e:	325c      	adds	r2, #92	; 0x5c
10005c30:	315b      	adds	r1, #91	; 0x5b
10005c32:	00d2      	lsls	r2, r2, #3
10005c34:	2308      	movs	r3, #8
10005c36:	425b      	negs	r3, r3
10005c38:	469c      	mov	ip, r3
10005c3a:	18b2      	adds	r2, r6, r2
10005c3c:	4494      	add	ip, r2
10005c3e:	4663      	mov	r3, ip
10005c40:	689a      	ldr	r2, [r3, #8]
10005c42:	2303      	movs	r3, #3
10005c44:	4698      	mov	r8, r3
10005c46:	4594      	cmp	ip, r2
10005c48:	d100      	bne.n	10005c4c <_malloc_r+0x350>
10005c4a:	e0a3      	b.n	10005d94 <_malloc_r+0x498>
10005c4c:	4643      	mov	r3, r8
10005c4e:	6851      	ldr	r1, [r2, #4]
10005c50:	4399      	bics	r1, r3
10005c52:	4589      	cmp	r9, r1
10005c54:	d300      	bcc.n	10005c58 <_malloc_r+0x35c>
10005c56:	e08d      	b.n	10005d74 <_malloc_r+0x478>
10005c58:	6892      	ldr	r2, [r2, #8]
10005c5a:	4594      	cmp	ip, r2
10005c5c:	d1f6      	bne.n	10005c4c <_malloc_r+0x350>
10005c5e:	4663      	mov	r3, ip
10005c60:	68da      	ldr	r2, [r3, #12]
10005c62:	6873      	ldr	r3, [r6, #4]
10005c64:	4661      	mov	r1, ip
10005c66:	60e2      	str	r2, [r4, #12]
10005c68:	60a1      	str	r1, [r4, #8]
10005c6a:	6094      	str	r4, [r2, #8]
10005c6c:	60cc      	str	r4, [r1, #12]
10005c6e:	e6b4      	b.n	100059da <_malloc_r+0xde>
10005c70:	20002890 	.word	0x20002890
10005c74:	000001ff 	.word	0x000001ff
10005c78:	20002c90 	.word	0x20002c90
10005c7c:	20002dec 	.word	0x20002dec
10005c80:	0000100f 	.word	0x0000100f
10005c84:	00001008 	.word	0x00001008
10005c88:	2301      	movs	r3, #1
10005c8a:	1960      	adds	r0, r4, r5
10005c8c:	431d      	orrs	r5, r3
10005c8e:	6065      	str	r5, [r4, #4]
10005c90:	6170      	str	r0, [r6, #20]
10005c92:	6130      	str	r0, [r6, #16]
10005c94:	60c2      	str	r2, [r0, #12]
10005c96:	6082      	str	r2, [r0, #8]
10005c98:	001a      	movs	r2, r3
10005c9a:	464b      	mov	r3, r9
10005c9c:	430a      	orrs	r2, r1
10005c9e:	6042      	str	r2, [r0, #4]
10005ca0:	0038      	movs	r0, r7
10005ca2:	50e1      	str	r1, [r4, r3]
10005ca4:	f000 f8d8 	bl	10005e58 <__malloc_unlock>
10005ca8:	0020      	movs	r0, r4
10005caa:	3008      	adds	r0, #8
10005cac:	e6f5      	b.n	10005a9a <_malloc_r+0x19e>
10005cae:	6873      	ldr	r3, [r6, #4]
10005cb0:	e693      	b.n	100059da <_malloc_r+0xde>
10005cb2:	2308      	movs	r3, #8
10005cb4:	469b      	mov	fp, r3
10005cb6:	3b07      	subs	r3, #7
10005cb8:	44dc      	add	ip, fp
10005cba:	469b      	mov	fp, r3
10005cbc:	44da      	add	sl, fp
10005cbe:	4643      	mov	r3, r8
10005cc0:	4652      	mov	r2, sl
10005cc2:	4213      	tst	r3, r2
10005cc4:	d000      	beq.n	10005cc8 <_malloc_r+0x3cc>
10005cc6:	e69c      	b.n	10005a02 <_malloc_r+0x106>
10005cc8:	e036      	b.n	10005d38 <_malloc_r+0x43c>
10005cca:	68dc      	ldr	r4, [r3, #12]
10005ccc:	3002      	adds	r0, #2
10005cce:	42a3      	cmp	r3, r4
10005cd0:	d100      	bne.n	10005cd4 <_malloc_r+0x3d8>
10005cd2:	e65a      	b.n	1000598a <_malloc_r+0x8e>
10005cd4:	e6cf      	b.n	10005a76 <_malloc_r+0x17a>
10005cd6:	2201      	movs	r2, #1
10005cd8:	18e3      	adds	r3, r4, r3
10005cda:	6859      	ldr	r1, [r3, #4]
10005cdc:	0038      	movs	r0, r7
10005cde:	430a      	orrs	r2, r1
10005ce0:	605a      	str	r2, [r3, #4]
10005ce2:	68e3      	ldr	r3, [r4, #12]
10005ce4:	68a2      	ldr	r2, [r4, #8]
10005ce6:	60d3      	str	r3, [r2, #12]
10005ce8:	609a      	str	r2, [r3, #8]
10005cea:	f000 f8b5 	bl	10005e58 <__malloc_unlock>
10005cee:	0020      	movs	r0, r4
10005cf0:	3008      	adds	r0, #8
10005cf2:	e6d2      	b.n	10005a9a <_malloc_r+0x19e>
10005cf4:	235b      	movs	r3, #91	; 0x5b
10005cf6:	4698      	mov	r8, r3
10005cf8:	4480      	add	r8, r0
10005cfa:	305c      	adds	r0, #92	; 0x5c
10005cfc:	00c1      	lsls	r1, r0, #3
10005cfe:	e624      	b.n	1000594a <_malloc_r+0x4e>
10005d00:	099a      	lsrs	r2, r3, #6
10005d02:	0011      	movs	r1, r2
10005d04:	3239      	adds	r2, #57	; 0x39
10005d06:	3138      	adds	r1, #56	; 0x38
10005d08:	00d2      	lsls	r2, r2, #3
10005d0a:	e793      	b.n	10005c34 <_malloc_r+0x338>
10005d0c:	42b4      	cmp	r4, r6
10005d0e:	d000      	beq.n	10005d12 <_malloc_r+0x416>
10005d10:	e761      	b.n	10005bd6 <_malloc_r+0x2da>
10005d12:	4653      	mov	r3, sl
10005d14:	685b      	ldr	r3, [r3, #4]
10005d16:	9a00      	ldr	r2, [sp, #0]
10005d18:	469c      	mov	ip, r3
10005d1a:	4653      	mov	r3, sl
10005d1c:	4462      	add	r2, ip
10005d1e:	0011      	movs	r1, r2
10005d20:	605a      	str	r2, [r3, #4]
10005d22:	e705      	b.n	10005b30 <_malloc_r+0x234>
10005d24:	2308      	movs	r3, #8
10005d26:	425b      	negs	r3, r3
10005d28:	469c      	mov	ip, r3
10005d2a:	44e1      	add	r9, ip
10005d2c:	464b      	mov	r3, r9
10005d2e:	689b      	ldr	r3, [r3, #8]
10005d30:	3801      	subs	r0, #1
10005d32:	4599      	cmp	r9, r3
10005d34:	d000      	beq.n	10005d38 <_malloc_r+0x43c>
10005d36:	e084      	b.n	10005e42 <_malloc_r+0x546>
10005d38:	4643      	mov	r3, r8
10005d3a:	4203      	tst	r3, r0
10005d3c:	d1f2      	bne.n	10005d24 <_malloc_r+0x428>
10005d3e:	6873      	ldr	r3, [r6, #4]
10005d40:	438b      	bics	r3, r1
10005d42:	6073      	str	r3, [r6, #4]
10005d44:	0049      	lsls	r1, r1, #1
10005d46:	4299      	cmp	r1, r3
10005d48:	d900      	bls.n	10005d4c <_malloc_r+0x450>
10005d4a:	e6bb      	b.n	10005ac4 <_malloc_r+0x1c8>
10005d4c:	2900      	cmp	r1, #0
10005d4e:	d100      	bne.n	10005d52 <_malloc_r+0x456>
10005d50:	e6b8      	b.n	10005ac4 <_malloc_r+0x1c8>
10005d52:	4650      	mov	r0, sl
10005d54:	420b      	tst	r3, r1
10005d56:	d000      	beq.n	10005d5a <_malloc_r+0x45e>
10005d58:	e64e      	b.n	100059f8 <_malloc_r+0xfc>
10005d5a:	0049      	lsls	r1, r1, #1
10005d5c:	3004      	adds	r0, #4
10005d5e:	420b      	tst	r3, r1
10005d60:	d0fb      	beq.n	10005d5a <_malloc_r+0x45e>
10005d62:	e649      	b.n	100059f8 <_malloc_r+0xfc>
10005d64:	2301      	movs	r3, #1
10005d66:	464a      	mov	r2, r9
10005d68:	6053      	str	r3, [r2, #4]
10005d6a:	0038      	movs	r0, r7
10005d6c:	f000 f874 	bl	10005e58 <__malloc_unlock>
10005d70:	2000      	movs	r0, #0
10005d72:	e692      	b.n	10005a9a <_malloc_r+0x19e>
10005d74:	4694      	mov	ip, r2
10005d76:	e772      	b.n	10005c5e <_malloc_r+0x362>
10005d78:	23aa      	movs	r3, #170	; 0xaa
10005d7a:	005b      	lsls	r3, r3, #1
10005d7c:	4298      	cmp	r0, r3
10005d7e:	d811      	bhi.n	10005da4 <_malloc_r+0x4a8>
10005d80:	3bdd      	subs	r3, #221	; 0xdd
10005d82:	4698      	mov	r8, r3
10005d84:	0be8      	lsrs	r0, r5, #15
10005d86:	4480      	add	r8, r0
10005d88:	3078      	adds	r0, #120	; 0x78
10005d8a:	00c1      	lsls	r1, r0, #3
10005d8c:	e5dd      	b.n	1000594a <_malloc_r+0x4e>
10005d8e:	2380      	movs	r3, #128	; 0x80
10005d90:	015b      	lsls	r3, r3, #5
10005d92:	e6e3      	b.n	10005b5c <_malloc_r+0x260>
10005d94:	1089      	asrs	r1, r1, #2
10005d96:	3b02      	subs	r3, #2
10005d98:	408b      	lsls	r3, r1
10005d9a:	6872      	ldr	r2, [r6, #4]
10005d9c:	4313      	orrs	r3, r2
10005d9e:	6073      	str	r3, [r6, #4]
10005da0:	4662      	mov	r2, ip
10005da2:	e75f      	b.n	10005c64 <_malloc_r+0x368>
10005da4:	4b2a      	ldr	r3, [pc, #168]	; (10005e50 <_malloc_r+0x554>)
10005da6:	4298      	cmp	r0, r3
10005da8:	d81c      	bhi.n	10005de4 <_malloc_r+0x4e8>
10005daa:	237c      	movs	r3, #124	; 0x7c
10005dac:	4698      	mov	r8, r3
10005dae:	0ca8      	lsrs	r0, r5, #18
10005db0:	4480      	add	r8, r0
10005db2:	307d      	adds	r0, #125	; 0x7d
10005db4:	00c1      	lsls	r1, r0, #3
10005db6:	e5c8      	b.n	1000594a <_malloc_r+0x4e>
10005db8:	3310      	adds	r3, #16
10005dba:	9300      	str	r3, [sp, #0]
10005dbc:	e6a0      	b.n	10005b00 <_malloc_r+0x204>
10005dbe:	2a54      	cmp	r2, #84	; 0x54
10005dc0:	d826      	bhi.n	10005e10 <_malloc_r+0x514>
10005dc2:	464b      	mov	r3, r9
10005dc4:	0b1a      	lsrs	r2, r3, #12
10005dc6:	0011      	movs	r1, r2
10005dc8:	326f      	adds	r2, #111	; 0x6f
10005dca:	316e      	adds	r1, #110	; 0x6e
10005dcc:	00d2      	lsls	r2, r2, #3
10005dce:	e731      	b.n	10005c34 <_malloc_r+0x338>
10005dd0:	051b      	lsls	r3, r3, #20
10005dd2:	d000      	beq.n	10005dd6 <_malloc_r+0x4da>
10005dd4:	e6ac      	b.n	10005b30 <_malloc_r+0x234>
10005dd6:	2001      	movs	r0, #1
10005dd8:	9b00      	ldr	r3, [sp, #0]
10005dda:	68b2      	ldr	r2, [r6, #8]
10005ddc:	4443      	add	r3, r8
10005dde:	4303      	orrs	r3, r0
10005de0:	6053      	str	r3, [r2, #4]
10005de2:	e6ec      	b.n	10005bbe <_malloc_r+0x2c2>
10005de4:	21fe      	movs	r1, #254	; 0xfe
10005de6:	237e      	movs	r3, #126	; 0x7e
10005de8:	207f      	movs	r0, #127	; 0x7f
10005dea:	0089      	lsls	r1, r1, #2
10005dec:	4698      	mov	r8, r3
10005dee:	e5ac      	b.n	1000594a <_malloc_r+0x4e>
10005df0:	2300      	movs	r3, #0
10005df2:	2001      	movs	r0, #1
10005df4:	469b      	mov	fp, r3
10005df6:	e6c3      	b.n	10005b80 <_malloc_r+0x284>
10005df8:	0021      	movs	r1, r4
10005dfa:	0038      	movs	r0, r7
10005dfc:	3108      	adds	r1, #8
10005dfe:	f000 fb7d 	bl	100064fc <_free_r>
10005e02:	4653      	mov	r3, sl
10005e04:	6859      	ldr	r1, [r3, #4]
10005e06:	e6da      	b.n	10005bbe <_malloc_r+0x2c2>
10005e08:	465b      	mov	r3, fp
10005e0a:	464a      	mov	r2, r9
10005e0c:	609a      	str	r2, [r3, #8]
10005e0e:	e69a      	b.n	10005b46 <_malloc_r+0x24a>
10005e10:	21aa      	movs	r1, #170	; 0xaa
10005e12:	0049      	lsls	r1, r1, #1
10005e14:	428a      	cmp	r2, r1
10005e16:	d806      	bhi.n	10005e26 <_malloc_r+0x52a>
10005e18:	464b      	mov	r3, r9
10005e1a:	0bda      	lsrs	r2, r3, #15
10005e1c:	0011      	movs	r1, r2
10005e1e:	3278      	adds	r2, #120	; 0x78
10005e20:	3177      	adds	r1, #119	; 0x77
10005e22:	00d2      	lsls	r2, r2, #3
10005e24:	e706      	b.n	10005c34 <_malloc_r+0x338>
10005e26:	490a      	ldr	r1, [pc, #40]	; (10005e50 <_malloc_r+0x554>)
10005e28:	428a      	cmp	r2, r1
10005e2a:	d806      	bhi.n	10005e3a <_malloc_r+0x53e>
10005e2c:	464b      	mov	r3, r9
10005e2e:	0c9a      	lsrs	r2, r3, #18
10005e30:	0011      	movs	r1, r2
10005e32:	327d      	adds	r2, #125	; 0x7d
10005e34:	317c      	adds	r1, #124	; 0x7c
10005e36:	00d2      	lsls	r2, r2, #3
10005e38:	e6fc      	b.n	10005c34 <_malloc_r+0x338>
10005e3a:	22fe      	movs	r2, #254	; 0xfe
10005e3c:	217e      	movs	r1, #126	; 0x7e
10005e3e:	0092      	lsls	r2, r2, #2
10005e40:	e6f8      	b.n	10005c34 <_malloc_r+0x338>
10005e42:	6873      	ldr	r3, [r6, #4]
10005e44:	e77e      	b.n	10005d44 <_malloc_r+0x448>
10005e46:	002b      	movs	r3, r5
10005e48:	08e8      	lsrs	r0, r5, #3
10005e4a:	3308      	adds	r3, #8
10005e4c:	e60b      	b.n	10005a66 <_malloc_r+0x16a>
10005e4e:	46c0      	nop			; (mov r8, r8)
10005e50:	00000554 	.word	0x00000554

10005e54 <__malloc_lock>:
10005e54:	4770      	bx	lr
10005e56:	46c0      	nop			; (mov r8, r8)

10005e58 <__malloc_unlock>:
10005e58:	4770      	bx	lr
10005e5a:	46c0      	nop			; (mov r8, r8)

10005e5c <_sbrk_r>:
10005e5c:	2300      	movs	r3, #0
10005e5e:	b570      	push	{r4, r5, r6, lr}
10005e60:	4c06      	ldr	r4, [pc, #24]	; (10005e7c <_sbrk_r+0x20>)
10005e62:	0005      	movs	r5, r0
10005e64:	0008      	movs	r0, r1
10005e66:	6023      	str	r3, [r4, #0]
10005e68:	f7fb fdac 	bl	100019c4 <_sbrk>
10005e6c:	1c43      	adds	r3, r0, #1
10005e6e:	d000      	beq.n	10005e72 <_sbrk_r+0x16>
10005e70:	bd70      	pop	{r4, r5, r6, pc}
10005e72:	6823      	ldr	r3, [r4, #0]
10005e74:	2b00      	cmp	r3, #0
10005e76:	d0fb      	beq.n	10005e70 <_sbrk_r+0x14>
10005e78:	602b      	str	r3, [r5, #0]
10005e7a:	e7f9      	b.n	10005e70 <_sbrk_r+0x14>
10005e7c:	20003a4c 	.word	0x20003a4c

10005e80 <strlen>:
10005e80:	b510      	push	{r4, lr}
10005e82:	0783      	lsls	r3, r0, #30
10005e84:	d025      	beq.n	10005ed2 <strlen+0x52>
10005e86:	7803      	ldrb	r3, [r0, #0]
10005e88:	2b00      	cmp	r3, #0
10005e8a:	d024      	beq.n	10005ed6 <strlen+0x56>
10005e8c:	0003      	movs	r3, r0
10005e8e:	2103      	movs	r1, #3
10005e90:	e002      	b.n	10005e98 <strlen+0x18>
10005e92:	781a      	ldrb	r2, [r3, #0]
10005e94:	2a00      	cmp	r2, #0
10005e96:	d01a      	beq.n	10005ece <strlen+0x4e>
10005e98:	3301      	adds	r3, #1
10005e9a:	420b      	tst	r3, r1
10005e9c:	d1f9      	bne.n	10005e92 <strlen+0x12>
10005e9e:	6819      	ldr	r1, [r3, #0]
10005ea0:	4a0e      	ldr	r2, [pc, #56]	; (10005edc <strlen+0x5c>)
10005ea2:	4c0f      	ldr	r4, [pc, #60]	; (10005ee0 <strlen+0x60>)
10005ea4:	188a      	adds	r2, r1, r2
10005ea6:	438a      	bics	r2, r1
10005ea8:	4222      	tst	r2, r4
10005eaa:	d106      	bne.n	10005eba <strlen+0x3a>
10005eac:	3304      	adds	r3, #4
10005eae:	6819      	ldr	r1, [r3, #0]
10005eb0:	4a0a      	ldr	r2, [pc, #40]	; (10005edc <strlen+0x5c>)
10005eb2:	188a      	adds	r2, r1, r2
10005eb4:	438a      	bics	r2, r1
10005eb6:	4222      	tst	r2, r4
10005eb8:	d0f8      	beq.n	10005eac <strlen+0x2c>
10005eba:	001a      	movs	r2, r3
10005ebc:	781b      	ldrb	r3, [r3, #0]
10005ebe:	2b00      	cmp	r3, #0
10005ec0:	d003      	beq.n	10005eca <strlen+0x4a>
10005ec2:	3201      	adds	r2, #1
10005ec4:	7811      	ldrb	r1, [r2, #0]
10005ec6:	2900      	cmp	r1, #0
10005ec8:	d1fb      	bne.n	10005ec2 <strlen+0x42>
10005eca:	1a10      	subs	r0, r2, r0
10005ecc:	bd10      	pop	{r4, pc}
10005ece:	1a18      	subs	r0, r3, r0
10005ed0:	e7fc      	b.n	10005ecc <strlen+0x4c>
10005ed2:	0003      	movs	r3, r0
10005ed4:	e7e3      	b.n	10005e9e <strlen+0x1e>
10005ed6:	2000      	movs	r0, #0
10005ed8:	e7f8      	b.n	10005ecc <strlen+0x4c>
10005eda:	46c0      	nop			; (mov r8, r8)
10005edc:	fefefeff 	.word	0xfefefeff
10005ee0:	80808080 	.word	0x80808080

10005ee4 <__swbuf_r>:
10005ee4:	b5f8      	push	{r3, r4, r5, r6, r7, lr}
10005ee6:	0006      	movs	r6, r0
10005ee8:	000d      	movs	r5, r1
10005eea:	0014      	movs	r4, r2
10005eec:	2800      	cmp	r0, #0
10005eee:	d002      	beq.n	10005ef6 <__swbuf_r+0x12>
10005ef0:	6b83      	ldr	r3, [r0, #56]	; 0x38
10005ef2:	2b00      	cmp	r3, #0
10005ef4:	d04e      	beq.n	10005f94 <__swbuf_r+0xb0>
10005ef6:	69a3      	ldr	r3, [r4, #24]
10005ef8:	60a3      	str	r3, [r4, #8]
10005efa:	230c      	movs	r3, #12
10005efc:	5ee0      	ldrsh	r0, [r4, r3]
10005efe:	b281      	uxth	r1, r0
10005f00:	070b      	lsls	r3, r1, #28
10005f02:	d53c      	bpl.n	10005f7e <__swbuf_r+0x9a>
10005f04:	6923      	ldr	r3, [r4, #16]
10005f06:	2b00      	cmp	r3, #0
10005f08:	d039      	beq.n	10005f7e <__swbuf_r+0x9a>
10005f0a:	22ff      	movs	r2, #255	; 0xff
10005f0c:	b2ef      	uxtb	r7, r5
10005f0e:	4015      	ands	r5, r2
10005f10:	2280      	movs	r2, #128	; 0x80
10005f12:	0192      	lsls	r2, r2, #6
10005f14:	4211      	tst	r1, r2
10005f16:	d015      	beq.n	10005f44 <__swbuf_r+0x60>
10005f18:	6822      	ldr	r2, [r4, #0]
10005f1a:	6961      	ldr	r1, [r4, #20]
10005f1c:	1ad3      	subs	r3, r2, r3
10005f1e:	428b      	cmp	r3, r1
10005f20:	da1b      	bge.n	10005f5a <__swbuf_r+0x76>
10005f22:	3301      	adds	r3, #1
10005f24:	68a1      	ldr	r1, [r4, #8]
10005f26:	3901      	subs	r1, #1
10005f28:	60a1      	str	r1, [r4, #8]
10005f2a:	1c51      	adds	r1, r2, #1
10005f2c:	6021      	str	r1, [r4, #0]
10005f2e:	7017      	strb	r7, [r2, #0]
10005f30:	6962      	ldr	r2, [r4, #20]
10005f32:	429a      	cmp	r2, r3
10005f34:	d01a      	beq.n	10005f6c <__swbuf_r+0x88>
10005f36:	89a3      	ldrh	r3, [r4, #12]
10005f38:	07db      	lsls	r3, r3, #31
10005f3a:	d501      	bpl.n	10005f40 <__swbuf_r+0x5c>
10005f3c:	2d0a      	cmp	r5, #10
10005f3e:	d015      	beq.n	10005f6c <__swbuf_r+0x88>
10005f40:	0028      	movs	r0, r5
10005f42:	bdf8      	pop	{r3, r4, r5, r6, r7, pc}
10005f44:	4302      	orrs	r2, r0
10005f46:	6e61      	ldr	r1, [r4, #100]	; 0x64
10005f48:	81a2      	strh	r2, [r4, #12]
10005f4a:	4a14      	ldr	r2, [pc, #80]	; (10005f9c <__swbuf_r+0xb8>)
10005f4c:	400a      	ands	r2, r1
10005f4e:	6662      	str	r2, [r4, #100]	; 0x64
10005f50:	6961      	ldr	r1, [r4, #20]
10005f52:	6822      	ldr	r2, [r4, #0]
10005f54:	1ad3      	subs	r3, r2, r3
10005f56:	428b      	cmp	r3, r1
10005f58:	dbe3      	blt.n	10005f22 <__swbuf_r+0x3e>
10005f5a:	0021      	movs	r1, r4
10005f5c:	0030      	movs	r0, r6
10005f5e:	f000 f93d 	bl	100061dc <_fflush_r>
10005f62:	2800      	cmp	r0, #0
10005f64:	d108      	bne.n	10005f78 <__swbuf_r+0x94>
10005f66:	6822      	ldr	r2, [r4, #0]
10005f68:	2301      	movs	r3, #1
10005f6a:	e7db      	b.n	10005f24 <__swbuf_r+0x40>
10005f6c:	0021      	movs	r1, r4
10005f6e:	0030      	movs	r0, r6
10005f70:	f000 f934 	bl	100061dc <_fflush_r>
10005f74:	2800      	cmp	r0, #0
10005f76:	d0e3      	beq.n	10005f40 <__swbuf_r+0x5c>
10005f78:	2501      	movs	r5, #1
10005f7a:	426d      	negs	r5, r5
10005f7c:	e7e0      	b.n	10005f40 <__swbuf_r+0x5c>
10005f7e:	0021      	movs	r1, r4
10005f80:	0030      	movs	r0, r6
10005f82:	f000 f819 	bl	10005fb8 <__swsetup_r>
10005f86:	2800      	cmp	r0, #0
10005f88:	d1f6      	bne.n	10005f78 <__swbuf_r+0x94>
10005f8a:	230c      	movs	r3, #12
10005f8c:	5ee0      	ldrsh	r0, [r4, r3]
10005f8e:	6923      	ldr	r3, [r4, #16]
10005f90:	b281      	uxth	r1, r0
10005f92:	e7ba      	b.n	10005f0a <__swbuf_r+0x26>
10005f94:	f000 fa3a 	bl	1000640c <__sinit>
10005f98:	e7ad      	b.n	10005ef6 <__swbuf_r+0x12>
10005f9a:	46c0      	nop			; (mov r8, r8)
10005f9c:	ffffdfff 	.word	0xffffdfff

10005fa0 <__swbuf>:
10005fa0:	b510      	push	{r4, lr}
10005fa2:	4b04      	ldr	r3, [pc, #16]	; (10005fb4 <__swbuf+0x14>)
10005fa4:	000a      	movs	r2, r1
10005fa6:	681b      	ldr	r3, [r3, #0]
10005fa8:	0001      	movs	r1, r0
10005faa:	0018      	movs	r0, r3
10005fac:	f7ff ff9a 	bl	10005ee4 <__swbuf_r>
10005fb0:	bd10      	pop	{r4, pc}
10005fb2:	46c0      	nop			; (mov r8, r8)
10005fb4:	20002460 	.word	0x20002460

10005fb8 <__swsetup_r>:
10005fb8:	4b33      	ldr	r3, [pc, #204]	; (10006088 <__swsetup_r+0xd0>)
10005fba:	b570      	push	{r4, r5, r6, lr}
10005fbc:	0005      	movs	r5, r0
10005fbe:	6818      	ldr	r0, [r3, #0]
10005fc0:	000c      	movs	r4, r1
10005fc2:	2800      	cmp	r0, #0
10005fc4:	d002      	beq.n	10005fcc <__swsetup_r+0x14>
10005fc6:	6b83      	ldr	r3, [r0, #56]	; 0x38
10005fc8:	2b00      	cmp	r3, #0
10005fca:	d03c      	beq.n	10006046 <__swsetup_r+0x8e>
10005fcc:	230c      	movs	r3, #12
10005fce:	5ee2      	ldrsh	r2, [r4, r3]
10005fd0:	b293      	uxth	r3, r2
10005fd2:	0719      	lsls	r1, r3, #28
10005fd4:	d50d      	bpl.n	10005ff2 <__swsetup_r+0x3a>
10005fd6:	6921      	ldr	r1, [r4, #16]
10005fd8:	2900      	cmp	r1, #0
10005fda:	d015      	beq.n	10006008 <__swsetup_r+0x50>
10005fdc:	07da      	lsls	r2, r3, #31
10005fde:	d521      	bpl.n	10006024 <__swsetup_r+0x6c>
10005fe0:	2300      	movs	r3, #0
10005fe2:	60a3      	str	r3, [r4, #8]
10005fe4:	6963      	ldr	r3, [r4, #20]
10005fe6:	2000      	movs	r0, #0
10005fe8:	425b      	negs	r3, r3
10005fea:	61a3      	str	r3, [r4, #24]
10005fec:	2900      	cmp	r1, #0
10005fee:	d021      	beq.n	10006034 <__swsetup_r+0x7c>
10005ff0:	bd70      	pop	{r4, r5, r6, pc}
10005ff2:	06d9      	lsls	r1, r3, #27
10005ff4:	d53f      	bpl.n	10006076 <__swsetup_r+0xbe>
10005ff6:	075b      	lsls	r3, r3, #29
10005ff8:	d428      	bmi.n	1000604c <__swsetup_r+0x94>
10005ffa:	6921      	ldr	r1, [r4, #16]
10005ffc:	2308      	movs	r3, #8
10005ffe:	4313      	orrs	r3, r2
10006000:	81a3      	strh	r3, [r4, #12]
10006002:	b29b      	uxth	r3, r3
10006004:	2900      	cmp	r1, #0
10006006:	d1e9      	bne.n	10005fdc <__swsetup_r+0x24>
10006008:	22a0      	movs	r2, #160	; 0xa0
1000600a:	2080      	movs	r0, #128	; 0x80
1000600c:	0092      	lsls	r2, r2, #2
1000600e:	0080      	lsls	r0, r0, #2
10006010:	401a      	ands	r2, r3
10006012:	4282      	cmp	r2, r0
10006014:	d0e2      	beq.n	10005fdc <__swsetup_r+0x24>
10006016:	0021      	movs	r1, r4
10006018:	0028      	movs	r0, r5
1000601a:	f000 fbc5 	bl	100067a8 <__smakebuf_r>
1000601e:	89a3      	ldrh	r3, [r4, #12]
10006020:	6921      	ldr	r1, [r4, #16]
10006022:	e7db      	b.n	10005fdc <__swsetup_r+0x24>
10006024:	2200      	movs	r2, #0
10006026:	079b      	lsls	r3, r3, #30
10006028:	d400      	bmi.n	1000602c <__swsetup_r+0x74>
1000602a:	6962      	ldr	r2, [r4, #20]
1000602c:	60a2      	str	r2, [r4, #8]
1000602e:	2000      	movs	r0, #0
10006030:	2900      	cmp	r1, #0
10006032:	d1dd      	bne.n	10005ff0 <__swsetup_r+0x38>
10006034:	220c      	movs	r2, #12
10006036:	5ea3      	ldrsh	r3, [r4, r2]
10006038:	061a      	lsls	r2, r3, #24
1000603a:	d5d9      	bpl.n	10005ff0 <__swsetup_r+0x38>
1000603c:	2240      	movs	r2, #64	; 0x40
1000603e:	4313      	orrs	r3, r2
10006040:	81a3      	strh	r3, [r4, #12]
10006042:	3801      	subs	r0, #1
10006044:	e7d4      	b.n	10005ff0 <__swsetup_r+0x38>
10006046:	f000 f9e1 	bl	1000640c <__sinit>
1000604a:	e7bf      	b.n	10005fcc <__swsetup_r+0x14>
1000604c:	6b21      	ldr	r1, [r4, #48]	; 0x30
1000604e:	2900      	cmp	r1, #0
10006050:	d00a      	beq.n	10006068 <__swsetup_r+0xb0>
10006052:	0023      	movs	r3, r4
10006054:	3340      	adds	r3, #64	; 0x40
10006056:	4299      	cmp	r1, r3
10006058:	d004      	beq.n	10006064 <__swsetup_r+0xac>
1000605a:	0028      	movs	r0, r5
1000605c:	f000 fa4e 	bl	100064fc <_free_r>
10006060:	230c      	movs	r3, #12
10006062:	5ee2      	ldrsh	r2, [r4, r3]
10006064:	2300      	movs	r3, #0
10006066:	6323      	str	r3, [r4, #48]	; 0x30
10006068:	2324      	movs	r3, #36	; 0x24
1000606a:	439a      	bics	r2, r3
1000606c:	2300      	movs	r3, #0
1000606e:	6921      	ldr	r1, [r4, #16]
10006070:	6063      	str	r3, [r4, #4]
10006072:	6021      	str	r1, [r4, #0]
10006074:	e7c2      	b.n	10005ffc <__swsetup_r+0x44>
10006076:	2309      	movs	r3, #9
10006078:	602b      	str	r3, [r5, #0]
1000607a:	2340      	movs	r3, #64	; 0x40
1000607c:	2001      	movs	r0, #1
1000607e:	431a      	orrs	r2, r3
10006080:	81a2      	strh	r2, [r4, #12]
10006082:	4240      	negs	r0, r0
10006084:	e7b4      	b.n	10005ff0 <__swsetup_r+0x38>
10006086:	46c0      	nop			; (mov r8, r8)
10006088:	20002460 	.word	0x20002460

1000608c <__sflush_r>:
1000608c:	b5f0      	push	{r4, r5, r6, r7, lr}
1000608e:	46c6      	mov	lr, r8
10006090:	b500      	push	{lr}
10006092:	230c      	movs	r3, #12
10006094:	5eca      	ldrsh	r2, [r1, r3]
10006096:	4680      	mov	r8, r0
10006098:	b293      	uxth	r3, r2
1000609a:	000c      	movs	r4, r1
1000609c:	0719      	lsls	r1, r3, #28
1000609e:	d440      	bmi.n	10006122 <__sflush_r+0x96>
100060a0:	2380      	movs	r3, #128	; 0x80
100060a2:	011b      	lsls	r3, r3, #4
100060a4:	4313      	orrs	r3, r2
100060a6:	6862      	ldr	r2, [r4, #4]
100060a8:	81a3      	strh	r3, [r4, #12]
100060aa:	2a00      	cmp	r2, #0
100060ac:	dc00      	bgt.n	100060b0 <__sflush_r+0x24>
100060ae:	e070      	b.n	10006192 <__sflush_r+0x106>
100060b0:	6aa6      	ldr	r6, [r4, #40]	; 0x28
100060b2:	2e00      	cmp	r6, #0
100060b4:	d031      	beq.n	1000611a <__sflush_r+0x8e>
100060b6:	4642      	mov	r2, r8
100060b8:	4641      	mov	r1, r8
100060ba:	6815      	ldr	r5, [r2, #0]
100060bc:	2200      	movs	r2, #0
100060be:	b29b      	uxth	r3, r3
100060c0:	600a      	str	r2, [r1, #0]
100060c2:	04da      	lsls	r2, r3, #19
100060c4:	d400      	bmi.n	100060c8 <__sflush_r+0x3c>
100060c6:	e069      	b.n	1000619c <__sflush_r+0x110>
100060c8:	6d22      	ldr	r2, [r4, #80]	; 0x50
100060ca:	075b      	lsls	r3, r3, #29
100060cc:	d506      	bpl.n	100060dc <__sflush_r+0x50>
100060ce:	6863      	ldr	r3, [r4, #4]
100060d0:	1ad2      	subs	r2, r2, r3
100060d2:	6b23      	ldr	r3, [r4, #48]	; 0x30
100060d4:	2b00      	cmp	r3, #0
100060d6:	d001      	beq.n	100060dc <__sflush_r+0x50>
100060d8:	6be3      	ldr	r3, [r4, #60]	; 0x3c
100060da:	1ad2      	subs	r2, r2, r3
100060dc:	2300      	movs	r3, #0
100060de:	69e1      	ldr	r1, [r4, #28]
100060e0:	4640      	mov	r0, r8
100060e2:	47b0      	blx	r6
100060e4:	1c43      	adds	r3, r0, #1
100060e6:	d03d      	beq.n	10006164 <__sflush_r+0xd8>
100060e8:	89a3      	ldrh	r3, [r4, #12]
100060ea:	4a3a      	ldr	r2, [pc, #232]	; (100061d4 <__sflush_r+0x148>)
100060ec:	4013      	ands	r3, r2
100060ee:	2200      	movs	r2, #0
100060f0:	6062      	str	r2, [r4, #4]
100060f2:	6922      	ldr	r2, [r4, #16]
100060f4:	b21b      	sxth	r3, r3
100060f6:	81a3      	strh	r3, [r4, #12]
100060f8:	6022      	str	r2, [r4, #0]
100060fa:	04db      	lsls	r3, r3, #19
100060fc:	d447      	bmi.n	1000618e <__sflush_r+0x102>
100060fe:	4643      	mov	r3, r8
10006100:	6b21      	ldr	r1, [r4, #48]	; 0x30
10006102:	601d      	str	r5, [r3, #0]
10006104:	2900      	cmp	r1, #0
10006106:	d008      	beq.n	1000611a <__sflush_r+0x8e>
10006108:	0023      	movs	r3, r4
1000610a:	3340      	adds	r3, #64	; 0x40
1000610c:	4299      	cmp	r1, r3
1000610e:	d002      	beq.n	10006116 <__sflush_r+0x8a>
10006110:	4640      	mov	r0, r8
10006112:	f000 f9f3 	bl	100064fc <_free_r>
10006116:	2300      	movs	r3, #0
10006118:	6323      	str	r3, [r4, #48]	; 0x30
1000611a:	2000      	movs	r0, #0
1000611c:	bc04      	pop	{r2}
1000611e:	4690      	mov	r8, r2
10006120:	bdf0      	pop	{r4, r5, r6, r7, pc}
10006122:	6926      	ldr	r6, [r4, #16]
10006124:	2e00      	cmp	r6, #0
10006126:	d0f8      	beq.n	1000611a <__sflush_r+0x8e>
10006128:	6822      	ldr	r2, [r4, #0]
1000612a:	6026      	str	r6, [r4, #0]
1000612c:	1b95      	subs	r5, r2, r6
1000612e:	2200      	movs	r2, #0
10006130:	079b      	lsls	r3, r3, #30
10006132:	d100      	bne.n	10006136 <__sflush_r+0xaa>
10006134:	6962      	ldr	r2, [r4, #20]
10006136:	60a2      	str	r2, [r4, #8]
10006138:	2d00      	cmp	r5, #0
1000613a:	dc04      	bgt.n	10006146 <__sflush_r+0xba>
1000613c:	e7ed      	b.n	1000611a <__sflush_r+0x8e>
1000613e:	1836      	adds	r6, r6, r0
10006140:	1a2d      	subs	r5, r5, r0
10006142:	2d00      	cmp	r5, #0
10006144:	dde9      	ble.n	1000611a <__sflush_r+0x8e>
10006146:	002b      	movs	r3, r5
10006148:	0032      	movs	r2, r6
1000614a:	69e1      	ldr	r1, [r4, #28]
1000614c:	4640      	mov	r0, r8
1000614e:	6a67      	ldr	r7, [r4, #36]	; 0x24
10006150:	47b8      	blx	r7
10006152:	2800      	cmp	r0, #0
10006154:	dcf3      	bgt.n	1000613e <__sflush_r+0xb2>
10006156:	2240      	movs	r2, #64	; 0x40
10006158:	2001      	movs	r0, #1
1000615a:	89a3      	ldrh	r3, [r4, #12]
1000615c:	4240      	negs	r0, r0
1000615e:	4313      	orrs	r3, r2
10006160:	81a3      	strh	r3, [r4, #12]
10006162:	e7db      	b.n	1000611c <__sflush_r+0x90>
10006164:	4643      	mov	r3, r8
10006166:	6819      	ldr	r1, [r3, #0]
10006168:	291d      	cmp	r1, #29
1000616a:	d8f4      	bhi.n	10006156 <__sflush_r+0xca>
1000616c:	4b1a      	ldr	r3, [pc, #104]	; (100061d8 <__sflush_r+0x14c>)
1000616e:	2201      	movs	r2, #1
10006170:	40cb      	lsrs	r3, r1
10006172:	439a      	bics	r2, r3
10006174:	d1ef      	bne.n	10006156 <__sflush_r+0xca>
10006176:	89a3      	ldrh	r3, [r4, #12]
10006178:	4e16      	ldr	r6, [pc, #88]	; (100061d4 <__sflush_r+0x148>)
1000617a:	6062      	str	r2, [r4, #4]
1000617c:	4033      	ands	r3, r6
1000617e:	6922      	ldr	r2, [r4, #16]
10006180:	b21b      	sxth	r3, r3
10006182:	81a3      	strh	r3, [r4, #12]
10006184:	6022      	str	r2, [r4, #0]
10006186:	04db      	lsls	r3, r3, #19
10006188:	d5b9      	bpl.n	100060fe <__sflush_r+0x72>
1000618a:	2900      	cmp	r1, #0
1000618c:	d1b7      	bne.n	100060fe <__sflush_r+0x72>
1000618e:	6520      	str	r0, [r4, #80]	; 0x50
10006190:	e7b5      	b.n	100060fe <__sflush_r+0x72>
10006192:	6be2      	ldr	r2, [r4, #60]	; 0x3c
10006194:	2a00      	cmp	r2, #0
10006196:	dd00      	ble.n	1000619a <__sflush_r+0x10e>
10006198:	e78a      	b.n	100060b0 <__sflush_r+0x24>
1000619a:	e7be      	b.n	1000611a <__sflush_r+0x8e>
1000619c:	2200      	movs	r2, #0
1000619e:	2301      	movs	r3, #1
100061a0:	69e1      	ldr	r1, [r4, #28]
100061a2:	4640      	mov	r0, r8
100061a4:	47b0      	blx	r6
100061a6:	0002      	movs	r2, r0
100061a8:	1c43      	adds	r3, r0, #1
100061aa:	d002      	beq.n	100061b2 <__sflush_r+0x126>
100061ac:	89a3      	ldrh	r3, [r4, #12]
100061ae:	6aa6      	ldr	r6, [r4, #40]	; 0x28
100061b0:	e78b      	b.n	100060ca <__sflush_r+0x3e>
100061b2:	4643      	mov	r3, r8
100061b4:	681b      	ldr	r3, [r3, #0]
100061b6:	2b00      	cmp	r3, #0
100061b8:	d0f8      	beq.n	100061ac <__sflush_r+0x120>
100061ba:	2b1d      	cmp	r3, #29
100061bc:	d001      	beq.n	100061c2 <__sflush_r+0x136>
100061be:	2b16      	cmp	r3, #22
100061c0:	d103      	bne.n	100061ca <__sflush_r+0x13e>
100061c2:	4643      	mov	r3, r8
100061c4:	2000      	movs	r0, #0
100061c6:	601d      	str	r5, [r3, #0]
100061c8:	e7a8      	b.n	1000611c <__sflush_r+0x90>
100061ca:	2140      	movs	r1, #64	; 0x40
100061cc:	89a3      	ldrh	r3, [r4, #12]
100061ce:	430b      	orrs	r3, r1
100061d0:	81a3      	strh	r3, [r4, #12]
100061d2:	e7a3      	b.n	1000611c <__sflush_r+0x90>
100061d4:	fffff7ff 	.word	0xfffff7ff
100061d8:	20400001 	.word	0x20400001

100061dc <_fflush_r>:
100061dc:	b570      	push	{r4, r5, r6, lr}
100061de:	0004      	movs	r4, r0
100061e0:	000d      	movs	r5, r1
100061e2:	2800      	cmp	r0, #0
100061e4:	d002      	beq.n	100061ec <_fflush_r+0x10>
100061e6:	6b83      	ldr	r3, [r0, #56]	; 0x38
100061e8:	2b00      	cmp	r3, #0
100061ea:	d009      	beq.n	10006200 <_fflush_r+0x24>
100061ec:	220c      	movs	r2, #12
100061ee:	5eab      	ldrsh	r3, [r5, r2]
100061f0:	2000      	movs	r0, #0
100061f2:	2b00      	cmp	r3, #0
100061f4:	d003      	beq.n	100061fe <_fflush_r+0x22>
100061f6:	0029      	movs	r1, r5
100061f8:	0020      	movs	r0, r4
100061fa:	f7ff ff47 	bl	1000608c <__sflush_r>
100061fe:	bd70      	pop	{r4, r5, r6, pc}
10006200:	f000 f904 	bl	1000640c <__sinit>
10006204:	e7f2      	b.n	100061ec <_fflush_r+0x10>
10006206:	46c0      	nop			; (mov r8, r8)

10006208 <fflush>:
10006208:	b510      	push	{r4, lr}
1000620a:	1e01      	subs	r1, r0, #0
1000620c:	d004      	beq.n	10006218 <fflush+0x10>
1000620e:	4b05      	ldr	r3, [pc, #20]	; (10006224 <fflush+0x1c>)
10006210:	6818      	ldr	r0, [r3, #0]
10006212:	f7ff ffe3 	bl	100061dc <_fflush_r>
10006216:	bd10      	pop	{r4, pc}
10006218:	4b03      	ldr	r3, [pc, #12]	; (10006228 <fflush+0x20>)
1000621a:	4904      	ldr	r1, [pc, #16]	; (1000622c <fflush+0x24>)
1000621c:	6818      	ldr	r0, [r3, #0]
1000621e:	f000 fa6d 	bl	100066fc <_fwalk_reent>
10006222:	e7f8      	b.n	10006216 <fflush+0xe>
10006224:	20002460 	.word	0x20002460
10006228:	10006ebc 	.word	0x10006ebc
1000622c:	100061dd 	.word	0x100061dd

10006230 <__fp_unlock>:
10006230:	2000      	movs	r0, #0
10006232:	4770      	bx	lr

10006234 <_cleanup_r>:
10006234:	b510      	push	{r4, lr}
10006236:	4902      	ldr	r1, [pc, #8]	; (10006240 <_cleanup_r+0xc>)
10006238:	f000 fa60 	bl	100066fc <_fwalk_reent>
1000623c:	bd10      	pop	{r4, pc}
1000623e:	46c0      	nop			; (mov r8, r8)
10006240:	1000691d 	.word	0x1000691d

10006244 <__sinit.part.1>:
10006244:	b5f8      	push	{r3, r4, r5, r6, r7, lr}
10006246:	46de      	mov	lr, fp
10006248:	4657      	mov	r7, sl
1000624a:	464e      	mov	r6, r9
1000624c:	4645      	mov	r5, r8
1000624e:	4b34      	ldr	r3, [pc, #208]	; (10006320 <__sinit.part.1+0xdc>)
10006250:	b5e0      	push	{r5, r6, r7, lr}
10006252:	63c3      	str	r3, [r0, #60]	; 0x3c
10006254:	23b8      	movs	r3, #184	; 0xb8
10006256:	2400      	movs	r4, #0
10006258:	2203      	movs	r2, #3
1000625a:	009b      	lsls	r3, r3, #2
1000625c:	50c4      	str	r4, [r0, r3]
1000625e:	3304      	adds	r3, #4
10006260:	6845      	ldr	r5, [r0, #4]
10006262:	50c2      	str	r2, [r0, r3]
10006264:	3308      	adds	r3, #8
10006266:	18c2      	adds	r2, r0, r3
10006268:	3b04      	subs	r3, #4
1000626a:	50c2      	str	r2, [r0, r3]
1000626c:	0006      	movs	r6, r0
1000626e:	2304      	movs	r3, #4
10006270:	0028      	movs	r0, r5
10006272:	602c      	str	r4, [r5, #0]
10006274:	606c      	str	r4, [r5, #4]
10006276:	60ac      	str	r4, [r5, #8]
10006278:	81ab      	strh	r3, [r5, #12]
1000627a:	666c      	str	r4, [r5, #100]	; 0x64
1000627c:	81ec      	strh	r4, [r5, #14]
1000627e:	612c      	str	r4, [r5, #16]
10006280:	616c      	str	r4, [r5, #20]
10006282:	61ac      	str	r4, [r5, #24]
10006284:	2208      	movs	r2, #8
10006286:	2100      	movs	r1, #0
10006288:	305c      	adds	r0, #92	; 0x5c
1000628a:	f7fc fa95 	bl	100027b8 <__wrap_memset>
1000628e:	4b25      	ldr	r3, [pc, #148]	; (10006324 <__sinit.part.1+0xe0>)
10006290:	4f25      	ldr	r7, [pc, #148]	; (10006328 <__sinit.part.1+0xe4>)
10006292:	469a      	mov	sl, r3
10006294:	622b      	str	r3, [r5, #32]
10006296:	4b25      	ldr	r3, [pc, #148]	; (1000632c <__sinit.part.1+0xe8>)
10006298:	62ef      	str	r7, [r5, #44]	; 0x2c
1000629a:	4699      	mov	r9, r3
1000629c:	626b      	str	r3, [r5, #36]	; 0x24
1000629e:	4b24      	ldr	r3, [pc, #144]	; (10006330 <__sinit.part.1+0xec>)
100062a0:	61ed      	str	r5, [r5, #28]
100062a2:	62ab      	str	r3, [r5, #40]	; 0x28
100062a4:	68b5      	ldr	r5, [r6, #8]
100062a6:	4698      	mov	r8, r3
100062a8:	2309      	movs	r3, #9
100062aa:	0028      	movs	r0, r5
100062ac:	81ab      	strh	r3, [r5, #12]
100062ae:	3b08      	subs	r3, #8
100062b0:	602c      	str	r4, [r5, #0]
100062b2:	606c      	str	r4, [r5, #4]
100062b4:	60ac      	str	r4, [r5, #8]
100062b6:	666c      	str	r4, [r5, #100]	; 0x64
100062b8:	81eb      	strh	r3, [r5, #14]
100062ba:	612c      	str	r4, [r5, #16]
100062bc:	616c      	str	r4, [r5, #20]
100062be:	61ac      	str	r4, [r5, #24]
100062c0:	2208      	movs	r2, #8
100062c2:	2100      	movs	r1, #0
100062c4:	305c      	adds	r0, #92	; 0x5c
100062c6:	469b      	mov	fp, r3
100062c8:	f7fc fa76 	bl	100027b8 <__wrap_memset>
100062cc:	4653      	mov	r3, sl
100062ce:	622b      	str	r3, [r5, #32]
100062d0:	464b      	mov	r3, r9
100062d2:	626b      	str	r3, [r5, #36]	; 0x24
100062d4:	4643      	mov	r3, r8
100062d6:	62ef      	str	r7, [r5, #44]	; 0x2c
100062d8:	62ab      	str	r3, [r5, #40]	; 0x28
100062da:	61ed      	str	r5, [r5, #28]
100062dc:	68f5      	ldr	r5, [r6, #12]
100062de:	2312      	movs	r3, #18
100062e0:	0028      	movs	r0, r5
100062e2:	81ab      	strh	r3, [r5, #12]
100062e4:	3b10      	subs	r3, #16
100062e6:	81eb      	strh	r3, [r5, #14]
100062e8:	602c      	str	r4, [r5, #0]
100062ea:	606c      	str	r4, [r5, #4]
100062ec:	60ac      	str	r4, [r5, #8]
100062ee:	666c      	str	r4, [r5, #100]	; 0x64
100062f0:	612c      	str	r4, [r5, #16]
100062f2:	616c      	str	r4, [r5, #20]
100062f4:	61ac      	str	r4, [r5, #24]
100062f6:	2208      	movs	r2, #8
100062f8:	2100      	movs	r1, #0
100062fa:	305c      	adds	r0, #92	; 0x5c
100062fc:	f7fc fa5c 	bl	100027b8 <__wrap_memset>
10006300:	4653      	mov	r3, sl
10006302:	622b      	str	r3, [r5, #32]
10006304:	464b      	mov	r3, r9
10006306:	626b      	str	r3, [r5, #36]	; 0x24
10006308:	4643      	mov	r3, r8
1000630a:	62ab      	str	r3, [r5, #40]	; 0x28
1000630c:	465b      	mov	r3, fp
1000630e:	62ef      	str	r7, [r5, #44]	; 0x2c
10006310:	61ed      	str	r5, [r5, #28]
10006312:	63b3      	str	r3, [r6, #56]	; 0x38
10006314:	bc3c      	pop	{r2, r3, r4, r5}
10006316:	4690      	mov	r8, r2
10006318:	4699      	mov	r9, r3
1000631a:	46a2      	mov	sl, r4
1000631c:	46ab      	mov	fp, r5
1000631e:	bdf8      	pop	{r3, r4, r5, r6, r7, pc}
10006320:	10006235 	.word	0x10006235
10006324:	10006831 	.word	0x10006831
10006328:	100068c5 	.word	0x100068c5
1000632c:	1000685d 	.word	0x1000685d
10006330:	10006899 	.word	0x10006899

10006334 <__fp_lock>:
10006334:	2000      	movs	r0, #0
10006336:	4770      	bx	lr

10006338 <__sfmoreglue>:
10006338:	b570      	push	{r4, r5, r6, lr}
1000633a:	2468      	movs	r4, #104	; 0x68
1000633c:	1e4a      	subs	r2, r1, #1
1000633e:	4354      	muls	r4, r2
10006340:	000e      	movs	r6, r1
10006342:	0021      	movs	r1, r4
10006344:	3174      	adds	r1, #116	; 0x74
10006346:	f7ff fad9 	bl	100058fc <_malloc_r>
1000634a:	1e05      	subs	r5, r0, #0
1000634c:	d009      	beq.n	10006362 <__sfmoreglue+0x2a>
1000634e:	2300      	movs	r3, #0
10006350:	0022      	movs	r2, r4
10006352:	6003      	str	r3, [r0, #0]
10006354:	6046      	str	r6, [r0, #4]
10006356:	300c      	adds	r0, #12
10006358:	60a8      	str	r0, [r5, #8]
1000635a:	3268      	adds	r2, #104	; 0x68
1000635c:	2100      	movs	r1, #0
1000635e:	f7fc fa2b 	bl	100027b8 <__wrap_memset>
10006362:	0028      	movs	r0, r5
10006364:	bd70      	pop	{r4, r5, r6, pc}
10006366:	46c0      	nop			; (mov r8, r8)

10006368 <__sfp>:
10006368:	4b21      	ldr	r3, [pc, #132]	; (100063f0 <__sfp+0x88>)
1000636a:	b570      	push	{r4, r5, r6, lr}
1000636c:	681d      	ldr	r5, [r3, #0]
1000636e:	0006      	movs	r6, r0
10006370:	6bab      	ldr	r3, [r5, #56]	; 0x38
10006372:	2b00      	cmp	r3, #0
10006374:	d02d      	beq.n	100063d2 <__sfp+0x6a>
10006376:	23b8      	movs	r3, #184	; 0xb8
10006378:	009b      	lsls	r3, r3, #2
1000637a:	469c      	mov	ip, r3
1000637c:	4465      	add	r5, ip
1000637e:	686b      	ldr	r3, [r5, #4]
10006380:	68ac      	ldr	r4, [r5, #8]
10006382:	3b01      	subs	r3, #1
10006384:	d503      	bpl.n	1000638e <__sfp+0x26>
10006386:	e01f      	b.n	100063c8 <__sfp+0x60>
10006388:	3468      	adds	r4, #104	; 0x68
1000638a:	3b01      	subs	r3, #1
1000638c:	d31c      	bcc.n	100063c8 <__sfp+0x60>
1000638e:	210c      	movs	r1, #12
10006390:	5e62      	ldrsh	r2, [r4, r1]
10006392:	2a00      	cmp	r2, #0
10006394:	d1f8      	bne.n	10006388 <__sfp+0x20>
10006396:	2301      	movs	r3, #1
10006398:	2500      	movs	r5, #0
1000639a:	0020      	movs	r0, r4
1000639c:	425b      	negs	r3, r3
1000639e:	81e3      	strh	r3, [r4, #14]
100063a0:	3302      	adds	r3, #2
100063a2:	81a3      	strh	r3, [r4, #12]
100063a4:	6665      	str	r5, [r4, #100]	; 0x64
100063a6:	6025      	str	r5, [r4, #0]
100063a8:	60a5      	str	r5, [r4, #8]
100063aa:	6065      	str	r5, [r4, #4]
100063ac:	6125      	str	r5, [r4, #16]
100063ae:	6165      	str	r5, [r4, #20]
100063b0:	61a5      	str	r5, [r4, #24]
100063b2:	2208      	movs	r2, #8
100063b4:	2100      	movs	r1, #0
100063b6:	305c      	adds	r0, #92	; 0x5c
100063b8:	f7fc f9fe 	bl	100027b8 <__wrap_memset>
100063bc:	6325      	str	r5, [r4, #48]	; 0x30
100063be:	6365      	str	r5, [r4, #52]	; 0x34
100063c0:	6465      	str	r5, [r4, #68]	; 0x44
100063c2:	64a5      	str	r5, [r4, #72]	; 0x48
100063c4:	0020      	movs	r0, r4
100063c6:	bd70      	pop	{r4, r5, r6, pc}
100063c8:	6828      	ldr	r0, [r5, #0]
100063ca:	2800      	cmp	r0, #0
100063cc:	d005      	beq.n	100063da <__sfp+0x72>
100063ce:	0005      	movs	r5, r0
100063d0:	e7d5      	b.n	1000637e <__sfp+0x16>
100063d2:	0028      	movs	r0, r5
100063d4:	f7ff ff36 	bl	10006244 <__sinit.part.1>
100063d8:	e7cd      	b.n	10006376 <__sfp+0xe>
100063da:	2104      	movs	r1, #4
100063dc:	0030      	movs	r0, r6
100063de:	f7ff ffab 	bl	10006338 <__sfmoreglue>
100063e2:	6028      	str	r0, [r5, #0]
100063e4:	2800      	cmp	r0, #0
100063e6:	d1f2      	bne.n	100063ce <__sfp+0x66>
100063e8:	230c      	movs	r3, #12
100063ea:	2400      	movs	r4, #0
100063ec:	6033      	str	r3, [r6, #0]
100063ee:	e7e9      	b.n	100063c4 <__sfp+0x5c>
100063f0:	10006ebc 	.word	0x10006ebc

100063f4 <_cleanup>:
100063f4:	b510      	push	{r4, lr}
100063f6:	4b03      	ldr	r3, [pc, #12]	; (10006404 <_cleanup+0x10>)
100063f8:	4903      	ldr	r1, [pc, #12]	; (10006408 <_cleanup+0x14>)
100063fa:	6818      	ldr	r0, [r3, #0]
100063fc:	f000 f97e 	bl	100066fc <_fwalk_reent>
10006400:	bd10      	pop	{r4, pc}
10006402:	46c0      	nop			; (mov r8, r8)
10006404:	10006ebc 	.word	0x10006ebc
10006408:	1000691d 	.word	0x1000691d

1000640c <__sinit>:
1000640c:	6b83      	ldr	r3, [r0, #56]	; 0x38
1000640e:	b510      	push	{r4, lr}
10006410:	2b00      	cmp	r3, #0
10006412:	d101      	bne.n	10006418 <__sinit+0xc>
10006414:	f7ff ff16 	bl	10006244 <__sinit.part.1>
10006418:	bd10      	pop	{r4, pc}
1000641a:	46c0      	nop			; (mov r8, r8)

1000641c <__sfp_lock_acquire>:
1000641c:	4770      	bx	lr
1000641e:	46c0      	nop			; (mov r8, r8)

10006420 <__sfp_lock_release>:
10006420:	4770      	bx	lr
10006422:	46c0      	nop			; (mov r8, r8)

10006424 <__sinit_lock_acquire>:
10006424:	4770      	bx	lr
10006426:	46c0      	nop			; (mov r8, r8)

10006428 <__sinit_lock_release>:
10006428:	4770      	bx	lr
1000642a:	46c0      	nop			; (mov r8, r8)

1000642c <__fp_lock_all>:
1000642c:	b510      	push	{r4, lr}
1000642e:	4b03      	ldr	r3, [pc, #12]	; (1000643c <__fp_lock_all+0x10>)
10006430:	4903      	ldr	r1, [pc, #12]	; (10006440 <__fp_lock_all+0x14>)
10006432:	6818      	ldr	r0, [r3, #0]
10006434:	f000 f940 	bl	100066b8 <_fwalk>
10006438:	bd10      	pop	{r4, pc}
1000643a:	46c0      	nop			; (mov r8, r8)
1000643c:	20002460 	.word	0x20002460
10006440:	10006335 	.word	0x10006335

10006444 <__fp_unlock_all>:
10006444:	b510      	push	{r4, lr}
10006446:	4b03      	ldr	r3, [pc, #12]	; (10006454 <__fp_unlock_all+0x10>)
10006448:	4903      	ldr	r1, [pc, #12]	; (10006458 <__fp_unlock_all+0x14>)
1000644a:	6818      	ldr	r0, [r3, #0]
1000644c:	f000 f934 	bl	100066b8 <_fwalk>
10006450:	bd10      	pop	{r4, pc}
10006452:	46c0      	nop			; (mov r8, r8)
10006454:	20002460 	.word	0x20002460
10006458:	10006231 	.word	0x10006231

1000645c <_malloc_trim_r>:
1000645c:	b5f8      	push	{r3, r4, r5, r6, r7, lr}
1000645e:	000c      	movs	r4, r1
10006460:	0006      	movs	r6, r0
10006462:	f7ff fcf7 	bl	10005e54 <__malloc_lock>
10006466:	4f20      	ldr	r7, [pc, #128]	; (100064e8 <_malloc_trim_r+0x8c>)
10006468:	68bb      	ldr	r3, [r7, #8]
1000646a:	685d      	ldr	r5, [r3, #4]
1000646c:	2303      	movs	r3, #3
1000646e:	439d      	bics	r5, r3
10006470:	4b1e      	ldr	r3, [pc, #120]	; (100064ec <_malloc_trim_r+0x90>)
10006472:	1b2c      	subs	r4, r5, r4
10006474:	469c      	mov	ip, r3
10006476:	4464      	add	r4, ip
10006478:	0b24      	lsrs	r4, r4, #12
1000647a:	4b1d      	ldr	r3, [pc, #116]	; (100064f0 <_malloc_trim_r+0x94>)
1000647c:	3c01      	subs	r4, #1
1000647e:	0324      	lsls	r4, r4, #12
10006480:	429c      	cmp	r4, r3
10006482:	dd07      	ble.n	10006494 <_malloc_trim_r+0x38>
10006484:	2100      	movs	r1, #0
10006486:	0030      	movs	r0, r6
10006488:	f7ff fce8 	bl	10005e5c <_sbrk_r>
1000648c:	68bb      	ldr	r3, [r7, #8]
1000648e:	195b      	adds	r3, r3, r5
10006490:	4298      	cmp	r0, r3
10006492:	d004      	beq.n	1000649e <_malloc_trim_r+0x42>
10006494:	0030      	movs	r0, r6
10006496:	f7ff fcdf 	bl	10005e58 <__malloc_unlock>
1000649a:	2000      	movs	r0, #0
1000649c:	bdf8      	pop	{r3, r4, r5, r6, r7, pc}
1000649e:	4261      	negs	r1, r4
100064a0:	0030      	movs	r0, r6
100064a2:	f7ff fcdb 	bl	10005e5c <_sbrk_r>
100064a6:	1c43      	adds	r3, r0, #1
100064a8:	d00d      	beq.n	100064c6 <_malloc_trim_r+0x6a>
100064aa:	2201      	movs	r2, #1
100064ac:	68bb      	ldr	r3, [r7, #8]
100064ae:	1b2d      	subs	r5, r5, r4
100064b0:	4315      	orrs	r5, r2
100064b2:	605d      	str	r5, [r3, #4]
100064b4:	4b0f      	ldr	r3, [pc, #60]	; (100064f4 <_malloc_trim_r+0x98>)
100064b6:	0030      	movs	r0, r6
100064b8:	681a      	ldr	r2, [r3, #0]
100064ba:	1b14      	subs	r4, r2, r4
100064bc:	601c      	str	r4, [r3, #0]
100064be:	f7ff fccb 	bl	10005e58 <__malloc_unlock>
100064c2:	2001      	movs	r0, #1
100064c4:	e7ea      	b.n	1000649c <_malloc_trim_r+0x40>
100064c6:	2100      	movs	r1, #0
100064c8:	0030      	movs	r0, r6
100064ca:	f7ff fcc7 	bl	10005e5c <_sbrk_r>
100064ce:	68ba      	ldr	r2, [r7, #8]
100064d0:	1a83      	subs	r3, r0, r2
100064d2:	2b0f      	cmp	r3, #15
100064d4:	ddde      	ble.n	10006494 <_malloc_trim_r+0x38>
100064d6:	4908      	ldr	r1, [pc, #32]	; (100064f8 <_malloc_trim_r+0x9c>)
100064d8:	6809      	ldr	r1, [r1, #0]
100064da:	1a40      	subs	r0, r0, r1
100064dc:	4905      	ldr	r1, [pc, #20]	; (100064f4 <_malloc_trim_r+0x98>)
100064de:	6008      	str	r0, [r1, #0]
100064e0:	2101      	movs	r1, #1
100064e2:	430b      	orrs	r3, r1
100064e4:	6053      	str	r3, [r2, #4]
100064e6:	e7d5      	b.n	10006494 <_malloc_trim_r+0x38>
100064e8:	20002890 	.word	0x20002890
100064ec:	00000fef 	.word	0x00000fef
100064f0:	00000fff 	.word	0x00000fff
100064f4:	20002df0 	.word	0x20002df0
100064f8:	20002c98 	.word	0x20002c98

100064fc <_free_r>:
100064fc:	b5f8      	push	{r3, r4, r5, r6, r7, lr}
100064fe:	0004      	movs	r4, r0
10006500:	1e0d      	subs	r5, r1, #0
10006502:	d03c      	beq.n	1000657e <_free_r+0x82>
10006504:	f7ff fca6 	bl	10005e54 <__malloc_lock>
10006508:	0029      	movs	r1, r5
1000650a:	3908      	subs	r1, #8
1000650c:	6848      	ldr	r0, [r1, #4]
1000650e:	2301      	movs	r3, #1
10006510:	0005      	movs	r5, r0
10006512:	2603      	movs	r6, #3
10006514:	439d      	bics	r5, r3
10006516:	194a      	adds	r2, r1, r5
10006518:	469c      	mov	ip, r3
1000651a:	4f61      	ldr	r7, [pc, #388]	; (100066a0 <_free_r+0x1a4>)
1000651c:	6853      	ldr	r3, [r2, #4]
1000651e:	43b3      	bics	r3, r6
10006520:	68be      	ldr	r6, [r7, #8]
10006522:	42b2      	cmp	r2, r6
10006524:	d056      	beq.n	100065d4 <_free_r+0xd8>
10006526:	4666      	mov	r6, ip
10006528:	6053      	str	r3, [r2, #4]
1000652a:	4206      	tst	r6, r0
1000652c:	d10a      	bne.n	10006544 <_free_r+0x48>
1000652e:	003e      	movs	r6, r7
10006530:	6808      	ldr	r0, [r1, #0]
10006532:	3608      	adds	r6, #8
10006534:	1a09      	subs	r1, r1, r0
10006536:	182d      	adds	r5, r5, r0
10006538:	6888      	ldr	r0, [r1, #8]
1000653a:	42b0      	cmp	r0, r6
1000653c:	d065      	beq.n	1000660a <_free_r+0x10e>
1000653e:	68ce      	ldr	r6, [r1, #12]
10006540:	60c6      	str	r6, [r0, #12]
10006542:	60b0      	str	r0, [r6, #8]
10006544:	2001      	movs	r0, #1
10006546:	18d6      	adds	r6, r2, r3
10006548:	6876      	ldr	r6, [r6, #4]
1000654a:	4206      	tst	r6, r0
1000654c:	d033      	beq.n	100065b6 <_free_r+0xba>
1000654e:	4b55      	ldr	r3, [pc, #340]	; (100066a4 <_free_r+0x1a8>)
10006550:	4328      	orrs	r0, r5
10006552:	6048      	str	r0, [r1, #4]
10006554:	514d      	str	r5, [r1, r5]
10006556:	429d      	cmp	r5, r3
10006558:	d812      	bhi.n	10006580 <_free_r+0x84>
1000655a:	08ed      	lsrs	r5, r5, #3
1000655c:	3bff      	subs	r3, #255	; 0xff
1000655e:	10aa      	asrs	r2, r5, #2
10006560:	3bff      	subs	r3, #255	; 0xff
10006562:	4093      	lsls	r3, r2
10006564:	687a      	ldr	r2, [r7, #4]
10006566:	00ed      	lsls	r5, r5, #3
10006568:	4313      	orrs	r3, r2
1000656a:	607b      	str	r3, [r7, #4]
1000656c:	19ef      	adds	r7, r5, r7
1000656e:	68bb      	ldr	r3, [r7, #8]
10006570:	60cf      	str	r7, [r1, #12]
10006572:	608b      	str	r3, [r1, #8]
10006574:	60b9      	str	r1, [r7, #8]
10006576:	60d9      	str	r1, [r3, #12]
10006578:	0020      	movs	r0, r4
1000657a:	f7ff fc6d 	bl	10005e58 <__malloc_unlock>
1000657e:	bdf8      	pop	{r3, r4, r5, r6, r7, pc}
10006580:	0a68      	lsrs	r0, r5, #9
10006582:	2804      	cmp	r0, #4
10006584:	d850      	bhi.n	10006628 <_free_r+0x12c>
10006586:	09a8      	lsrs	r0, r5, #6
10006588:	0002      	movs	r2, r0
1000658a:	3039      	adds	r0, #57	; 0x39
1000658c:	3238      	adds	r2, #56	; 0x38
1000658e:	00c0      	lsls	r0, r0, #3
10006590:	1838      	adds	r0, r7, r0
10006592:	3808      	subs	r0, #8
10006594:	6883      	ldr	r3, [r0, #8]
10006596:	2603      	movs	r6, #3
10006598:	4298      	cmp	r0, r3
1000659a:	d04c      	beq.n	10006636 <_free_r+0x13a>
1000659c:	685a      	ldr	r2, [r3, #4]
1000659e:	43b2      	bics	r2, r6
100065a0:	4295      	cmp	r5, r2
100065a2:	d230      	bcs.n	10006606 <_free_r+0x10a>
100065a4:	689b      	ldr	r3, [r3, #8]
100065a6:	4298      	cmp	r0, r3
100065a8:	d1f8      	bne.n	1000659c <_free_r+0xa0>
100065aa:	68c3      	ldr	r3, [r0, #12]
100065ac:	60cb      	str	r3, [r1, #12]
100065ae:	6088      	str	r0, [r1, #8]
100065b0:	6099      	str	r1, [r3, #8]
100065b2:	60c1      	str	r1, [r0, #12]
100065b4:	e7e0      	b.n	10006578 <_free_r+0x7c>
100065b6:	18ed      	adds	r5, r5, r3
100065b8:	4e3b      	ldr	r6, [pc, #236]	; (100066a8 <_free_r+0x1ac>)
100065ba:	6893      	ldr	r3, [r2, #8]
100065bc:	42b3      	cmp	r3, r6
100065be:	d042      	beq.n	10006646 <_free_r+0x14a>
100065c0:	68d2      	ldr	r2, [r2, #12]
100065c2:	4328      	orrs	r0, r5
100065c4:	60da      	str	r2, [r3, #12]
100065c6:	6093      	str	r3, [r2, #8]
100065c8:	4b36      	ldr	r3, [pc, #216]	; (100066a4 <_free_r+0x1a8>)
100065ca:	6048      	str	r0, [r1, #4]
100065cc:	514d      	str	r5, [r1, r5]
100065ce:	429d      	cmp	r5, r3
100065d0:	d8d6      	bhi.n	10006580 <_free_r+0x84>
100065d2:	e7c2      	b.n	1000655a <_free_r+0x5e>
100065d4:	4662      	mov	r2, ip
100065d6:	18eb      	adds	r3, r5, r3
100065d8:	4202      	tst	r2, r0
100065da:	d106      	bne.n	100065ea <_free_r+0xee>
100065dc:	680a      	ldr	r2, [r1, #0]
100065de:	1a89      	subs	r1, r1, r2
100065e0:	6888      	ldr	r0, [r1, #8]
100065e2:	189b      	adds	r3, r3, r2
100065e4:	68ca      	ldr	r2, [r1, #12]
100065e6:	60c2      	str	r2, [r0, #12]
100065e8:	6090      	str	r0, [r2, #8]
100065ea:	2201      	movs	r2, #1
100065ec:	431a      	orrs	r2, r3
100065ee:	604a      	str	r2, [r1, #4]
100065f0:	4a2e      	ldr	r2, [pc, #184]	; (100066ac <_free_r+0x1b0>)
100065f2:	60b9      	str	r1, [r7, #8]
100065f4:	6812      	ldr	r2, [r2, #0]
100065f6:	4293      	cmp	r3, r2
100065f8:	d3be      	bcc.n	10006578 <_free_r+0x7c>
100065fa:	4b2d      	ldr	r3, [pc, #180]	; (100066b0 <_free_r+0x1b4>)
100065fc:	0020      	movs	r0, r4
100065fe:	6819      	ldr	r1, [r3, #0]
10006600:	f7ff ff2c 	bl	1000645c <_malloc_trim_r>
10006604:	e7b8      	b.n	10006578 <_free_r+0x7c>
10006606:	0018      	movs	r0, r3
10006608:	e7cf      	b.n	100065aa <_free_r+0xae>
1000660a:	4666      	mov	r6, ip
1000660c:	18d0      	adds	r0, r2, r3
1000660e:	6840      	ldr	r0, [r0, #4]
10006610:	4230      	tst	r0, r6
10006612:	d13f      	bne.n	10006694 <_free_r+0x198>
10006614:	6890      	ldr	r0, [r2, #8]
10006616:	195d      	adds	r5, r3, r5
10006618:	68d3      	ldr	r3, [r2, #12]
1000661a:	60c3      	str	r3, [r0, #12]
1000661c:	6098      	str	r0, [r3, #8]
1000661e:	4663      	mov	r3, ip
10006620:	432b      	orrs	r3, r5
10006622:	604b      	str	r3, [r1, #4]
10006624:	514d      	str	r5, [r1, r5]
10006626:	e7a7      	b.n	10006578 <_free_r+0x7c>
10006628:	2814      	cmp	r0, #20
1000662a:	d814      	bhi.n	10006656 <_free_r+0x15a>
1000662c:	0002      	movs	r2, r0
1000662e:	305c      	adds	r0, #92	; 0x5c
10006630:	325b      	adds	r2, #91	; 0x5b
10006632:	00c0      	lsls	r0, r0, #3
10006634:	e7ac      	b.n	10006590 <_free_r+0x94>
10006636:	2301      	movs	r3, #1
10006638:	1092      	asrs	r2, r2, #2
1000663a:	4093      	lsls	r3, r2
1000663c:	687a      	ldr	r2, [r7, #4]
1000663e:	4313      	orrs	r3, r2
10006640:	607b      	str	r3, [r7, #4]
10006642:	0003      	movs	r3, r0
10006644:	e7b2      	b.n	100065ac <_free_r+0xb0>
10006646:	4328      	orrs	r0, r5
10006648:	60d9      	str	r1, [r3, #12]
1000664a:	6099      	str	r1, [r3, #8]
1000664c:	60cb      	str	r3, [r1, #12]
1000664e:	608b      	str	r3, [r1, #8]
10006650:	6048      	str	r0, [r1, #4]
10006652:	514d      	str	r5, [r1, r5]
10006654:	e790      	b.n	10006578 <_free_r+0x7c>
10006656:	2854      	cmp	r0, #84	; 0x54
10006658:	d805      	bhi.n	10006666 <_free_r+0x16a>
1000665a:	0b28      	lsrs	r0, r5, #12
1000665c:	0002      	movs	r2, r0
1000665e:	306f      	adds	r0, #111	; 0x6f
10006660:	326e      	adds	r2, #110	; 0x6e
10006662:	00c0      	lsls	r0, r0, #3
10006664:	e794      	b.n	10006590 <_free_r+0x94>
10006666:	22aa      	movs	r2, #170	; 0xaa
10006668:	0052      	lsls	r2, r2, #1
1000666a:	4290      	cmp	r0, r2
1000666c:	d805      	bhi.n	1000667a <_free_r+0x17e>
1000666e:	0be8      	lsrs	r0, r5, #15
10006670:	0002      	movs	r2, r0
10006672:	3078      	adds	r0, #120	; 0x78
10006674:	3277      	adds	r2, #119	; 0x77
10006676:	00c0      	lsls	r0, r0, #3
10006678:	e78a      	b.n	10006590 <_free_r+0x94>
1000667a:	4a0e      	ldr	r2, [pc, #56]	; (100066b4 <_free_r+0x1b8>)
1000667c:	4290      	cmp	r0, r2
1000667e:	d805      	bhi.n	1000668c <_free_r+0x190>
10006680:	0ca8      	lsrs	r0, r5, #18
10006682:	0002      	movs	r2, r0
10006684:	307d      	adds	r0, #125	; 0x7d
10006686:	327c      	adds	r2, #124	; 0x7c
10006688:	00c0      	lsls	r0, r0, #3
1000668a:	e781      	b.n	10006590 <_free_r+0x94>
1000668c:	20fe      	movs	r0, #254	; 0xfe
1000668e:	227e      	movs	r2, #126	; 0x7e
10006690:	0080      	lsls	r0, r0, #2
10006692:	e77d      	b.n	10006590 <_free_r+0x94>
10006694:	4663      	mov	r3, ip
10006696:	432b      	orrs	r3, r5
10006698:	604b      	str	r3, [r1, #4]
1000669a:	6015      	str	r5, [r2, #0]
1000669c:	e76c      	b.n	10006578 <_free_r+0x7c>
1000669e:	46c0      	nop			; (mov r8, r8)
100066a0:	20002890 	.word	0x20002890
100066a4:	000001ff 	.word	0x000001ff
100066a8:	20002898 	.word	0x20002898
100066ac:	20002c9c 	.word	0x20002c9c
100066b0:	20002dec 	.word	0x20002dec
100066b4:	00000554 	.word	0x00000554

100066b8 <_fwalk>:
100066b8:	23b8      	movs	r3, #184	; 0xb8
100066ba:	b5f0      	push	{r4, r5, r6, r7, lr}
100066bc:	46c6      	mov	lr, r8
100066be:	009b      	lsls	r3, r3, #2
100066c0:	18c7      	adds	r7, r0, r3
100066c2:	b500      	push	{lr}
100066c4:	4688      	mov	r8, r1
100066c6:	2600      	movs	r6, #0
100066c8:	2f00      	cmp	r7, #0
100066ca:	d013      	beq.n	100066f4 <_fwalk+0x3c>
100066cc:	687b      	ldr	r3, [r7, #4]
100066ce:	68bc      	ldr	r4, [r7, #8]
100066d0:	1e5d      	subs	r5, r3, #1
100066d2:	d40c      	bmi.n	100066ee <_fwalk+0x36>
100066d4:	89a3      	ldrh	r3, [r4, #12]
100066d6:	2b01      	cmp	r3, #1
100066d8:	d906      	bls.n	100066e8 <_fwalk+0x30>
100066da:	220e      	movs	r2, #14
100066dc:	5ea3      	ldrsh	r3, [r4, r2]
100066de:	3301      	adds	r3, #1
100066e0:	d002      	beq.n	100066e8 <_fwalk+0x30>
100066e2:	0020      	movs	r0, r4
100066e4:	47c0      	blx	r8
100066e6:	4306      	orrs	r6, r0
100066e8:	3468      	adds	r4, #104	; 0x68
100066ea:	3d01      	subs	r5, #1
100066ec:	d2f2      	bcs.n	100066d4 <_fwalk+0x1c>
100066ee:	683f      	ldr	r7, [r7, #0]
100066f0:	2f00      	cmp	r7, #0
100066f2:	d1eb      	bne.n	100066cc <_fwalk+0x14>
100066f4:	0030      	movs	r0, r6
100066f6:	bc04      	pop	{r2}
100066f8:	4690      	mov	r8, r2
100066fa:	bdf0      	pop	{r4, r5, r6, r7, pc}

100066fc <_fwalk_reent>:
100066fc:	b5f8      	push	{r3, r4, r5, r6, r7, lr}
100066fe:	4647      	mov	r7, r8
10006700:	46ce      	mov	lr, r9
10006702:	b580      	push	{r7, lr}
10006704:	27b8      	movs	r7, #184	; 0xb8
10006706:	4680      	mov	r8, r0
10006708:	00bf      	lsls	r7, r7, #2
1000670a:	4447      	add	r7, r8
1000670c:	4689      	mov	r9, r1
1000670e:	2600      	movs	r6, #0
10006710:	2f00      	cmp	r7, #0
10006712:	d014      	beq.n	1000673e <_fwalk_reent+0x42>
10006714:	687b      	ldr	r3, [r7, #4]
10006716:	68bc      	ldr	r4, [r7, #8]
10006718:	1e5d      	subs	r5, r3, #1
1000671a:	d40d      	bmi.n	10006738 <_fwalk_reent+0x3c>
1000671c:	89a3      	ldrh	r3, [r4, #12]
1000671e:	2b01      	cmp	r3, #1
10006720:	d907      	bls.n	10006732 <_fwalk_reent+0x36>
10006722:	220e      	movs	r2, #14
10006724:	5ea3      	ldrsh	r3, [r4, r2]
10006726:	3301      	adds	r3, #1
10006728:	d003      	beq.n	10006732 <_fwalk_reent+0x36>
1000672a:	0021      	movs	r1, r4
1000672c:	4640      	mov	r0, r8
1000672e:	47c8      	blx	r9
10006730:	4306      	orrs	r6, r0
10006732:	3468      	adds	r4, #104	; 0x68
10006734:	3d01      	subs	r5, #1
10006736:	d2f1      	bcs.n	1000671c <_fwalk_reent+0x20>
10006738:	683f      	ldr	r7, [r7, #0]
1000673a:	2f00      	cmp	r7, #0
1000673c:	d1ea      	bne.n	10006714 <_fwalk_reent+0x18>
1000673e:	0030      	movs	r0, r6
10006740:	bc0c      	pop	{r2, r3}
10006742:	4690      	mov	r8, r2
10006744:	4699      	mov	r9, r3
10006746:	bdf8      	pop	{r3, r4, r5, r6, r7, pc}

10006748 <__swhatbuf_r>:
10006748:	b570      	push	{r4, r5, r6, lr}
1000674a:	000c      	movs	r4, r1
1000674c:	001e      	movs	r6, r3
1000674e:	230e      	movs	r3, #14
10006750:	5ec9      	ldrsh	r1, [r1, r3]
10006752:	b090      	sub	sp, #64	; 0x40
10006754:	0015      	movs	r5, r2
10006756:	2900      	cmp	r1, #0
10006758:	db15      	blt.n	10006786 <__swhatbuf_r+0x3e>
1000675a:	aa01      	add	r2, sp, #4
1000675c:	f000 f92e 	bl	100069bc <_fstat_r>
10006760:	2800      	cmp	r0, #0
10006762:	db10      	blt.n	10006786 <__swhatbuf_r+0x3e>
10006764:	22f0      	movs	r2, #240	; 0xf0
10006766:	9b02      	ldr	r3, [sp, #8]
10006768:	0212      	lsls	r2, r2, #8
1000676a:	4013      	ands	r3, r2
1000676c:	4a0d      	ldr	r2, [pc, #52]	; (100067a4 <__swhatbuf_r+0x5c>)
1000676e:	2080      	movs	r0, #128	; 0x80
10006770:	4694      	mov	ip, r2
10006772:	4463      	add	r3, ip
10006774:	425a      	negs	r2, r3
10006776:	4153      	adcs	r3, r2
10006778:	6033      	str	r3, [r6, #0]
1000677a:	2380      	movs	r3, #128	; 0x80
1000677c:	00db      	lsls	r3, r3, #3
1000677e:	602b      	str	r3, [r5, #0]
10006780:	0100      	lsls	r0, r0, #4
10006782:	b010      	add	sp, #64	; 0x40
10006784:	bd70      	pop	{r4, r5, r6, pc}
10006786:	2300      	movs	r3, #0
10006788:	6033      	str	r3, [r6, #0]
1000678a:	89a3      	ldrh	r3, [r4, #12]
1000678c:	061b      	lsls	r3, r3, #24
1000678e:	d503      	bpl.n	10006798 <__swhatbuf_r+0x50>
10006790:	2340      	movs	r3, #64	; 0x40
10006792:	2000      	movs	r0, #0
10006794:	602b      	str	r3, [r5, #0]
10006796:	e7f4      	b.n	10006782 <__swhatbuf_r+0x3a>
10006798:	2380      	movs	r3, #128	; 0x80
1000679a:	00db      	lsls	r3, r3, #3
1000679c:	602b      	str	r3, [r5, #0]
1000679e:	2000      	movs	r0, #0
100067a0:	e7ef      	b.n	10006782 <__swhatbuf_r+0x3a>
100067a2:	46c0      	nop			; (mov r8, r8)
100067a4:	ffffe000 	.word	0xffffe000

100067a8 <__smakebuf_r>:
100067a8:	b570      	push	{r4, r5, r6, lr}
100067aa:	898b      	ldrh	r3, [r1, #12]
100067ac:	b082      	sub	sp, #8
100067ae:	0005      	movs	r5, r0
100067b0:	000c      	movs	r4, r1
100067b2:	079b      	lsls	r3, r3, #30
100067b4:	d507      	bpl.n	100067c6 <__smakebuf_r+0x1e>
100067b6:	0023      	movs	r3, r4
100067b8:	3343      	adds	r3, #67	; 0x43
100067ba:	6023      	str	r3, [r4, #0]
100067bc:	6123      	str	r3, [r4, #16]
100067be:	2301      	movs	r3, #1
100067c0:	6163      	str	r3, [r4, #20]
100067c2:	b002      	add	sp, #8
100067c4:	bd70      	pop	{r4, r5, r6, pc}
100067c6:	ab01      	add	r3, sp, #4
100067c8:	466a      	mov	r2, sp
100067ca:	f7ff ffbd 	bl	10006748 <__swhatbuf_r>
100067ce:	9900      	ldr	r1, [sp, #0]
100067d0:	0006      	movs	r6, r0
100067d2:	0028      	movs	r0, r5
100067d4:	f7ff f892 	bl	100058fc <_malloc_r>
100067d8:	2800      	cmp	r0, #0
100067da:	d01c      	beq.n	10006816 <__smakebuf_r+0x6e>
100067dc:	2280      	movs	r2, #128	; 0x80
100067de:	4b13      	ldr	r3, [pc, #76]	; (1000682c <__smakebuf_r+0x84>)
100067e0:	63eb      	str	r3, [r5, #60]	; 0x3c
100067e2:	89a3      	ldrh	r3, [r4, #12]
100067e4:	6020      	str	r0, [r4, #0]
100067e6:	4313      	orrs	r3, r2
100067e8:	9a00      	ldr	r2, [sp, #0]
100067ea:	b21b      	sxth	r3, r3
100067ec:	6162      	str	r2, [r4, #20]
100067ee:	9a01      	ldr	r2, [sp, #4]
100067f0:	81a3      	strh	r3, [r4, #12]
100067f2:	6120      	str	r0, [r4, #16]
100067f4:	2a00      	cmp	r2, #0
100067f6:	d102      	bne.n	100067fe <__smakebuf_r+0x56>
100067f8:	4333      	orrs	r3, r6
100067fa:	81a3      	strh	r3, [r4, #12]
100067fc:	e7e1      	b.n	100067c2 <__smakebuf_r+0x1a>
100067fe:	230e      	movs	r3, #14
10006800:	5ee1      	ldrsh	r1, [r4, r3]
10006802:	0028      	movs	r0, r5
10006804:	f000 f8ee 	bl	100069e4 <_isatty_r>
10006808:	2800      	cmp	r0, #0
1000680a:	d00c      	beq.n	10006826 <__smakebuf_r+0x7e>
1000680c:	2201      	movs	r2, #1
1000680e:	89a3      	ldrh	r3, [r4, #12]
10006810:	4313      	orrs	r3, r2
10006812:	b21b      	sxth	r3, r3
10006814:	e7f0      	b.n	100067f8 <__smakebuf_r+0x50>
10006816:	220c      	movs	r2, #12
10006818:	5ea3      	ldrsh	r3, [r4, r2]
1000681a:	059a      	lsls	r2, r3, #22
1000681c:	d4d1      	bmi.n	100067c2 <__smakebuf_r+0x1a>
1000681e:	2202      	movs	r2, #2
10006820:	4313      	orrs	r3, r2
10006822:	81a3      	strh	r3, [r4, #12]
10006824:	e7c7      	b.n	100067b6 <__smakebuf_r+0xe>
10006826:	220c      	movs	r2, #12
10006828:	5ea3      	ldrsh	r3, [r4, r2]
1000682a:	e7e5      	b.n	100067f8 <__smakebuf_r+0x50>
1000682c:	10006235 	.word	0x10006235

10006830 <__sread>:
10006830:	b570      	push	{r4, r5, r6, lr}
10006832:	000c      	movs	r4, r1
10006834:	250e      	movs	r5, #14
10006836:	5f49      	ldrsh	r1, [r1, r5]
10006838:	f000 f8fa 	bl	10006a30 <_read_r>
1000683c:	2800      	cmp	r0, #0
1000683e:	db03      	blt.n	10006848 <__sread+0x18>
10006840:	6d23      	ldr	r3, [r4, #80]	; 0x50
10006842:	181b      	adds	r3, r3, r0
10006844:	6523      	str	r3, [r4, #80]	; 0x50
10006846:	bd70      	pop	{r4, r5, r6, pc}
10006848:	89a3      	ldrh	r3, [r4, #12]
1000684a:	4a02      	ldr	r2, [pc, #8]	; (10006854 <__sread+0x24>)
1000684c:	4013      	ands	r3, r2
1000684e:	81a3      	strh	r3, [r4, #12]
10006850:	e7f9      	b.n	10006846 <__sread+0x16>
10006852:	46c0      	nop			; (mov r8, r8)
10006854:	ffffefff 	.word	0xffffefff

10006858 <__seofread>:
10006858:	2000      	movs	r0, #0
1000685a:	4770      	bx	lr

1000685c <__swrite>:
1000685c:	b5f8      	push	{r3, r4, r5, r6, r7, lr}
1000685e:	0016      	movs	r6, r2
10006860:	001f      	movs	r7, r3
10006862:	220c      	movs	r2, #12
10006864:	5e8b      	ldrsh	r3, [r1, r2]
10006866:	0005      	movs	r5, r0
10006868:	000c      	movs	r4, r1
1000686a:	05da      	lsls	r2, r3, #23
1000686c:	d507      	bpl.n	1000687e <__swrite+0x22>
1000686e:	230e      	movs	r3, #14
10006870:	5ec9      	ldrsh	r1, [r1, r3]
10006872:	2200      	movs	r2, #0
10006874:	2302      	movs	r3, #2
10006876:	f000 f8c7 	bl	10006a08 <_lseek_r>
1000687a:	220c      	movs	r2, #12
1000687c:	5ea3      	ldrsh	r3, [r4, r2]
1000687e:	4a05      	ldr	r2, [pc, #20]	; (10006894 <__swrite+0x38>)
10006880:	0028      	movs	r0, r5
10006882:	4013      	ands	r3, r2
10006884:	81a3      	strh	r3, [r4, #12]
10006886:	0032      	movs	r2, r6
10006888:	230e      	movs	r3, #14
1000688a:	5ee1      	ldrsh	r1, [r4, r3]
1000688c:	003b      	movs	r3, r7
1000688e:	f000 f81f 	bl	100068d0 <_write_r>
10006892:	bdf8      	pop	{r3, r4, r5, r6, r7, pc}
10006894:	ffffefff 	.word	0xffffefff

10006898 <__sseek>:
10006898:	b570      	push	{r4, r5, r6, lr}
1000689a:	000c      	movs	r4, r1
1000689c:	250e      	movs	r5, #14
1000689e:	5f49      	ldrsh	r1, [r1, r5]
100068a0:	f000 f8b2 	bl	10006a08 <_lseek_r>
100068a4:	1c43      	adds	r3, r0, #1
100068a6:	d006      	beq.n	100068b6 <__sseek+0x1e>
100068a8:	2380      	movs	r3, #128	; 0x80
100068aa:	89a2      	ldrh	r2, [r4, #12]
100068ac:	015b      	lsls	r3, r3, #5
100068ae:	4313      	orrs	r3, r2
100068b0:	81a3      	strh	r3, [r4, #12]
100068b2:	6520      	str	r0, [r4, #80]	; 0x50
100068b4:	bd70      	pop	{r4, r5, r6, pc}
100068b6:	89a3      	ldrh	r3, [r4, #12]
100068b8:	4a01      	ldr	r2, [pc, #4]	; (100068c0 <__sseek+0x28>)
100068ba:	4013      	ands	r3, r2
100068bc:	81a3      	strh	r3, [r4, #12]
100068be:	e7f9      	b.n	100068b4 <__sseek+0x1c>
100068c0:	ffffefff 	.word	0xffffefff

100068c4 <__sclose>:
100068c4:	b510      	push	{r4, lr}
100068c6:	230e      	movs	r3, #14
100068c8:	5ec9      	ldrsh	r1, [r1, r3]
100068ca:	f000 f815 	bl	100068f8 <_close_r>
100068ce:	bd10      	pop	{r4, pc}

100068d0 <_write_r>:
100068d0:	b570      	push	{r4, r5, r6, lr}
100068d2:	0005      	movs	r5, r0
100068d4:	0008      	movs	r0, r1
100068d6:	0011      	movs	r1, r2
100068d8:	2200      	movs	r2, #0
100068da:	4c06      	ldr	r4, [pc, #24]	; (100068f4 <_write_r+0x24>)
100068dc:	6022      	str	r2, [r4, #0]
100068de:	001a      	movs	r2, r3
100068e0:	f7fc f89c 	bl	10002a1c <_write>
100068e4:	1c43      	adds	r3, r0, #1
100068e6:	d000      	beq.n	100068ea <_write_r+0x1a>
100068e8:	bd70      	pop	{r4, r5, r6, pc}
100068ea:	6823      	ldr	r3, [r4, #0]
100068ec:	2b00      	cmp	r3, #0
100068ee:	d0fb      	beq.n	100068e8 <_write_r+0x18>
100068f0:	602b      	str	r3, [r5, #0]
100068f2:	e7f9      	b.n	100068e8 <_write_r+0x18>
100068f4:	20003a4c 	.word	0x20003a4c

100068f8 <_close_r>:
100068f8:	2300      	movs	r3, #0
100068fa:	b570      	push	{r4, r5, r6, lr}
100068fc:	4c06      	ldr	r4, [pc, #24]	; (10006918 <_close_r+0x20>)
100068fe:	0005      	movs	r5, r0
10006900:	0008      	movs	r0, r1
10006902:	6023      	str	r3, [r4, #0]
10006904:	f000 f8a8 	bl	10006a58 <_close>
10006908:	1c43      	adds	r3, r0, #1
1000690a:	d000      	beq.n	1000690e <_close_r+0x16>
1000690c:	bd70      	pop	{r4, r5, r6, pc}
1000690e:	6823      	ldr	r3, [r4, #0]
10006910:	2b00      	cmp	r3, #0
10006912:	d0fb      	beq.n	1000690c <_close_r+0x14>
10006914:	602b      	str	r3, [r5, #0]
10006916:	e7f9      	b.n	1000690c <_close_r+0x14>
10006918:	20003a4c 	.word	0x20003a4c

1000691c <_fclose_r>:
1000691c:	b570      	push	{r4, r5, r6, lr}
1000691e:	0005      	movs	r5, r0
10006920:	1e0c      	subs	r4, r1, #0
10006922:	d008      	beq.n	10006936 <_fclose_r+0x1a>
10006924:	2800      	cmp	r0, #0
10006926:	d002      	beq.n	1000692e <_fclose_r+0x12>
10006928:	6b83      	ldr	r3, [r0, #56]	; 0x38
1000692a:	2b00      	cmp	r3, #0
1000692c:	d031      	beq.n	10006992 <_fclose_r+0x76>
1000692e:	220c      	movs	r2, #12
10006930:	5ea3      	ldrsh	r3, [r4, r2]
10006932:	2b00      	cmp	r3, #0
10006934:	d102      	bne.n	1000693c <_fclose_r+0x20>
10006936:	2600      	movs	r6, #0
10006938:	0030      	movs	r0, r6
1000693a:	bd70      	pop	{r4, r5, r6, pc}
1000693c:	0021      	movs	r1, r4
1000693e:	0028      	movs	r0, r5
10006940:	f7ff fba4 	bl	1000608c <__sflush_r>
10006944:	6ae3      	ldr	r3, [r4, #44]	; 0x2c
10006946:	0006      	movs	r6, r0
10006948:	2b00      	cmp	r3, #0
1000694a:	d004      	beq.n	10006956 <_fclose_r+0x3a>
1000694c:	69e1      	ldr	r1, [r4, #28]
1000694e:	0028      	movs	r0, r5
10006950:	4798      	blx	r3
10006952:	2800      	cmp	r0, #0
10006954:	db20      	blt.n	10006998 <_fclose_r+0x7c>
10006956:	89a3      	ldrh	r3, [r4, #12]
10006958:	061b      	lsls	r3, r3, #24
1000695a:	d420      	bmi.n	1000699e <_fclose_r+0x82>
1000695c:	6b21      	ldr	r1, [r4, #48]	; 0x30
1000695e:	2900      	cmp	r1, #0
10006960:	d008      	beq.n	10006974 <_fclose_r+0x58>
10006962:	0023      	movs	r3, r4
10006964:	3340      	adds	r3, #64	; 0x40
10006966:	4299      	cmp	r1, r3
10006968:	d002      	beq.n	10006970 <_fclose_r+0x54>
1000696a:	0028      	movs	r0, r5
1000696c:	f7ff fdc6 	bl	100064fc <_free_r>
10006970:	2300      	movs	r3, #0
10006972:	6323      	str	r3, [r4, #48]	; 0x30
10006974:	6c61      	ldr	r1, [r4, #68]	; 0x44
10006976:	2900      	cmp	r1, #0
10006978:	d004      	beq.n	10006984 <_fclose_r+0x68>
1000697a:	0028      	movs	r0, r5
1000697c:	f7ff fdbe 	bl	100064fc <_free_r>
10006980:	2300      	movs	r3, #0
10006982:	6463      	str	r3, [r4, #68]	; 0x44
10006984:	f7ff fd4a 	bl	1000641c <__sfp_lock_acquire>
10006988:	2300      	movs	r3, #0
1000698a:	81a3      	strh	r3, [r4, #12]
1000698c:	f7ff fd48 	bl	10006420 <__sfp_lock_release>
10006990:	e7d2      	b.n	10006938 <_fclose_r+0x1c>
10006992:	f7ff fd3b 	bl	1000640c <__sinit>
10006996:	e7ca      	b.n	1000692e <_fclose_r+0x12>
10006998:	2601      	movs	r6, #1
1000699a:	4276      	negs	r6, r6
1000699c:	e7db      	b.n	10006956 <_fclose_r+0x3a>
1000699e:	6921      	ldr	r1, [r4, #16]
100069a0:	0028      	movs	r0, r5
100069a2:	f7ff fdab 	bl	100064fc <_free_r>
100069a6:	e7d9      	b.n	1000695c <_fclose_r+0x40>

100069a8 <fclose>:
100069a8:	b510      	push	{r4, lr}
100069aa:	4b03      	ldr	r3, [pc, #12]	; (100069b8 <fclose+0x10>)
100069ac:	0001      	movs	r1, r0
100069ae:	6818      	ldr	r0, [r3, #0]
100069b0:	f7ff ffb4 	bl	1000691c <_fclose_r>
100069b4:	bd10      	pop	{r4, pc}
100069b6:	46c0      	nop			; (mov r8, r8)
100069b8:	20002460 	.word	0x20002460

100069bc <_fstat_r>:
100069bc:	2300      	movs	r3, #0
100069be:	b570      	push	{r4, r5, r6, lr}
100069c0:	4c07      	ldr	r4, [pc, #28]	; (100069e0 <_fstat_r+0x24>)
100069c2:	0005      	movs	r5, r0
100069c4:	0008      	movs	r0, r1
100069c6:	0011      	movs	r1, r2
100069c8:	6023      	str	r3, [r4, #0]
100069ca:	f000 f84d 	bl	10006a68 <_fstat>
100069ce:	1c43      	adds	r3, r0, #1
100069d0:	d000      	beq.n	100069d4 <_fstat_r+0x18>
100069d2:	bd70      	pop	{r4, r5, r6, pc}
100069d4:	6823      	ldr	r3, [r4, #0]
100069d6:	2b00      	cmp	r3, #0
100069d8:	d0fb      	beq.n	100069d2 <_fstat_r+0x16>
100069da:	602b      	str	r3, [r5, #0]
100069dc:	e7f9      	b.n	100069d2 <_fstat_r+0x16>
100069de:	46c0      	nop			; (mov r8, r8)
100069e0:	20003a4c 	.word	0x20003a4c

100069e4 <_isatty_r>:
100069e4:	2300      	movs	r3, #0
100069e6:	b570      	push	{r4, r5, r6, lr}
100069e8:	4c06      	ldr	r4, [pc, #24]	; (10006a04 <_isatty_r+0x20>)
100069ea:	0005      	movs	r5, r0
100069ec:	0008      	movs	r0, r1
100069ee:	6023      	str	r3, [r4, #0]
100069f0:	f000 f842 	bl	10006a78 <_isatty>
100069f4:	1c43      	adds	r3, r0, #1
100069f6:	d000      	beq.n	100069fa <_isatty_r+0x16>
100069f8:	bd70      	pop	{r4, r5, r6, pc}
100069fa:	6823      	ldr	r3, [r4, #0]
100069fc:	2b00      	cmp	r3, #0
100069fe:	d0fb      	beq.n	100069f8 <_isatty_r+0x14>
10006a00:	602b      	str	r3, [r5, #0]
10006a02:	e7f9      	b.n	100069f8 <_isatty_r+0x14>
10006a04:	20003a4c 	.word	0x20003a4c

10006a08 <_lseek_r>:
10006a08:	b570      	push	{r4, r5, r6, lr}
10006a0a:	0005      	movs	r5, r0
10006a0c:	0008      	movs	r0, r1
10006a0e:	0011      	movs	r1, r2
10006a10:	2200      	movs	r2, #0
10006a12:	4c06      	ldr	r4, [pc, #24]	; (10006a2c <_lseek_r+0x24>)
10006a14:	6022      	str	r2, [r4, #0]
10006a16:	001a      	movs	r2, r3
10006a18:	f000 f836 	bl	10006a88 <_lseek>
10006a1c:	1c43      	adds	r3, r0, #1
10006a1e:	d000      	beq.n	10006a22 <_lseek_r+0x1a>
10006a20:	bd70      	pop	{r4, r5, r6, pc}
10006a22:	6823      	ldr	r3, [r4, #0]
10006a24:	2b00      	cmp	r3, #0
10006a26:	d0fb      	beq.n	10006a20 <_lseek_r+0x18>
10006a28:	602b      	str	r3, [r5, #0]
10006a2a:	e7f9      	b.n	10006a20 <_lseek_r+0x18>
10006a2c:	20003a4c 	.word	0x20003a4c

10006a30 <_read_r>:
10006a30:	b570      	push	{r4, r5, r6, lr}
10006a32:	0005      	movs	r5, r0
10006a34:	0008      	movs	r0, r1
10006a36:	0011      	movs	r1, r2
10006a38:	2200      	movs	r2, #0
10006a3a:	4c06      	ldr	r4, [pc, #24]	; (10006a54 <_read_r+0x24>)
10006a3c:	6022      	str	r2, [r4, #0]
10006a3e:	001a      	movs	r2, r3
10006a40:	f7fb ffa6 	bl	10002990 <_read>
10006a44:	1c43      	adds	r3, r0, #1
10006a46:	d000      	beq.n	10006a4a <_read_r+0x1a>
10006a48:	bd70      	pop	{r4, r5, r6, pc}
10006a4a:	6823      	ldr	r3, [r4, #0]
10006a4c:	2b00      	cmp	r3, #0
10006a4e:	d0fb      	beq.n	10006a48 <_read_r+0x18>
10006a50:	602b      	str	r3, [r5, #0]
10006a52:	e7f9      	b.n	10006a48 <_read_r+0x18>
10006a54:	20003a4c 	.word	0x20003a4c

10006a58 <_close>:
10006a58:	2258      	movs	r2, #88	; 0x58
10006a5a:	2001      	movs	r0, #1
10006a5c:	4b01      	ldr	r3, [pc, #4]	; (10006a64 <_close+0xc>)
10006a5e:	4240      	negs	r0, r0
10006a60:	601a      	str	r2, [r3, #0]
10006a62:	4770      	bx	lr
10006a64:	20003a4c 	.word	0x20003a4c

10006a68 <_fstat>:
10006a68:	2258      	movs	r2, #88	; 0x58
10006a6a:	2001      	movs	r0, #1
10006a6c:	4b01      	ldr	r3, [pc, #4]	; (10006a74 <_fstat+0xc>)
10006a6e:	4240      	negs	r0, r0
10006a70:	601a      	str	r2, [r3, #0]
10006a72:	4770      	bx	lr
10006a74:	20003a4c 	.word	0x20003a4c

10006a78 <_isatty>:
10006a78:	2258      	movs	r2, #88	; 0x58
10006a7a:	4b02      	ldr	r3, [pc, #8]	; (10006a84 <_isatty+0xc>)
10006a7c:	2000      	movs	r0, #0
10006a7e:	601a      	str	r2, [r3, #0]
10006a80:	4770      	bx	lr
10006a82:	46c0      	nop			; (mov r8, r8)
10006a84:	20003a4c 	.word	0x20003a4c

10006a88 <_lseek>:
10006a88:	2258      	movs	r2, #88	; 0x58
10006a8a:	2001      	movs	r0, #1
10006a8c:	4b01      	ldr	r3, [pc, #4]	; (10006a94 <_lseek+0xc>)
10006a8e:	4240      	negs	r0, r0
10006a90:	601a      	str	r2, [r3, #0]
10006a92:	4770      	bx	lr
10006a94:	20003a4c 	.word	0x20003a4c

10006a98 <_fini>:
10006a98:	b5f8      	push	{r3, r4, r5, r6, r7, lr}
10006a9a:	46c0      	nop			; (mov r8, r8)
10006a9c:	0000      	movs	r0, r0
	...

10006aa0 <__mutex_exit_veneer>:
10006aa0:	b401      	push	{r0}
10006aa2:	4802      	ldr	r0, [pc, #8]	; (10006aac <__mutex_exit_veneer+0xc>)
10006aa4:	4684      	mov	ip, r0
10006aa6:	bc01      	pop	{r0}
10006aa8:	4760      	bx	ip
10006aaa:	bf00      	nop
10006aac:	20000239 	.word	0x20000239

10006ab0 <____aeabi_ldiv0_veneer>:
10006ab0:	b401      	push	{r0}
10006ab2:	4802      	ldr	r0, [pc, #8]	; (10006abc <____aeabi_ldiv0_veneer+0xc>)
10006ab4:	4684      	mov	ip, r0
10006ab6:	bc01      	pop	{r0}
10006ab8:	4760      	bx	ip
10006aba:	bf00      	nop
10006abc:	20000295 	.word	0x20000295

10006ac0 <____aeabi_idiv0_veneer>:
10006ac0:	b401      	push	{r0}
10006ac2:	4802      	ldr	r0, [pc, #8]	; (10006acc <____aeabi_idiv0_veneer+0xc>)
10006ac4:	4684      	mov	ip, r0
10006ac6:	bc01      	pop	{r0}
10006ac8:	4760      	bx	ip
10006aca:	bf00      	nop
10006acc:	20000295 	.word	0x20000295

10006ad0 <__mutex_try_enter_veneer>:
10006ad0:	b401      	push	{r0}
10006ad2:	4802      	ldr	r0, [pc, #8]	; (10006adc <__mutex_try_enter_veneer+0xc>)
10006ad4:	4684      	mov	ip, r0
10006ad6:	bc01      	pop	{r0}
10006ad8:	4760      	bx	ip
10006ada:	bf00      	nop
10006adc:	20000129 	.word	0x20000129

10006ae0 <__mutex_enter_timeout_ms_veneer>:
10006ae0:	b401      	push	{r0}
10006ae2:	4802      	ldr	r0, [pc, #8]	; (10006aec <__mutex_enter_timeout_ms_veneer+0xc>)
10006ae4:	4684      	mov	ip, r0
10006ae6:	bc01      	pop	{r0}
10006ae8:	4760      	bx	ip
10006aea:	bf00      	nop
10006aec:	20000185 	.word	0x20000185

10006af0 <__mutex_enter_blocking_veneer>:
10006af0:	b401      	push	{r0}
10006af2:	4802      	ldr	r0, [pc, #8]	; (10006afc <__mutex_enter_blocking_veneer+0xc>)
10006af4:	4684      	mov	ip, r0
10006af6:	bc01      	pop	{r0}
10006af8:	4760      	bx	ip
10006afa:	bf00      	nop
10006afc:	200000c1 	.word	0x200000c1

10006b00 <__memmove_veneer>:
10006b00:	b401      	push	{r0}
10006b02:	4802      	ldr	r0, [pc, #8]	; (10006b0c <__memmove_veneer+0xc>)
10006b04:	4684      	mov	ip, r0
10006b06:	bc01      	pop	{r0}
10006b08:	4760      	bx	ip
10006b0a:	bf00      	nop
10006b0c:	20000299 	.word	0x20000299

Disassembly of section .data:

200000c0 <mutex_enter_blocking>:
200000c0:	b570      	push	{r4, r5, r6, lr}
200000c2:	24d0      	movs	r4, #208	; 0xd0
200000c4:	2500      	movs	r5, #0
200000c6:	0624      	lsls	r4, r4, #24
200000c8:	6802      	ldr	r2, [r0, #0]
200000ca:	f3ef 8110 	mrs	r1, PRIMASK
200000ce:	b672      	cpsid	i
200000d0:	6813      	ldr	r3, [r2, #0]
200000d2:	2b00      	cmp	r3, #0
200000d4:	d0fc      	beq.n	200000d0 <mutex_enter_blocking+0x10>
200000d6:	f3bf 8f5f 	dmb	sy
200000da:	2304      	movs	r3, #4
200000dc:	2200      	movs	r2, #0
200000de:	56c3      	ldrsb	r3, [r0, r3]
200000e0:	56a2      	ldrsb	r2, [r4, r2]
200000e2:	1c5e      	adds	r6, r3, #1
200000e4:	d01a      	beq.n	2000011c <mutex_enter_blocking+0x5c>
200000e6:	429a      	cmp	r2, r3
200000e8:	d00b      	beq.n	20000102 <mutex_enter_blocking+0x42>
200000ea:	6803      	ldr	r3, [r0, #0]
200000ec:	f3bf 8f5f 	dmb	sy
200000f0:	601d      	str	r5, [r3, #0]
200000f2:	f381 8810 	msr	PRIMASK, r1
200000f6:	bf20      	wfe
200000f8:	6802      	ldr	r2, [r0, #0]
200000fa:	f3ef 8110 	mrs	r1, PRIMASK
200000fe:	b672      	cpsid	i
20000100:	e7e6      	b.n	200000d0 <mutex_enter_blocking+0x10>
20000102:	7943      	ldrb	r3, [r0, #5]
20000104:	2b01      	cmp	r3, #1
20000106:	d9f0      	bls.n	200000ea <mutex_enter_blocking+0x2a>
20000108:	3b01      	subs	r3, #1
2000010a:	7143      	strb	r3, [r0, #5]
2000010c:	6803      	ldr	r3, [r0, #0]
2000010e:	f3bf 8f5f 	dmb	sy
20000112:	2200      	movs	r2, #0
20000114:	601a      	str	r2, [r3, #0]
20000116:	f381 8810 	msr	PRIMASK, r1
2000011a:	bd70      	pop	{r4, r5, r6, pc}
2000011c:	7943      	ldrb	r3, [r0, #5]
2000011e:	7102      	strb	r2, [r0, #4]
20000120:	2b00      	cmp	r3, #0
20000122:	d0f3      	beq.n	2000010c <mutex_enter_blocking+0x4c>
20000124:	e7f0      	b.n	20000108 <mutex_enter_blocking+0x48>
20000126:	46c0      	nop			; (mov r8, r8)

20000128 <mutex_try_enter>:
20000128:	0003      	movs	r3, r0
2000012a:	b530      	push	{r4, r5, lr}
2000012c:	6800      	ldr	r0, [r0, #0]
2000012e:	f3ef 8410 	mrs	r4, PRIMASK
20000132:	b672      	cpsid	i
20000134:	6802      	ldr	r2, [r0, #0]
20000136:	2a00      	cmp	r2, #0
20000138:	d0fc      	beq.n	20000134 <mutex_try_enter+0xc>
2000013a:	f3bf 8f5f 	dmb	sy
2000013e:	22d0      	movs	r2, #208	; 0xd0
20000140:	2000      	movs	r0, #0
20000142:	0612      	lsls	r2, r2, #24
20000144:	5610      	ldrsb	r0, [r2, r0]
20000146:	2204      	movs	r2, #4
20000148:	569a      	ldrsb	r2, [r3, r2]
2000014a:	1c55      	adds	r5, r2, #1
2000014c:	d014      	beq.n	20000178 <mutex_try_enter+0x50>
2000014e:	4290      	cmp	r0, r2
20000150:	d00b      	beq.n	2000016a <mutex_try_enter+0x42>
20000152:	2900      	cmp	r1, #0
20000154:	d013      	beq.n	2000017e <mutex_try_enter+0x56>
20000156:	2000      	movs	r0, #0
20000158:	600a      	str	r2, [r1, #0]
2000015a:	681b      	ldr	r3, [r3, #0]
2000015c:	f3bf 8f5f 	dmb	sy
20000160:	2200      	movs	r2, #0
20000162:	601a      	str	r2, [r3, #0]
20000164:	f384 8810 	msr	PRIMASK, r4
20000168:	bd30      	pop	{r4, r5, pc}
2000016a:	7958      	ldrb	r0, [r3, #5]
2000016c:	2801      	cmp	r0, #1
2000016e:	d9f0      	bls.n	20000152 <mutex_try_enter+0x2a>
20000170:	3801      	subs	r0, #1
20000172:	7158      	strb	r0, [r3, #5]
20000174:	2001      	movs	r0, #1
20000176:	e7f0      	b.n	2000015a <mutex_try_enter+0x32>
20000178:	7118      	strb	r0, [r3, #4]
2000017a:	2001      	movs	r0, #1
2000017c:	e7ed      	b.n	2000015a <mutex_try_enter+0x32>
2000017e:	2000      	movs	r0, #0
20000180:	e7eb      	b.n	2000015a <mutex_try_enter+0x32>
20000182:	46c0      	nop			; (mov r8, r8)

20000184 <mutex_enter_timeout_ms>:
20000184:	b5f0      	push	{r4, r5, r6, r7, lr}
20000186:	46c6      	mov	lr, r8
20000188:	b500      	push	{lr}
2000018a:	000c      	movs	r4, r1
2000018c:	4680      	mov	r8, r0
2000018e:	f000 f8e3 	bl	20000358 <__time_us_64_veneer>
20000192:	22fa      	movs	r2, #250	; 0xfa
20000194:	0006      	movs	r6, r0
20000196:	000f      	movs	r7, r1
20000198:	0020      	movs	r0, r4
2000019a:	0092      	lsls	r2, r2, #2
2000019c:	2300      	movs	r3, #0
2000019e:	2100      	movs	r1, #0
200001a0:	f000 f8d2 	bl	20000348 <____wrap___aeabi_lmul_veneer>
200001a4:	1980      	adds	r0, r0, r6
200001a6:	4179      	adcs	r1, r7
200001a8:	0004      	movs	r4, r0
200001aa:	000d      	movs	r5, r1
200001ac:	428f      	cmp	r7, r1
200001ae:	d92d      	bls.n	2000020c <mutex_enter_timeout_ms+0x88>
200001b0:	2401      	movs	r4, #1
200001b2:	4264      	negs	r4, r4
200001b4:	17e5      	asrs	r5, r4, #31
200001b6:	26d0      	movs	r6, #208	; 0xd0
200001b8:	2700      	movs	r7, #0
200001ba:	0636      	lsls	r6, r6, #24
200001bc:	4643      	mov	r3, r8
200001be:	681a      	ldr	r2, [r3, #0]
200001c0:	f3ef 8110 	mrs	r1, PRIMASK
200001c4:	b672      	cpsid	i
200001c6:	6813      	ldr	r3, [r2, #0]
200001c8:	2b00      	cmp	r3, #0
200001ca:	d0fc      	beq.n	200001c6 <mutex_enter_timeout_ms+0x42>
200001cc:	f3bf 8f5f 	dmb	sy
200001d0:	4643      	mov	r3, r8
200001d2:	2200      	movs	r2, #0
200001d4:	791b      	ldrb	r3, [r3, #4]
200001d6:	56b2      	ldrsb	r2, [r6, r2]
200001d8:	b25b      	sxtb	r3, r3
200001da:	1c58      	adds	r0, r3, #1
200001dc:	d01b      	beq.n	20000216 <mutex_enter_timeout_ms+0x92>
200001de:	429a      	cmp	r2, r3
200001e0:	d103      	bne.n	200001ea <mutex_enter_timeout_ms+0x66>
200001e2:	4643      	mov	r3, r8
200001e4:	795b      	ldrb	r3, [r3, #5]
200001e6:	2b01      	cmp	r3, #1
200001e8:	d821      	bhi.n	2000022e <mutex_enter_timeout_ms+0xaa>
200001ea:	4643      	mov	r3, r8
200001ec:	681b      	ldr	r3, [r3, #0]
200001ee:	f3bf 8f5f 	dmb	sy
200001f2:	601f      	str	r7, [r3, #0]
200001f4:	f381 8810 	msr	PRIMASK, r1
200001f8:	0020      	movs	r0, r4
200001fa:	0029      	movs	r1, r5
200001fc:	f000 f89c 	bl	20000338 <__best_effort_wfe_or_timeout_veneer>
20000200:	2800      	cmp	r0, #0
20000202:	d0db      	beq.n	200001bc <mutex_enter_timeout_ms+0x38>
20000204:	2000      	movs	r0, #0
20000206:	bc04      	pop	{r2}
20000208:	4690      	mov	r8, r2
2000020a:	bdf0      	pop	{r4, r5, r6, r7, pc}
2000020c:	428f      	cmp	r7, r1
2000020e:	d1d2      	bne.n	200001b6 <mutex_enter_timeout_ms+0x32>
20000210:	4286      	cmp	r6, r0
20000212:	d8cd      	bhi.n	200001b0 <mutex_enter_timeout_ms+0x2c>
20000214:	e7cf      	b.n	200001b6 <mutex_enter_timeout_ms+0x32>
20000216:	4643      	mov	r3, r8
20000218:	711a      	strb	r2, [r3, #4]
2000021a:	4643      	mov	r3, r8
2000021c:	681b      	ldr	r3, [r3, #0]
2000021e:	f3bf 8f5f 	dmb	sy
20000222:	2200      	movs	r2, #0
20000224:	601a      	str	r2, [r3, #0]
20000226:	f381 8810 	msr	PRIMASK, r1
2000022a:	2001      	movs	r0, #1
2000022c:	e7eb      	b.n	20000206 <mutex_enter_timeout_ms+0x82>
2000022e:	4642      	mov	r2, r8
20000230:	3b01      	subs	r3, #1
20000232:	7153      	strb	r3, [r2, #5]
20000234:	e7f1      	b.n	2000021a <mutex_enter_timeout_ms+0x96>
20000236:	46c0      	nop			; (mov r8, r8)

20000238 <mutex_exit>:
20000238:	6802      	ldr	r2, [r0, #0]
2000023a:	f3ef 8110 	mrs	r1, PRIMASK
2000023e:	b672      	cpsid	i
20000240:	6813      	ldr	r3, [r2, #0]
20000242:	2b00      	cmp	r3, #0
20000244:	d0fc      	beq.n	20000240 <mutex_exit+0x8>
20000246:	f3bf 8f5f 	dmb	sy
2000024a:	7943      	ldrb	r3, [r0, #5]
2000024c:	2b00      	cmp	r3, #0
2000024e:	d00c      	beq.n	2000026a <mutex_exit+0x32>
20000250:	3301      	adds	r3, #1
20000252:	b2db      	uxtb	r3, r3
20000254:	7143      	strb	r3, [r0, #5]
20000256:	2bff      	cmp	r3, #255	; 0xff
20000258:	d011      	beq.n	2000027e <mutex_exit+0x46>
2000025a:	6803      	ldr	r3, [r0, #0]
2000025c:	f3bf 8f5f 	dmb	sy
20000260:	2200      	movs	r2, #0
20000262:	601a      	str	r2, [r3, #0]
20000264:	f381 8810 	msr	PRIMASK, r1
20000268:	4770      	bx	lr
2000026a:	22ff      	movs	r2, #255	; 0xff
2000026c:	7102      	strb	r2, [r0, #4]
2000026e:	6802      	ldr	r2, [r0, #0]
20000270:	f3bf 8f5f 	dmb	sy
20000274:	6013      	str	r3, [r2, #0]
20000276:	f381 8810 	msr	PRIMASK, r1
2000027a:	bf40      	sev
2000027c:	e7f4      	b.n	20000268 <mutex_exit+0x30>
2000027e:	7103      	strb	r3, [r0, #4]
20000280:	6803      	ldr	r3, [r0, #0]
20000282:	f3bf 8f5f 	dmb	sy
20000286:	2200      	movs	r2, #0
20000288:	601a      	str	r2, [r3, #0]
2000028a:	f381 8810 	msr	PRIMASK, r1
2000028e:	bf40      	sev
20000290:	e7ea      	b.n	20000268 <mutex_exit+0x30>
20000292:	46c0      	nop			; (mov r8, r8)

20000294 <__aeabi_idiv0>:
20000294:	4770      	bx	lr
20000296:	46c0      	nop			; (mov r8, r8)

20000298 <memmove>:
20000298:	b5f0      	push	{r4, r5, r6, r7, lr}
2000029a:	4288      	cmp	r0, r1
2000029c:	d90a      	bls.n	200002b4 <memmove+0x1c>
2000029e:	188b      	adds	r3, r1, r2
200002a0:	4298      	cmp	r0, r3
200002a2:	d207      	bcs.n	200002b4 <memmove+0x1c>
200002a4:	1e53      	subs	r3, r2, #1
200002a6:	2a00      	cmp	r2, #0
200002a8:	d003      	beq.n	200002b2 <memmove+0x1a>
200002aa:	5cca      	ldrb	r2, [r1, r3]
200002ac:	54c2      	strb	r2, [r0, r3]
200002ae:	3b01      	subs	r3, #1
200002b0:	d2fb      	bcs.n	200002aa <memmove+0x12>
200002b2:	bdf0      	pop	{r4, r5, r6, r7, pc}
200002b4:	0005      	movs	r5, r0
200002b6:	2a0f      	cmp	r2, #15
200002b8:	d808      	bhi.n	200002cc <memmove+0x34>
200002ba:	2a00      	cmp	r2, #0
200002bc:	d0f9      	beq.n	200002b2 <memmove+0x1a>
200002be:	2300      	movs	r3, #0
200002c0:	5ccc      	ldrb	r4, [r1, r3]
200002c2:	54ec      	strb	r4, [r5, r3]
200002c4:	3301      	adds	r3, #1
200002c6:	4293      	cmp	r3, r2
200002c8:	d1fa      	bne.n	200002c0 <memmove+0x28>
200002ca:	e7f2      	b.n	200002b2 <memmove+0x1a>
200002cc:	000b      	movs	r3, r1
200002ce:	4303      	orrs	r3, r0
200002d0:	079b      	lsls	r3, r3, #30
200002d2:	d12d      	bne.n	20000330 <memmove+0x98>
200002d4:	0015      	movs	r5, r2
200002d6:	000c      	movs	r4, r1
200002d8:	0003      	movs	r3, r0
200002da:	3d10      	subs	r5, #16
200002dc:	092f      	lsrs	r7, r5, #4
200002de:	3701      	adds	r7, #1
200002e0:	013f      	lsls	r7, r7, #4
200002e2:	19c7      	adds	r7, r0, r7
200002e4:	6826      	ldr	r6, [r4, #0]
200002e6:	601e      	str	r6, [r3, #0]
200002e8:	6866      	ldr	r6, [r4, #4]
200002ea:	605e      	str	r6, [r3, #4]
200002ec:	68a6      	ldr	r6, [r4, #8]
200002ee:	609e      	str	r6, [r3, #8]
200002f0:	68e6      	ldr	r6, [r4, #12]
200002f2:	3410      	adds	r4, #16
200002f4:	60de      	str	r6, [r3, #12]
200002f6:	3310      	adds	r3, #16
200002f8:	429f      	cmp	r7, r3
200002fa:	d1f3      	bne.n	200002e4 <memmove+0x4c>
200002fc:	240f      	movs	r4, #15
200002fe:	43a5      	bics	r5, r4
20000300:	3510      	adds	r5, #16
20000302:	1949      	adds	r1, r1, r5
20000304:	4014      	ands	r4, r2
20000306:	1945      	adds	r5, r0, r5
20000308:	2c03      	cmp	r4, #3
2000030a:	d913      	bls.n	20000334 <memmove+0x9c>
2000030c:	2300      	movs	r3, #0
2000030e:	1f27      	subs	r7, r4, #4
20000310:	08be      	lsrs	r6, r7, #2
20000312:	3601      	adds	r6, #1
20000314:	00b6      	lsls	r6, r6, #2
20000316:	58cc      	ldr	r4, [r1, r3]
20000318:	50ec      	str	r4, [r5, r3]
2000031a:	3304      	adds	r3, #4
2000031c:	42b3      	cmp	r3, r6
2000031e:	d1fa      	bne.n	20000316 <memmove+0x7e>
20000320:	2603      	movs	r6, #3
20000322:	43b7      	bics	r7, r6
20000324:	1d3c      	adds	r4, r7, #4
20000326:	1909      	adds	r1, r1, r4
20000328:	192d      	adds	r5, r5, r4
2000032a:	4032      	ands	r2, r6
2000032c:	d1c7      	bne.n	200002be <memmove+0x26>
2000032e:	e7c0      	b.n	200002b2 <memmove+0x1a>
20000330:	0005      	movs	r5, r0
20000332:	e7c4      	b.n	200002be <memmove+0x26>
20000334:	0022      	movs	r2, r4
20000336:	e7c0      	b.n	200002ba <memmove+0x22>

20000338 <__best_effort_wfe_or_timeout_veneer>:
20000338:	b401      	push	{r0}
2000033a:	4802      	ldr	r0, [pc, #8]	; (20000344 <__best_effort_wfe_or_timeout_veneer+0xc>)
2000033c:	4684      	mov	ip, r0
2000033e:	bc01      	pop	{r0}
20000340:	4760      	bx	ip
20000342:	bf00      	nop
20000344:	10000e4d 	.word	0x10000e4d

20000348 <____wrap___aeabi_lmul_veneer>:
20000348:	b401      	push	{r0}
2000034a:	4802      	ldr	r0, [pc, #8]	; (20000354 <____wrap___aeabi_lmul_veneer+0xc>)
2000034c:	4684      	mov	ip, r0
2000034e:	bc01      	pop	{r0}
20000350:	4760      	bx	ip
20000352:	bf00      	nop
20000354:	100026e1 	.word	0x100026e1

20000358 <__time_us_64_veneer>:
20000358:	b401      	push	{r0}
2000035a:	4802      	ldr	r0, [pc, #8]	; (20000364 <__time_us_64_veneer+0xc>)
2000035c:	4684      	mov	ip, r0
2000035e:	bc01      	pop	{r0}
20000360:	4760      	bx	ip
20000362:	bf00      	nop
20000364:	100010cd 	.word	0x100010cd

20000368 <blink_interval_ms>:
20000368:	000000fa                                ....

2000036c <msc_disk>:
2000036c:	4d903ceb 534f4453 00302e35 00010102     .<.MSDOS5.0.....
2000037c:	10001001 0001f800 00010001 00000000     ................
2000038c:	00000000 34290080 54000012 55796e69     ......)4...TinyU
2000039c:	4d204253 41464353 20323154 00002020     SB MSCFAT12   ..
	...
20000568:	aa550000 fffffff8 0000000f 00000000     ..U.............
	...
2000076c:	796e6954 20425355 0843534d 00000000     TinyUSB MSC.....
2000077c:	00000000 6d4f0000 00004365 00000000     ......OmeC......
2000078c:	44414552 2020454d 20545854 6d52c600     README  TXT ..Rm
2000079c:	43654365 6d880000 00024365 00000091     eCeC...meC......
	...
2000096c:	73696854 20736920 796e6974 27627375     This is tinyusb'
2000097c:	614d2073 74537373 6761726f 6c432065     s MassStorage Cl
2000098c:	20737361 6f6d6564 0d0a0d2e 2066490a     ass demo.....If 
2000099c:	20756f79 646e6966 796e6120 67756220     you find any bug
200009ac:	726f2073 74656720 796e6120 65757120     s or get any que
200009bc:	6f697473 202c736e 6c656566 65726620     stions, feel fre
200009cc:	6f742065 6c696620 6e612065 73690a0d     e to file an..is
200009dc:	20657573 67207461 75687469 6f632e62     sue at github.co
200009ec:	61682f6d 63616874 69742f68 7375796e     m/hathach/tinyus
200009fc:	00000062 00000000 00000000 00000000     b...............
	...

2000236c <string_desc_arr>:
2000236c:	10006b28 10006b10 10006ba4 10006bb4     (k...k...k...k..
2000237c:	10006bbc 10006bc8                       .k...k..

20002384 <striped_spin_lock_num>:
20002384:	00000010                                ....

20002388 <default_alarm_pool>:
20002388:	200023a0 00000000 20002cd0 200032f0     .#. .....,. .2. 
	...

200023a0 <default_alarm_pool_heap>:
200023a0:	20003300 00000000 00000000 00000010     .3. ............

200023b0 <irq_handler_chain_slots>:
200023b0:	00000000 	.word	0x00000000
200023b4:	00010000 	.word	0x00010000
	...
200023c0:	00020000 	.word	0x00020000
	...
200023cc:	00030000 	.word	0x00030000
	...
200023d8:	00ff0000 	.word	0x00ff0000
200023dc:	00000000 	.word	0x00000000

200023e0 <irq_handler_chain_first_slot>:
200023e0:	b500      	push	{lr}
200023e2:	6848      	ldr	r0, [r1, #4]
200023e4:	3101      	adds	r1, #1
200023e6:	468e      	mov	lr, r1
200023e8:	4700      	bx	r0

200023ea <irq_handler_chain_remove_tail>:
200023ea:	4670      	mov	r0, lr
200023ec:	3809      	subs	r0, #9
200023ee:	4901      	ldr	r1, [pc, #4]	; (200023f4 <irq_handler_chain_remove_tail+0xa>)
200023f0:	4788      	blx	r1
200023f2:	bd00      	pop	{pc}
200023f4:	10001f51 	.word	0x10001f51
	...

20002400 <aeabi_bits_funcs>:
20002400:	00003350 	.word	0x00003350
20002404:	0000334c 	.word	0x0000334c
20002408:	00003354 	.word	0x00003354
2000240c:	00003352 	.word	0x00003352

20002410 <aeabi_bits_funcs_end>:
20002410:	0000534d 	.word	0x0000534d
20002414:	0000434d 	.word	0x0000434d
20002418:	00003453 	.word	0x00003453
2000241c:	00003443 	.word	0x00003443

20002420 <aeabi_mem_funcs_end>:
20002420:	10002b01 	.word	0x10002b01
20002424:	00000000 	.word	0x00000000
20002428:	10002b4d 	.word	0x10002b4d
2000242c:	00000000 	.word	0x00000000
20002430:	00000100 	.word	0x00000100

20002434 <ep_dir_string>:
20002434:	10006d3c 10006d40                       <m..@m..

2000243c <_usbd_qdef>:
2000243c:	2000398c 000c0010 ffe00000 0000001f     .9. ............
	...

20002460 <_impure_ptr>:
20002460:	20002468 00000000                       h$. ....

20002468 <impure_data>:
20002468:	00000000 20002754 200027bc 20002824     ....T'. .'. $(. 
	...
2000249c:	10006ec0 00000000 00000000 00000000     .n..............
	...
20002510:	00000001 00000000 abcd330e e66d1234     .........3..4.m.
20002520:	0005deec 0000000b 00000000 00000000     ................
	...

20002890 <__malloc_av_>:
	...
20002898:	20002890 20002890 20002898 20002898     .(. .(. .(. .(. 
200028a8:	200028a0 200028a0 200028a8 200028a8     .(. .(. .(. .(. 
200028b8:	200028b0 200028b0 200028b8 200028b8     .(. .(. .(. .(. 
200028c8:	200028c0 200028c0 200028c8 200028c8     .(. .(. .(. .(. 
200028d8:	200028d0 200028d0 200028d8 200028d8     .(. .(. .(. .(. 
200028e8:	200028e0 200028e0 200028e8 200028e8     .(. .(. .(. .(. 
200028f8:	200028f0 200028f0 200028f8 200028f8     .(. .(. .(. .(. 
20002908:	20002900 20002900 20002908 20002908     .). .). .). .). 
20002918:	20002910 20002910 20002918 20002918     .). .). .). .). 
20002928:	20002920 20002920 20002928 20002928      ).  ). (). (). 
20002938:	20002930 20002930 20002938 20002938     0). 0). 8). 8). 
20002948:	20002940 20002940 20002948 20002948     @). @). H). H). 
20002958:	20002950 20002950 20002958 20002958     P). P). X). X). 
20002968:	20002960 20002960 20002968 20002968     `). `). h). h). 
20002978:	20002970 20002970 20002978 20002978     p). p). x). x). 
20002988:	20002980 20002980 20002988 20002988     .). .). .). .). 
20002998:	20002990 20002990 20002998 20002998     .). .). .). .). 
200029a8:	200029a0 200029a0 200029a8 200029a8     .). .). .). .). 
200029b8:	200029b0 200029b0 200029b8 200029b8     .). .). .). .). 
200029c8:	200029c0 200029c0 200029c8 200029c8     .). .). .). .). 
200029d8:	200029d0 200029d0 200029d8 200029d8     .). .). .). .). 
200029e8:	200029e0 200029e0 200029e8 200029e8     .). .). .). .). 
200029f8:	200029f0 200029f0 200029f8 200029f8     .). .). .). .). 
20002a08:	20002a00 20002a00 20002a08 20002a08     .*. .*. .*. .*. 
20002a18:	20002a10 20002a10 20002a18 20002a18     .*. .*. .*. .*. 
20002a28:	20002a20 20002a20 20002a28 20002a28      *.  *. (*. (*. 
20002a38:	20002a30 20002a30 20002a38 20002a38     0*. 0*. 8*. 8*. 
20002a48:	20002a40 20002a40 20002a48 20002a48     @*. @*. H*. H*. 
20002a58:	20002a50 20002a50 20002a58 20002a58     P*. P*. X*. X*. 
20002a68:	20002a60 20002a60 20002a68 20002a68     `*. `*. h*. h*. 
20002a78:	20002a70 20002a70 20002a78 20002a78     p*. p*. x*. x*. 
20002a88:	20002a80 20002a80 20002a88 20002a88     .*. .*. .*. .*. 
20002a98:	20002a90 20002a90 20002a98 20002a98     .*. .*. .*. .*. 
20002aa8:	20002aa0 20002aa0 20002aa8 20002aa8     .*. .*. .*. .*. 
20002ab8:	20002ab0 20002ab0 20002ab8 20002ab8     .*. .*. .*. .*. 
20002ac8:	20002ac0 20002ac0 20002ac8 20002ac8     .*. .*. .*. .*. 
20002ad8:	20002ad0 20002ad0 20002ad8 20002ad8     .*. .*. .*. .*. 
20002ae8:	20002ae0 20002ae0 20002ae8 20002ae8     .*. .*. .*. .*. 
20002af8:	20002af0 20002af0 20002af8 20002af8     .*. .*. .*. .*. 
20002b08:	20002b00 20002b00 20002b08 20002b08     .+. .+. .+. .+. 
20002b18:	20002b10 20002b10 20002b18 20002b18     .+. .+. .+. .+. 
20002b28:	20002b20 20002b20 20002b28 20002b28      +.  +. (+. (+. 
20002b38:	20002b30 20002b30 20002b38 20002b38     0+. 0+. 8+. 8+. 
20002b48:	20002b40 20002b40 20002b48 20002b48     @+. @+. H+. H+. 
20002b58:	20002b50 20002b50 20002b58 20002b58     P+. P+. X+. X+. 
20002b68:	20002b60 20002b60 20002b68 20002b68     `+. `+. h+. h+. 
20002b78:	20002b70 20002b70 20002b78 20002b78     p+. p+. x+. x+. 
20002b88:	20002b80 20002b80 20002b88 20002b88     .+. .+. .+. .+. 
20002b98:	20002b90 20002b90 20002b98 20002b98     .+. .+. .+. .+. 
20002ba8:	20002ba0 20002ba0 20002ba8 20002ba8     .+. .+. .+. .+. 
20002bb8:	20002bb0 20002bb0 20002bb8 20002bb8     .+. .+. .+. .+. 
20002bc8:	20002bc0 20002bc0 20002bc8 20002bc8     .+. .+. .+. .+. 
20002bd8:	20002bd0 20002bd0 20002bd8 20002bd8     .+. .+. .+. .+. 
20002be8:	20002be0 20002be0 20002be8 20002be8     .+. .+. .+. .+. 
20002bf8:	20002bf0 20002bf0 20002bf8 20002bf8     .+. .+. .+. .+. 
20002c08:	20002c00 20002c00 20002c08 20002c08     .,. .,. .,. .,. 
20002c18:	20002c10 20002c10 20002c18 20002c18     .,. .,. .,. .,. 
20002c28:	20002c20 20002c20 20002c28 20002c28      ,.  ,. (,. (,. 
20002c38:	20002c30 20002c30 20002c38 20002c38     0,. 0,. 8,. 8,. 
20002c48:	20002c40 20002c40 20002c48 20002c48     @,. @,. H,. H,. 
20002c58:	20002c50 20002c50 20002c58 20002c58     P,. P,. X,. X,. 
20002c68:	20002c60 20002c60 20002c68 20002c68     `,. `,. h,. h,. 
20002c78:	20002c70 20002c70 20002c78 20002c78     p,. p,. x,. x,. 
20002c88:	20002c80 20002c80 20002c88 20002c88     .,. .,. .,. .,. 

20002c98 <__malloc_sbrk_base>:
20002c98:	ffffffff                                ....

20002c9c <__malloc_trim_threshold>:
20002c9c:	00020000                                ....

20002ca0 <__mutex_array_start>:
	...

20002ca8 <__mutex_array_end>:
20002ca8:	100027a9 	.word	0x100027a9
20002cac:	10002179 	.word	0x10002179
20002cb0:	10002669 	.word	0x10002669
20002cb4:	10002715 	.word	0x10002715

20002cb8 <__frame_dummy_init_array_entry>:
20002cb8:	1000033d 10002bc1                       =....+..
